
qor-os:	file format elf64-littleriscv


Disassembly of section .text:

0000000080000000 <_text_start>:
80000000: 97 61 00 00  	auipc	gp, 6
80000004: 93 81 e1 15  	addi	gp, gp, 350
80000008: 73 10 00 18  	csrw	satp, zero
8000000c: f3 22 40 f1  	csrr	t0, mhartid
80000010: 63 96 02 0a  	bnez	t0, 172 <_start_wfi_loop>

0000000080000014 <.Lpcrel_hi1>:
80000014: 17 85 00 00  	auipc	a0, 8
80000018: 13 05 45 ff  	addi	a0, a0, -12

000000008000001c <.Lpcrel_hi2>:
8000001c: 97 85 00 00  	auipc	a1, 8
80000020: 93 85 c5 02  	addi	a1, a1, 44
80000024: 63 78 b5 00  	bgeu	a0, a1, 16 <_start_init>

0000000080000028 <_start_zero_bss_loop>:
80000028: 23 30 05 00  	sd	zero, 0(a0)
8000002c: 13 05 85 00  	addi	a0, a0, 8
80000030: e3 6c b5 fe  	bltu	a0, a1, -8 <_start_zero_bss_loop>

0000000080000034 <_start_init>:
80000034: 17 81 08 00  	auipc	sp, 136
80000038: 13 01 41 01  	addi	sp, sp, 20
8000003c: b7 22 00 00  	lui	t0, 2
80000040: 9b 82 82 88  	addiw	t0, t0, -1912
80000044: 73 90 02 30  	csrw	mstatus, t0

0000000080000048 <.Lpcrel_hi4>:
80000048: 17 33 00 00  	auipc	t1, 3
8000004c: 13 03 43 4c  	addi	t1, t1, 1220
80000050: 73 10 13 34  	csrw	mepc, t1

0000000080000054 <.Lpcrel_hi5>:
80000054: 97 03 00 00  	auipc	t2, 0
80000058: 93 83 83 5f  	addi	t2, t2, 1528
8000005c: 73 90 53 30  	csrw	mtvec, t2
80000060: 37 1e 00 00  	lui	t3, 1
80000064: 1b 0e 8e 88  	addiw	t3, t3, -1912
80000068: 73 10 4e 30  	csrw	mie, t3
8000006c: 97 00 00 00  	auipc	ra, 0
80000070: 93 80 c0 00  	addi	ra, ra, 12
80000074: 73 00 20 30  	mret	

0000000080000078 <_start_kinit_return>:
80000078: 93 02 00 12  	addi	t0, zero, 288
8000007c: 73 90 02 10  	csrw	sstatus, t0

0000000080000080 <.Lpcrel_hi7>:
80000080: 17 33 00 00  	auipc	t1, 3
80000084: 13 03 63 58  	addi	t1, t1, 1414
80000088: 73 10 13 14  	csrw	sepc, t1
8000008c: 93 03 20 22  	addi	t2, zero, 546
80000090: 73 90 33 30  	csrw	mideleg, t2
80000094: 73 90 43 10  	csrw	sie, t2

0000000080000098 <.Lpcrel_hi8>:
80000098: 17 0e 00 00  	auipc	t3, 0
8000009c: 13 0e 4e 5b  	addi	t3, t3, 1460
800000a0: 73 10 5e 10  	csrw	stvec, t3
800000a4: 73 10 05 18  	csrw	satp, a0
800000a8: 97 00 00 00  	auipc	ra, 0
800000ac: 93 80 40 01  	addi	ra, ra, 20
800000b0: 73 00 00 12  	sfence.vma
800000b4: 73 00 20 10  	sret	

00000000800000b8 <_inbetween>:
800000b8: 93 0d a0 02  	addi	s11, zero, 42

00000000800000bc <_start_wfi_loop>:
800000bc: 73 00 50 10  	wfi	
800000c0: 6f f0 df ff  	j	-4 <_start_wfi_loop>
800000c4: 00 00        	unimp	
800000c6: 00 00        	unimp	
800000c8: 14 00        	<unknown>
800000ca: 00 00        	unimp	
800000cc: 00 00        	unimp	
800000ce: 00 00        	unimp	
800000d0: 01 7a        	lui	s4, 1048544
800000d2: 52 00        	c.slli	zero, 20
800000d4: 01 78        	lui	a6, 1048544
800000d6: 01 01        	mv	sp, sp
800000d8: 1b 0c 02 00  	sext.w	s8, tp
800000dc: 00 00        	unimp	
800000de: 00 00        	unimp	
800000e0: 14 00        	<unknown>
800000e2: 00 00        	unimp	
800000e4: 1c 00        	<unknown>
800000e6: 00 00        	unimp	
800000e8: c4 52        	lw	s1, 36(a3)
800000ea: 00 00        	unimp	
800000ec: 04 00        	<unknown>
		...
800000f6: 00 00        	unimp	
800000f8: 14 00        	<unknown>
800000fa: 00 00        	unimp	
800000fc: 34 00        	addi	a3, sp, 8
800000fe: 00 00        	unimp	
80000100: b0 52        	lw	a2, 96(a3)
80000102: 00 00        	unimp	
80000104: 02 00        	c.slli64	zero
		...
8000010e: 00 00        	unimp	
80000110: 14 00        	<unknown>
80000112: 00 00        	unimp	
80000114: 4c 00        	addi	a1, sp, 4
80000116: 00 00        	unimp	
80000118: 9a 52        	lw	t0, 164(sp)
8000011a: 00 00        	unimp	
8000011c: 1c 00        	<unknown>
		...
80000126: 00 00        	unimp	
80000128: 14 00        	<unknown>
8000012a: 00 00        	unimp	
8000012c: 64 00        	addi	s1, sp, 12
8000012e: 00 00        	unimp	
80000130: 9e 52        	lw	t0, 228(sp)
80000132: 00 00        	unimp	
80000134: 04 00        	<unknown>
		...
8000013e: 00 00        	unimp	
80000140: 14 00        	<unknown>
80000142: 00 00        	unimp	
80000144: 7c 00        	addi	a5, sp, 12
80000146: 00 00        	unimp	
80000148: 8a 52        	lw	t0, 160(sp)
8000014a: 00 00        	unimp	
8000014c: 04 00        	<unknown>
		...
80000156: 00 00        	unimp	
80000158: 14 00        	<unknown>
8000015a: 00 00        	unimp	
8000015c: 94 00        	addi	a3, sp, 64
8000015e: 00 00        	unimp	
80000160: 76 52        	lw	tp, 124(sp)
80000162: 00 00        	unimp	
80000164: 08 00        	<unknown>
		...
8000016e: 00 00        	unimp	
80000170: 14 00        	<unknown>
80000172: 00 00        	unimp	
80000174: ac 00        	addi	a1, sp, 72
80000176: 00 00        	unimp	
80000178: 66 52        	lw	tp, 120(sp)
8000017a: 00 00        	unimp	
8000017c: 04 00        	<unknown>
		...
80000186: 00 00        	unimp	
80000188: 14 00        	<unknown>
8000018a: 00 00        	unimp	
8000018c: c4 00        	addi	s1, sp, 68
8000018e: 00 00        	unimp	
80000190: 52 52        	lw	tp, 52(sp)
80000192: 00 00        	unimp	
80000194: 2c 00        	addi	a1, sp, 8
80000196: 00 00        	unimp	
80000198: 00 42        	lw	s0, 0(a2)
8000019a: 0e 50        	<unknown>
8000019c: 42 81        	add	sp, zero, a6
8000019e: 01 00        	nop
800001a0: 14 00        	<unknown>
800001a2: 00 00        	unimp	
800001a4: dc 00        	addi	a5, sp, 68
800001a6: 00 00        	unimp	
800001a8: 66 52        	lw	tp, 120(sp)
800001aa: 00 00        	unimp	
800001ac: 40 00        	addi	s0, sp, 4
800001ae: 00 00        	unimp	
800001b0: 00 42        	lw	s0, 0(a2)
800001b2: 0e 70        	<unknown>
800001b4: 42 81        	add	sp, zero, a6
800001b6: 01 00        	nop
800001b8: 14 00        	<unknown>
800001ba: 00 00        	unimp	
800001bc: f4 00        	addi	a3, sp, 76
800001be: 00 00        	unimp	
800001c0: 8e 52        	lw	t0, 224(sp)
800001c2: 00 00        	unimp	
800001c4: 28 00        	addi	a0, sp, 8
800001c6: 00 00        	unimp	
800001c8: 00 42        	lw	s0, 0(a2)
800001ca: 0e 30        	<unknown>
800001cc: 42 81        	add	sp, zero, a6
800001ce: 01 00        	nop
800001d0: 1c 00        	<unknown>
800001d2: 00 00        	unimp	
800001d4: 0c 01        	addi	a1, sp, 128
800001d6: 00 00        	unimp	
800001d8: 9e 52        	lw	t0, 228(sp)
800001da: 00 00        	unimp	
800001dc: 6c 00        	addi	a1, sp, 12
800001de: 00 00        	unimp	
800001e0: 00 42        	lw	s0, 0(a2)
800001e2: 0e 20        	<unknown>
800001e4: 46 81        	add	sp, zero, a7
800001e6: 01 88        	andi	s0, s0, 0
800001e8: 02 89        	jr	s2
800001ea: 03 00 00 00  	lb	zero, 0(zero)
800001ee: 00 00        	unimp	
800001f0: 14 00        	<unknown>
800001f2: 00 00        	unimp	
800001f4: 2c 01        	addi	a1, sp, 136
800001f6: 00 00        	unimp	
800001f8: ea 52        	lw	t0, 184(sp)
800001fa: 00 00        	unimp	
800001fc: 32 00        	c.slli	zero, 12
800001fe: 00 00        	unimp	
80000200: 00 42        	lw	s0, 0(a2)
80000202: 0e 40        	<unknown>
80000204: 42 81        	add	sp, zero, a6
80000206: 01 00        	nop
80000208: 2c 00        	addi	a1, sp, 8
8000020a: 00 00        	unimp	
8000020c: 44 01        	addi	s1, sp, 132
8000020e: 00 00        	unimp	
80000210: 04 53        	lw	s1, 32(a4)
80000212: 00 00        	unimp	
80000214: a2 01        	slli	gp, gp, 8
80000216: 00 00        	unimp	
80000218: 00 42        	lw	s0, 0(a2)
8000021a: 0e a0        	<unknown>
8000021c: 01 56        	addi	a2, zero, -32
8000021e: 81 01        	mv	gp, gp
80000220: 88 02        	addi	a0, sp, 320
80000222: 89 03        	addi	t2, t2, 2
80000224: 92 04        	slli	s1, s1, 4
80000226: 93 05 94 06  	addi	a1, s0, 105
8000022a: 95 07        	addi	a5, a5, 5
8000022c: 96 08        	slli	a7, a7, 5
8000022e: 97 09 98 0a  	auipc	s3, 43392
80000232: 99 0b        	addi	s7, s7, 6
80000234: 00 00        	unimp	
80000236: 00 00        	unimp	
80000238: 2c 00        	addi	a1, sp, 8
8000023a: 00 00        	unimp	
8000023c: 74 01        	addi	a3, sp, 140
8000023e: 00 00        	unimp	
80000240: 76 54        	lw	s0, 124(sp)
80000242: 00 00        	unimp	
80000244: 3e 02        	slli	tp, tp, 15
80000246: 00 00        	unimp	
80000248: 00 42        	lw	s0, 0(a2)
8000024a: 0e 70        	<unknown>
8000024c: 5a 81        	add	sp, zero, s6
8000024e: 01 88        	andi	s0, s0, 0
80000250: 02 89        	jr	s2
80000252: 03 92 04 93  	lh	tp, -1744(s1)
80000256: 05 94        	srai	s0, s0, 33
80000258: 06 95        	add	a0, a0, ra
8000025a: 07 96 08 97  	<unknown>
8000025e: 09 98        	andi	s0, s0, -30
80000260: 0a 99        	add	s2, s2, sp
80000262: 0b 9a 0c 9b  	<unknown>
80000266: 0d 00        	c.nop	3
80000268: 1c 00        	<unknown>
8000026a: 00 00        	unimp	
8000026c: a4 01        	addi	s1, sp, 200
8000026e: 00 00        	unimp	
80000270: 84 56        	lw	s1, 40(a3)
80000272: 00 00        	unimp	
80000274: 52 00        	c.slli	zero, 20
80000276: 00 00        	unimp	
80000278: 00 42        	lw	s0, 0(a2)
8000027a: 0e 20        	<unknown>
8000027c: 48 81        	<unknown>
8000027e: 01 88        	andi	s0, s0, 0
80000280: 02 89        	jr	s2
80000282: 03 92 04 00  	lh	tp, 0(s1)
80000286: 00 00        	unimp	
80000288: 24 00        	addi	s1, sp, 8
8000028a: 00 00        	unimp	
8000028c: c4 01        	addi	s1, sp, 196
8000028e: 00 00        	unimp	
80000290: b6 56        	lw	a3, 108(sp)
80000292: 00 00        	unimp	
80000294: ca 02        	slli	t0, t0, 18
80000296: 00 00        	unimp	
80000298: 00 42        	lw	s0, 0(a2)
8000029a: 0e 40        	<unknown>
8000029c: 50 81        	<unknown>
8000029e: 01 88        	andi	s0, s0, 0
800002a0: 02 89        	jr	s2
800002a2: 03 92 04 93  	lh	tp, -1744(s1)
800002a6: 05 94        	srai	s0, s0, 33
800002a8: 06 95        	add	a0, a0, ra
800002aa: 07 96 08 00  	<unknown>
800002ae: 00 00        	unimp	
800002b0: 1c 00        	<unknown>
800002b2: 00 00        	unimp	
800002b4: ec 01        	addi	a1, sp, 204
800002b6: 00 00        	unimp	
800002b8: 58 59        	lw	a4, 52(a0)
800002ba: 00 00        	unimp	
800002bc: 3c 00        	addi	a5, sp, 8
800002be: 00 00        	unimp	
800002c0: 00 42        	lw	s0, 0(a2)
800002c2: 0e 20        	<unknown>
800002c4: 48 81        	<unknown>
800002c6: 01 88        	andi	s0, s0, 0
800002c8: 02 89        	jr	s2
800002ca: 03 92 04 00  	lh	tp, 0(s1)
800002ce: 00 00        	unimp	
800002d0: 14 00        	<unknown>
800002d2: 00 00        	unimp	
800002d4: 0c 02        	addi	a1, sp, 256
800002d6: 00 00        	unimp	
800002d8: 74 59        	lw	a3, 116(a0)
800002da: 00 00        	unimp	
800002dc: 10 00        	<unknown>
		...
800002e6: 00 00        	unimp	
800002e8: 14 00        	<unknown>
800002ea: 00 00        	unimp	
800002ec: 24 02        	addi	s1, sp, 264
800002ee: 00 00        	unimp	
800002f0: 6c 59        	lw	a1, 116(a0)
800002f2: 00 00        	unimp	
800002f4: 40 00        	addi	s0, sp, 4
800002f6: 00 00        	unimp	
800002f8: 00 42        	lw	s0, 0(a2)
800002fa: 0e 70        	<unknown>
800002fc: 42 81        	add	sp, zero, a6
800002fe: 01 00        	nop
80000300: 14 00        	<unknown>
80000302: 00 00        	unimp	
80000304: 3c 02        	addi	a5, sp, 264
80000306: 00 00        	unimp	
80000308: 94 59        	lw	a3, 48(a1)
8000030a: 00 00        	unimp	
8000030c: 40 00        	addi	s0, sp, 4
8000030e: 00 00        	unimp	
80000310: 00 42        	lw	s0, 0(a2)
80000312: 0e 70        	<unknown>
80000314: 42 81        	add	sp, zero, a6
80000316: 01 00        	nop
80000318: 14 00        	<unknown>
8000031a: 00 00        	unimp	
8000031c: 54 02        	addi	a3, sp, 260
8000031e: 00 00        	unimp	
80000320: bc 59        	lw	a5, 112(a1)
80000322: 00 00        	unimp	
80000324: 40 00        	addi	s0, sp, 4
80000326: 00 00        	unimp	
80000328: 00 42        	lw	s0, 0(a2)
8000032a: 0e 70        	<unknown>
8000032c: 42 81        	add	sp, zero, a6
8000032e: 01 00        	nop
80000330: 14 00        	<unknown>
80000332: 00 00        	unimp	
80000334: 6c 02        	addi	a1, sp, 268
80000336: 00 00        	unimp	
80000338: e4 59        	lw	s1, 116(a1)
8000033a: 00 00        	unimp	
8000033c: 90 00        	addi	a2, sp, 64
8000033e: 00 00        	unimp	
80000340: 00 42        	lw	s0, 0(a2)
80000342: 0e 90        	c.add	zero, gp
80000344: 01 42        	mv	tp, zero
80000346: 81 01        	mv	gp, gp
80000348: 14 00        	<unknown>
8000034a: 00 00        	unimp	
8000034c: 84 02        	addi	s1, sp, 320
8000034e: 00 00        	unimp	
80000350: 5c 5a        	lw	a5, 52(a2)
80000352: 00 00        	unimp	
80000354: 6c 00        	addi	a1, sp, 12
80000356: 00 00        	unimp	
80000358: 00 42        	lw	s0, 0(a2)
8000035a: 0e 90        	c.add	zero, gp
8000035c: 01 42        	mv	tp, zero
8000035e: 81 01        	mv	gp, gp
80000360: 14 00        	<unknown>
80000362: 00 00        	unimp	
80000364: 9c 02        	addi	a5, sp, 320
80000366: 00 00        	unimp	
80000368: b0 5a        	lw	a2, 112(a3)
8000036a: 00 00        	unimp	
8000036c: 80 00        	addi	s0, sp, 64
8000036e: 00 00        	unimp	
80000370: 00 42        	lw	s0, 0(a2)
80000372: 0e 90        	c.add	zero, gp
80000374: 01 42        	mv	tp, zero
80000376: 81 01        	mv	gp, gp
80000378: 1c 00        	<unknown>
8000037a: 00 00        	unimp	
8000037c: b4 02        	addi	a3, sp, 328
8000037e: 00 00        	unimp	
80000380: 18 5b        	lw	a4, 48(a4)
80000382: 00 00        	unimp	
80000384: bc 01        	addi	a5, sp, 200
80000386: 00 00        	unimp	
80000388: 00 42        	lw	s0, 0(a2)
8000038a: 0e 50        	<unknown>
8000038c: 48 81        	<unknown>
8000038e: 01 88        	andi	s0, s0, 0
80000390: 02 89        	jr	s2
80000392: 03 92 04 00  	lh	tp, 0(s1)
80000396: 00 00        	unimp	
80000398: 1c 00        	<unknown>
8000039a: 00 00        	unimp	
8000039c: d4 02        	addi	a3, sp, 324
8000039e: 00 00        	unimp	
800003a0: b4 5c        	lw	a3, 120(s1)
800003a2: 00 00        	unimp	
800003a4: bc 01        	addi	a5, sp, 200
800003a6: 00 00        	unimp	
800003a8: 00 42        	lw	s0, 0(a2)
800003aa: 0e 50        	<unknown>
800003ac: 48 81        	<unknown>
800003ae: 01 88        	andi	s0, s0, 0
800003b0: 02 89        	jr	s2
800003b2: 03 92 04 00  	lh	tp, 0(s1)
800003b6: 00 00        	unimp	
800003b8: 14 00        	<unknown>
800003ba: 00 00        	unimp	
800003bc: f4 02        	addi	a3, sp, 332
800003be: 00 00        	unimp	
800003c0: 50 5e        	lw	a2, 60(a2)
800003c2: 00 00        	unimp	
800003c4: 16 00        	c.slli	zero, 5
		...
800003d2: 00 00        	unimp	

00000000800003d4 <qor_os::debug::check_debug::hc49ef885f7cc9813>:
800003d4: 5d 71        	addi	sp, sp, -80
800003d6: 86 e4        	sd	ra, 72(sp)
800003d8: aa 85        	add	a1, zero, a0
800003da: a3 00 a1 04  	sb	a0, 65(sp)
800003de: 01 45        	mv	a0, zero
800003e0: a3 01 a1 04  	sb	a0, 67(sp)

00000000800003e4 <.LBB0_19>:
800003e4: 17 86 00 00  	auipc	a2, 8
800003e8: 13 06 c6 c1  	addi	a2, a2, -996
800003ec: 2a fc        	sd	a0, 56(sp)
800003ee: 32 85        	add	a0, zero, a2
800003f0: 62 76        	ld	a2, 56(sp)
800003f2: 2e f8        	sd	a1, 48(sp)
800003f4: b2 85        	add	a1, zero, a2
800003f6: 97 40 00 00  	auipc	ra, 4
800003fa: e7 80 00 47  	jalr	1136(ra)
800003fe: 2a f4        	sd	a0, 40(sp)
80000400: 09 a0        	j	2 <.LBB0_19+0x1e>
80000402: 01 45        	mv	a0, zero
80000404: a2 75        	ld	a1, 40(sp)
80000406: 63 8a a5 02  	beq	a1, a0, 52 <.LBB0_19+0x56>
8000040a: 09 a0        	j	2 <.LBB0_19+0x28>
8000040c: 03 45 11 04  	lbu	a0, 65(sp)
80000410: 81 45        	mv	a1, zero
80000412: 2a f0        	sd	a0, 32(sp)
80000414: 63 0c b5 02  	beq	a0, a1, 56 <.LBB0_19+0x68>
80000418: 09 a0        	j	2 <.LBB0_19+0x36>
8000041a: 05 45        	addi	a0, zero, 1
8000041c: 82 75        	ld	a1, 32(sp)
8000041e: 63 89 a5 04  	beq	a1, a0, 82 <.LBB0_20+0x1e>
80000422: 09 a0        	j	2 <.LBB0_19+0x40>
80000424: 09 45        	addi	a0, zero, 2
80000426: 82 75        	ld	a1, 32(sp)
80000428: 63 86 a5 06  	beq	a1, a0, 108 <.LBB0_21+0x1e>
8000042c: 09 a0        	j	2 <.LBB0_19+0x4a>
8000042e: 0d 45        	addi	a0, zero, 3
80000430: 82 75        	ld	a1, 32(sp)
80000432: 63 83 a5 08  	beq	a1, a0, 134 <.LBB0_22+0x1e>
80000436: 09 a0        	j	2 <.LBB0_19+0x54>
80000438: 29 a0        	j	10 <.LBB0_19+0x5e>
8000043a: 01 45        	mv	a0, zero
8000043c: 23 01 a1 04  	sb	a0, 66(sp)
80000440: 71 a8        	j	156 <.LBB0_23+0x1e>
80000442: 05 45        	addi	a0, zero, 1
80000444: 23 01 a1 04  	sb	a0, 66(sp)
80000448: 51 a8        	j	148 <.LBB0_23+0x1e>
8000044a: 00 00        	unimp	
8000044c: 01 45        	mv	a0, zero
8000044e: 23 02 a1 04  	sb	a0, 68(sp)

0000000080000452 <.LBB0_20>:
80000452: 97 85 00 00  	auipc	a1, 8
80000456: 93 85 65 bb  	addi	a1, a1, -1098
8000045a: 2a ec        	sd	a0, 24(sp)
8000045c: 2e 85        	add	a0, zero, a1
8000045e: e2 65        	ld	a1, 24(sp)
80000460: 97 40 00 00  	auipc	ra, 4
80000464: e7 80 60 40  	jalr	1030(ra)
80000468: 23 01 a1 04  	sb	a0, 66(sp)
8000046c: 09 a0        	j	2 <.LBB0_20+0x1c>
8000046e: bd a0        	j	110 <.LBB0_23+0x1e>
80000470: 01 45        	mv	a0, zero
80000472: a3 02 a1 04  	sb	a0, 69(sp)

0000000080000476 <.LBB0_21>:
80000476: 97 85 00 00  	auipc	a1, 8
8000047a: 93 85 35 b9  	addi	a1, a1, -1133
8000047e: 2a e8        	sd	a0, 16(sp)
80000480: 2e 85        	add	a0, zero, a1
80000482: c2 65        	ld	a1, 16(sp)
80000484: 97 40 00 00  	auipc	ra, 4
80000488: e7 80 20 3e  	jalr	994(ra)
8000048c: 23 01 a1 04  	sb	a0, 66(sp)
80000490: 09 a0        	j	2 <.LBB0_21+0x1c>
80000492: a9 a0        	j	74 <.LBB0_23+0x1e>
80000494: 01 45        	mv	a0, zero
80000496: 23 03 a1 04  	sb	a0, 70(sp)

000000008000049a <.LBB0_22>:
8000049a: 97 85 00 00  	auipc	a1, 8
8000049e: 93 85 75 b6  	addi	a1, a1, -1177
800004a2: 2a e4        	sd	a0, 8(sp)
800004a4: 2e 85        	add	a0, zero, a1
800004a6: a2 65        	ld	a1, 8(sp)
800004a8: 97 40 00 00  	auipc	ra, 4
800004ac: e7 80 e0 3b  	jalr	958(ra)
800004b0: 23 01 a1 04  	sb	a0, 66(sp)
800004b4: 09 a0        	j	2 <.LBB0_22+0x1c>
800004b6: 1d a0        	j	38 <.LBB0_23+0x1e>
800004b8: 01 45        	mv	a0, zero
800004ba: a3 03 a1 04  	sb	a0, 71(sp)

00000000800004be <.LBB0_23>:
800004be: 97 85 00 00  	auipc	a1, 8
800004c2: 93 85 45 b4  	addi	a1, a1, -1212
800004c6: 2a e0        	sd	a0, 0(sp)
800004c8: 2e 85        	add	a0, zero, a1
800004ca: 82 65        	ld	a1, 0(sp)
800004cc: 97 40 00 00  	auipc	ra, 4
800004d0: e7 80 a0 39  	jalr	922(ra)
800004d4: 23 01 a1 04  	sb	a0, 66(sp)
800004d8: 09 a0        	j	2 <.LBB0_23+0x1c>
800004da: 09 a0        	j	2 <.LBB0_23+0x1e>
800004dc: 03 45 21 04  	lbu	a0, 66(sp)
800004e0: a6 60        	ld	ra, 72(sp)
800004e2: 61 61        	addi	sp, sp, 80
800004e4: 82 80        	ret

00000000800004e6 <core::ptr::swap_nonoverlapping_bytes::h6723c6f0ec5d3c09>:
800004e6: 0d 71        	addi	sp, sp, -352
800004e8: 86 ee        	sd	ra, 344(sp)
800004ea: a2 ea        	sd	s0, 336(sp)
800004ec: 80 12        	addi	s0, sp, 352
800004ee: 13 71 01 fe  	andi	sp, sp, -32
800004f2: aa fd        	sd	a0, 248(sp)
800004f4: 2e e2        	sd	a1, 256(sp)
800004f6: 32 e6        	sd	a2, 264(sp)
800004f8: 32 e5        	sd	a2, 136(sp)
800004fa: 2e e1        	sd	a1, 128(sp)
800004fc: aa fc        	sd	a0, 120(sp)
800004fe: 97 10 00 00  	auipc	ra, 1
80000502: e7 80 80 63  	jalr	1592(ra)
80000506: aa 85        	add	a1, zero, a0
80000508: 2a ea        	sd	a0, 272(sp)
8000050a: ae f8        	sd	a1, 112(sp)
8000050c: 09 a0        	j	2 <core::ptr::swap_nonoverlapping_bytes::h6723c6f0ec5d3c09+0x28>
8000050e: 01 45        	mv	a0, zero
80000510: 2a ed        	sd	a0, 152(sp)
80000512: 09 a0        	j	2 <core::ptr::swap_nonoverlapping_bytes::h6723c6f0ec5d3c09+0x2e>
80000514: 6a 65        	ld	a0, 152(sp)
80000516: c6 75        	ld	a1, 112(sp)
80000518: 2e 95        	add	a0, a0, a1
8000051a: 2a 66        	ld	a2, 136(sp)
8000051c: 63 78 a6 00  	bgeu	a2, a0, 16 <core::ptr::swap_nonoverlapping_bytes::h6723c6f0ec5d3c09+0x46>
80000520: 09 a0        	j	2 <core::ptr::swap_nonoverlapping_bytes::h6723c6f0ec5d3c09+0x3c>
80000522: 6a 65        	ld	a0, 152(sp)
80000524: aa 65        	ld	a1, 136(sp)
80000526: 63 67 b5 08  	bltu	a0, a1, 142 <core::ptr::swap_nonoverlapping_bytes::h6723c6f0ec5d3c09+0xce>
8000052a: 61 a0        	j	136 <core::ptr::swap_nonoverlapping_bytes::h6723c6f0ec5d3c09+0xcc>
8000052c: 08 11        	addi	a0, sp, 160
8000052e: 97 30 00 00  	auipc	ra, 3
80000532: e7 80 00 ca  	jalr	-864(ra)
80000536: 09 a0        	j	2 <core::ptr::swap_nonoverlapping_bytes::h6723c6f0ec5d3c09+0x52>
80000538: 08 11        	addi	a0, sp, 160
8000053a: 97 30 00 00  	auipc	ra, 3
8000053e: e7 80 60 c3  	jalr	-970(ra)
80000542: aa f4        	sd	a0, 104(sp)
80000544: 09 a0        	j	2 <core::ptr::swap_nonoverlapping_bytes::h6723c6f0ec5d3c09+0x60>
80000546: 26 75        	ld	a0, 104(sp)
80000548: a6 75        	ld	a1, 104(sp)
8000054a: 2e ee        	sd	a1, 280(sp)
8000054c: ea 65        	ld	a1, 152(sp)
8000054e: 66 76        	ld	a2, 120(sp)
80000550: aa f0        	sd	a0, 96(sp)
80000552: 32 85        	add	a0, zero, a2
80000554: 97 00 00 00  	auipc	ra, 0
80000558: e7 80 40 5e  	jalr	1508(ra)
8000055c: aa 85        	add	a1, zero, a0
8000055e: 2a f2        	sd	a0, 288(sp)
80000560: ae ec        	sd	a1, 88(sp)
80000562: 09 a0        	j	2 <core::ptr::swap_nonoverlapping_bytes::h6723c6f0ec5d3c09+0x7e>
80000564: ea 65        	ld	a1, 152(sp)
80000566: 0a 65        	ld	a0, 128(sp)
80000568: 97 00 00 00  	auipc	ra, 0
8000056c: e7 80 00 5d  	jalr	1488(ra)
80000570: aa 85        	add	a1, zero, a0
80000572: 2a f6        	sd	a0, 296(sp)
80000574: ae e8        	sd	a1, 80(sp)
80000576: 09 a0        	j	2 <core::ptr::swap_nonoverlapping_bytes::h6723c6f0ec5d3c09+0x92>
80000578: 66 65        	ld	a0, 88(sp)
8000057a: 86 75        	ld	a1, 96(sp)
8000057c: 46 76        	ld	a2, 112(sp)
8000057e: 97 20 00 00  	auipc	ra, 2
80000582: e7 80 80 b0  	jalr	-1272(ra)
80000586: 09 a0        	j	2 <core::ptr::swap_nonoverlapping_bytes::h6723c6f0ec5d3c09+0xa2>
80000588: 46 65        	ld	a0, 80(sp)
8000058a: e6 65        	ld	a1, 88(sp)
8000058c: 46 76        	ld	a2, 112(sp)
8000058e: 97 20 00 00  	auipc	ra, 2
80000592: e7 80 80 af  	jalr	-1288(ra)
80000596: 09 a0        	j	2 <core::ptr::swap_nonoverlapping_bytes::h6723c6f0ec5d3c09+0xb2>
80000598: 06 75        	ld	a0, 96(sp)
8000059a: c6 65        	ld	a1, 80(sp)
8000059c: 46 76        	ld	a2, 112(sp)
8000059e: 97 20 00 00  	auipc	ra, 2
800005a2: e7 80 80 ae  	jalr	-1304(ra)
800005a6: 09 a0        	j	2 <core::ptr::swap_nonoverlapping_bytes::h6723c6f0ec5d3c09+0xc2>
800005a8: 6a 65        	ld	a0, 152(sp)
800005aa: c6 75        	ld	a1, 112(sp)
800005ac: 2e 95        	add	a0, a0, a1
800005ae: 2a ed        	sd	a0, 152(sp)
800005b0: 95 b7        	j	-156 <core::ptr::swap_nonoverlapping_bytes::h6723c6f0ec5d3c09+0x2e>
800005b2: 79 a0        	j	142 <core::ptr::swap_nonoverlapping_bytes::h6723c6f0ec5d3c09+0x15a>
800005b4: a8 09        	addi	a0, sp, 216
800005b6: 97 30 00 00  	auipc	ra, 3
800005ba: e7 80 20 c1  	jalr	-1006(ra)
800005be: 09 a0        	j	2 <core::ptr::swap_nonoverlapping_bytes::h6723c6f0ec5d3c09+0xda>
800005c0: 6a 65        	ld	a0, 152(sp)
800005c2: aa 65        	ld	a1, 136(sp)
800005c4: 33 85 a5 40  	sub	a0, a1, a0
800005c8: 2a fa        	sd	a0, 304(sp)
800005ca: b0 09        	addi	a2, sp, 216
800005cc: aa e4        	sd	a0, 72(sp)
800005ce: 32 85        	add	a0, zero, a2
800005d0: 97 30 00 00  	auipc	ra, 3
800005d4: e7 80 80 b9  	jalr	-1128(ra)
800005d8: aa e0        	sd	a0, 64(sp)
800005da: 09 a0        	j	2 <core::ptr::swap_nonoverlapping_bytes::h6723c6f0ec5d3c09+0xf6>
800005dc: 06 65        	ld	a0, 64(sp)
800005de: 86 65        	ld	a1, 64(sp)
800005e0: 2e fe        	sd	a1, 312(sp)
800005e2: ea 65        	ld	a1, 152(sp)
800005e4: 66 76        	ld	a2, 120(sp)
800005e6: 2a fc        	sd	a0, 56(sp)
800005e8: 32 85        	add	a0, zero, a2
800005ea: 97 00 00 00  	auipc	ra, 0
800005ee: e7 80 e0 54  	jalr	1358(ra)
800005f2: aa 85        	add	a1, zero, a0
800005f4: aa e2        	sd	a0, 320(sp)
800005f6: 2e f8        	sd	a1, 48(sp)
800005f8: 09 a0        	j	2 <core::ptr::swap_nonoverlapping_bytes::h6723c6f0ec5d3c09+0x114>
800005fa: ea 65        	ld	a1, 152(sp)
800005fc: 0a 65        	ld	a0, 128(sp)
800005fe: 97 00 00 00  	auipc	ra, 0
80000602: e7 80 a0 53  	jalr	1338(ra)
80000606: aa 85        	add	a1, zero, a0
80000608: aa e6        	sd	a0, 328(sp)
8000060a: 2e f4        	sd	a1, 40(sp)
8000060c: 09 a0        	j	2 <core::ptr::swap_nonoverlapping_bytes::h6723c6f0ec5d3c09+0x128>
8000060e: 42 75        	ld	a0, 48(sp)
80000610: e2 75        	ld	a1, 56(sp)
80000612: 26 66        	ld	a2, 72(sp)
80000614: 97 20 00 00  	auipc	ra, 2
80000618: e7 80 20 a7  	jalr	-1422(ra)
8000061c: 09 a0        	j	2 <core::ptr::swap_nonoverlapping_bytes::h6723c6f0ec5d3c09+0x138>
8000061e: 22 75        	ld	a0, 40(sp)
80000620: c2 75        	ld	a1, 48(sp)
80000622: 26 66        	ld	a2, 72(sp)
80000624: 97 20 00 00  	auipc	ra, 2
80000628: e7 80 20 a6  	jalr	-1438(ra)
8000062c: 09 a0        	j	2 <core::ptr::swap_nonoverlapping_bytes::h6723c6f0ec5d3c09+0x148>
8000062e: 62 75        	ld	a0, 56(sp)
80000630: a2 75        	ld	a1, 40(sp)
80000632: 26 66        	ld	a2, 72(sp)
80000634: 97 20 00 00  	auipc	ra, 2
80000638: e7 80 20 a5  	jalr	-1454(ra)
8000063c: 09 a0        	j	2 <core::ptr::swap_nonoverlapping_bytes::h6723c6f0ec5d3c09+0x158>
8000063e: 09 a0        	j	2 <core::ptr::swap_nonoverlapping_bytes::h6723c6f0ec5d3c09+0x15a>
80000640: 13 01 04 ea  	addi	sp, s0, -352
80000644: 56 64        	ld	s0, 336(sp)
80000646: f6 60        	ld	ra, 344(sp)
80000648: 35 61        	addi	sp, sp, 352
8000064a: 82 80        	ret

000000008000064c <asm_trap_vector>:
8000064c: 73 25 30 34  	csrr	a0, mtval
80000650: 73 00 50 10  	wfi	
80000654: 6f f0 9f ff  	j	-8 <asm_trap_vector>

0000000080000658 <core::str::<impl str>::as_bytes::haed40b9af2db2ab8>:
80000658: 79 71        	addi	sp, sp, -48
8000065a: 2a e8        	sd	a0, 16(sp)
8000065c: 2e ec        	sd	a1, 24(sp)
8000065e: 2a f0        	sd	a0, 32(sp)
80000660: 2e f4        	sd	a1, 40(sp)
80000662: 2a e4        	sd	a0, 8(sp)
80000664: 2e e0        	sd	a1, 0(sp)
80000666: 09 a0        	j	2 <core::str::<impl str>::as_bytes::haed40b9af2db2ab8+0x10>
80000668: 22 65        	ld	a0, 8(sp)
8000066a: 82 65        	ld	a1, 0(sp)
8000066c: 45 61        	addi	sp, sp, 48
8000066e: 82 80        	ret

0000000080000670 <core::fmt::Write::write_char::h7f2277037b2129e5>:
80000670: 5d 71        	addi	sp, sp, -80
80000672: 86 e4        	sd	ra, 72(sp)
80000674: 2e 86        	add	a2, zero, a1
80000676: 2a fc        	sd	a0, 56(sp)
80000678: ae c2        	sw	a1, 68(sp)
8000067a: 81 46        	mv	a3, zero
8000067c: 36 da        	sw	a3, 52(sp)
8000067e: 54 18        	addi	a3, sp, 52
80000680: 11 47        	addi	a4, zero, 4
80000682: 2a f4        	sd	a0, 40(sp)
80000684: 2e 85        	add	a0, zero, a1
80000686: b6 85        	add	a1, zero, a3
80000688: 32 f0        	sd	a2, 32(sp)
8000068a: 3a 86        	add	a2, zero, a4
8000068c: 97 30 00 00  	auipc	ra, 3
80000690: e7 80 c0 20  	jalr	524(ra)
80000694: 2a ec        	sd	a0, 24(sp)
80000696: 2e e8        	sd	a1, 16(sp)
80000698: 09 a0        	j	2 <core::fmt::Write::write_char::h7f2277037b2129e5+0x2a>
8000069a: 22 75        	ld	a0, 40(sp)
8000069c: e2 65        	ld	a1, 24(sp)
8000069e: 42 66        	ld	a2, 16(sp)
800006a0: 97 20 00 00  	auipc	ra, 2
800006a4: e7 80 60 96  	jalr	-1690(ra)
800006a8: 2a e4        	sd	a0, 8(sp)
800006aa: 09 a0        	j	2 <core::fmt::Write::write_char::h7f2277037b2129e5+0x3c>
800006ac: 22 65        	ld	a0, 8(sp)
800006ae: a6 60        	ld	ra, 72(sp)
800006b0: 61 61        	addi	sp, sp, 80
800006b2: 82 80        	ret

00000000800006b4 <core::fmt::Write::write_fmt::hdeccfebc4a86841e>:
800006b4: 5d 71        	addi	sp, sp, -80
800006b6: 86 e4        	sd	ra, 72(sp)
800006b8: 2a e8        	sd	a0, 16(sp)
800006ba: 88 61        	ld	a0, 0(a1)
800006bc: 2a ec        	sd	a0, 24(sp)
800006be: 88 65        	ld	a0, 8(a1)
800006c0: 2a f0        	sd	a0, 32(sp)
800006c2: 88 69        	ld	a0, 16(a1)
800006c4: 2a f4        	sd	a0, 40(sp)
800006c6: 88 6d        	ld	a0, 24(a1)
800006c8: 2a f8        	sd	a0, 48(sp)
800006ca: 88 71        	ld	a0, 32(a1)
800006cc: 2a fc        	sd	a0, 56(sp)
800006ce: 88 75        	ld	a0, 40(a1)
800006d0: aa e0        	sd	a0, 64(sp)

00000000800006d2 <.LBB1_2>:
800006d2: 97 65 00 00  	auipc	a1, 6
800006d6: 93 85 65 af  	addi	a1, a1, -1290
800006da: 08 08        	addi	a0, sp, 16
800006dc: 30 08        	addi	a2, sp, 24
800006de: 97 50 00 00  	auipc	ra, 5
800006e2: e7 80 e0 d6  	jalr	-658(ra)
800006e6: 2a e4        	sd	a0, 8(sp)
800006e8: 09 a0        	j	2 <.LBB1_2+0x18>
800006ea: 22 65        	ld	a0, 8(sp)
800006ec: a6 60        	ld	ra, 72(sp)
800006ee: 61 61        	addi	sp, sp, 80
800006f0: 82 80        	ret

00000000800006f2 <<&mut W as core::fmt::Write>::write_char::h0c54574cd820b837>:
800006f2: 79 71        	addi	sp, sp, -48
800006f4: 06 f4        	sd	ra, 40(sp)
800006f6: 2e 86        	add	a2, zero, a1
800006f8: 2a ec        	sd	a0, 24(sp)
800006fa: 2e d2        	sw	a1, 36(sp)
800006fc: 08 61        	ld	a0, 0(a0)
800006fe: 32 e8        	sd	a2, 16(sp)
80000700: 97 00 00 00  	auipc	ra, 0
80000704: e7 80 00 f7  	jalr	-144(ra)
80000708: 2a e4        	sd	a0, 8(sp)
8000070a: 09 a0        	j	2 <<&mut W as core::fmt::Write>::write_char::h0c54574cd820b837+0x1a>
8000070c: 22 65        	ld	a0, 8(sp)
8000070e: a2 70        	ld	ra, 40(sp)
80000710: 45 61        	addi	sp, sp, 48
80000712: 82 80        	ret

0000000080000714 <<&mut W as core::fmt::Write>::write_fmt::hc94b75d9dff8ead1>:
80000714: 5d 71        	addi	sp, sp, -80
80000716: 86 e4        	sd	ra, 72(sp)
80000718: aa e0        	sd	a0, 64(sp)
8000071a: 08 61        	ld	a0, 0(a0)
8000071c: 90 75        	ld	a2, 40(a1)
8000071e: 32 fc        	sd	a2, 56(sp)
80000720: 90 71        	ld	a2, 32(a1)
80000722: 32 f8        	sd	a2, 48(sp)
80000724: 90 6d        	ld	a2, 24(a1)
80000726: 32 f4        	sd	a2, 40(sp)
80000728: 90 69        	ld	a2, 16(a1)
8000072a: 32 f0        	sd	a2, 32(sp)
8000072c: 90 65        	ld	a2, 8(a1)
8000072e: 32 ec        	sd	a2, 24(sp)
80000730: 8c 61        	ld	a1, 0(a1)
80000732: 2e e8        	sd	a1, 16(sp)
80000734: 0c 08        	addi	a1, sp, 16
80000736: 97 00 00 00  	auipc	ra, 0
8000073a: e7 80 e0 f7  	jalr	-130(ra)
8000073e: 2a e4        	sd	a0, 8(sp)
80000740: 09 a0        	j	2 <<&mut W as core::fmt::Write>::write_fmt::hc94b75d9dff8ead1+0x2e>
80000742: 22 65        	ld	a0, 8(sp)
80000744: a6 60        	ld	ra, 72(sp)
80000746: 61 61        	addi	sp, sp, 80
80000748: 82 80        	ret

000000008000074a <<&mut W as core::fmt::Write>::write_str::hcd80a1ea60a3cca8>:
8000074a: 79 71        	addi	sp, sp, -48
8000074c: 06 f4        	sd	ra, 40(sp)
8000074e: 2a e8        	sd	a0, 16(sp)
80000750: 2e ec        	sd	a1, 24(sp)
80000752: 32 f0        	sd	a2, 32(sp)
80000754: 08 61        	ld	a0, 0(a0)
80000756: 97 20 00 00  	auipc	ra, 2
8000075a: e7 80 00 8b  	jalr	-1872(ra)
8000075e: 2a e4        	sd	a0, 8(sp)
80000760: 09 a0        	j	2 <<&mut W as core::fmt::Write>::write_str::hcd80a1ea60a3cca8+0x18>
80000762: 22 65        	ld	a0, 8(sp)
80000764: a2 70        	ld	ra, 40(sp)
80000766: 45 61        	addi	sp, sp, 48
80000768: 82 80        	ret

000000008000076a <core::cell::UnsafeCell<T>::get::h1edfc8a7bc3d0544>:
8000076a: 41 11        	addi	sp, sp, -16
8000076c: 2a e4        	sd	a0, 8(sp)
8000076e: 41 01        	addi	sp, sp, 16
80000770: 82 80        	ret

0000000080000772 <core::cell::UnsafeCell<T>::get::h687d9dedc8a3a76a>:
80000772: 41 11        	addi	sp, sp, -16
80000774: 2a e4        	sd	a0, 8(sp)
80000776: 41 01        	addi	sp, sp, 16
80000778: 82 80        	ret

000000008000077a <core::cell::UnsafeCell<T>::get::h795061cd07022e5b>:
8000077a: 41 11        	addi	sp, sp, -16
8000077c: 2a e4        	sd	a0, 8(sp)
8000077e: 41 01        	addi	sp, sp, 16
80000780: 82 80        	ret

0000000080000782 <core::cell::UnsafeCell<T>::get::hb68561fd899e8e69>:
80000782: 41 11        	addi	sp, sp, -16
80000784: 2a e4        	sd	a0, 8(sp)
80000786: 41 01        	addi	sp, sp, 16
80000788: 82 80        	ret

000000008000078a <core::cell::UnsafeCell<T>::new::h89c645a798985069>:
8000078a: 41 11        	addi	sp, sp, -16
8000078c: aa 85        	add	a1, zero, a0
8000078e: a3 07 a1 00  	sb	a0, 15(sp)
80000792: 23 07 a1 00  	sb	a0, 14(sp)
80000796: 41 01        	addi	sp, sp, 16
80000798: 82 80        	ret

000000008000079a <rust_begin_unwind>:
8000079a: 05 71        	addi	sp, sp, -480
8000079c: 86 ef        	sd	ra, 472(sp)
8000079e: 2a fb        	sd	a0, 432(sp)
800007a0: aa ec        	sd	a0, 88(sp)
800007a2: 97 30 00 00  	auipc	ra, 3
800007a6: e7 80 20 25  	jalr	594(ra)
800007aa: aa f0        	sd	a0, 96(sp)
800007ac: 09 a0        	j	2 <.LBB0_24>

00000000800007ae <.LBB0_24>:
800007ae: 97 65 00 00  	auipc	a1, 6
800007b2: 93 85 a5 a5  	addi	a1, a1, -1446

00000000800007b6 <.LBB0_25>:
800007b6: 97 66 00 00  	auipc	a3, 6
800007ba: 93 86 26 a6  	addi	a3, a3, -1438
800007be: a8 10        	addi	a0, sp, 104
800007c0: 05 46        	addi	a2, zero, 1
800007c2: 01 47        	mv	a4, zero
800007c4: 97 30 00 00  	auipc	ra, 3
800007c8: e7 80 e0 38  	jalr	910(ra)
800007cc: 09 a0        	j	2 <.LBB0_25+0x18>
800007ce: 88 10        	addi	a0, sp, 96
800007d0: ac 10        	addi	a1, sp, 104
800007d2: 97 00 00 00  	auipc	ra, 0
800007d6: e7 80 20 ee  	jalr	-286(ra)
800007da: 09 a0        	j	2 <.LBB0_25+0x26>
800007dc: 66 65        	ld	a0, 88(sp)
800007de: 97 50 00 00  	auipc	ra, 5
800007e2: e7 80 c0 b2  	jalr	-1236(ra)
800007e6: 2a ed        	sd	a0, 152(sp)
800007e8: 09 a0        	j	2 <.LBB0_25+0x34>
800007ea: 6a 65        	ld	a0, 152(sp)
800007ec: 81 45        	mv	a1, zero
800007ee: 63 19 b5 00  	bne	a0, a1, 18 <.LBB0_25+0x4a>
800007f2: 09 a0        	j	2 <.LBB0_25+0x3e>
800007f4: 97 30 00 00  	auipc	ra, 3
800007f8: e7 80 00 20  	jalr	512(ra)
800007fc: aa e2        	sd	a0, 320(sp)
800007fe: e5 a8        	j	248 <.LBB0_31>
80000800: 6a 65        	ld	a0, 152(sp)
80000802: 2a ff        	sd	a0, 440(sp)
80000804: aa e8        	sd	a0, 80(sp)
80000806: 97 30 00 00  	auipc	ra, 3
8000080a: e7 80 e0 1e  	jalr	494(ra)
8000080e: 2a f1        	sd	a0, 160(sp)
80000810: 09 a0        	j	2 <.LBB0_25+0x5c>
80000812: 46 65        	ld	a0, 80(sp)
80000814: 97 50 00 00  	auipc	ra, 5
80000818: e7 80 20 b0  	jalr	-1278(ra)
8000081c: 23 22 a1 12  	sw	a0, 292(sp)
80000820: 09 a0        	j	2 <.LBB0_25+0x6c>
80000822: 46 65        	ld	a0, 80(sp)
80000824: 97 50 00 00  	auipc	ra, 5
80000828: e7 80 a0 ae  	jalr	-1302(ra)
8000082c: 2a f6        	sd	a0, 296(sp)
8000082e: 2e fa        	sd	a1, 304(sp)
80000830: 09 a0        	j	2 <.LBB0_25+0x7c>
80000832: 66 65        	ld	a0, 88(sp)
80000834: 97 50 00 00  	auipc	ra, 5
80000838: e7 80 20 ad  	jalr	-1326(ra)
8000083c: aa e4        	sd	a0, 72(sp)
8000083e: 09 a0        	j	2 <.LBB0_26>

0000000080000840 <.LBB0_26>:
80000840: 97 65 00 00  	auipc	a1, 6
80000844: 93 85 05 a6  	addi	a1, a1, -1440
80000848: 26 65        	ld	a0, 72(sp)
8000084a: 97 20 00 00  	auipc	ra, 2
8000084e: e7 80 80 08  	jalr	136(ra)
80000852: 2a fe        	sd	a0, 312(sp)
80000854: 09 a0        	j	2 <.LBB0_26+0x16>
80000856: 48 12        	addi	a0, sp, 292
80000858: 2a e6        	sd	a0, 264(sp)
8000085a: 2c 12        	addi	a1, sp, 296
8000085c: 2e ea        	sd	a1, 272(sp)
8000085e: 30 1a        	addi	a2, sp, 312
80000860: 32 ee        	sd	a2, 280(sp)
80000862: aa e3        	sd	a0, 448(sp)
80000864: ae e7        	sd	a1, 456(sp)
80000866: b2 eb        	sd	a2, 464(sp)

0000000080000868 <.LBB0_27>:
80000868: 97 56 00 00  	auipc	a3, 5
8000086c: 93 86 86 56  	addi	a3, a3, 1384
80000870: ae e0        	sd	a1, 64(sp)
80000872: b6 85        	add	a1, zero, a3
80000874: 32 fc        	sd	a2, 56(sp)
80000876: 97 00 00 00  	auipc	ra, 0
8000087a: e7 80 a0 18  	jalr	394(ra)
8000087e: 2a f8        	sd	a0, 48(sp)
80000880: 2e f4        	sd	a1, 40(sp)
80000882: 09 a0        	j	2 <.LBB0_28>

0000000080000884 <.LBB0_28>:
80000884: 97 05 00 00  	auipc	a1, 0
80000888: 93 85 c5 10  	addi	a1, a1, 268
8000088c: 06 65        	ld	a0, 64(sp)
8000088e: 97 00 00 00  	auipc	ra, 0
80000892: e7 80 00 15  	jalr	336(ra)
80000896: 2a f0        	sd	a0, 32(sp)
80000898: 2e ec        	sd	a1, 24(sp)
8000089a: 09 a0        	j	2 <.LBB0_29>

000000008000089c <.LBB0_29>:
8000089c: 97 05 00 00  	auipc	a1, 0
800008a0: 93 85 65 0d  	addi	a1, a1, 214
800008a4: 62 75        	ld	a0, 56(sp)
800008a6: 97 00 00 00  	auipc	ra, 0
800008aa: e7 80 c0 17  	jalr	380(ra)
800008ae: 2a e8        	sd	a0, 16(sp)
800008b0: 2e e4        	sd	a1, 8(sp)
800008b2: 09 a0        	j	2 <.LBB0_29+0x18>
800008b4: 42 75        	ld	a0, 48(sp)
800008b6: aa ed        	sd	a0, 216(sp)
800008b8: a2 75        	ld	a1, 40(sp)
800008ba: ae f1        	sd	a1, 224(sp)
800008bc: 02 76        	ld	a2, 32(sp)
800008be: b2 f5        	sd	a2, 232(sp)
800008c0: e2 66        	ld	a3, 24(sp)
800008c2: b6 f9        	sd	a3, 240(sp)
800008c4: 42 67        	ld	a4, 16(sp)
800008c6: ba fd        	sd	a4, 248(sp)
800008c8: a2 67        	ld	a5, 8(sp)
800008ca: 3e e2        	sd	a5, 256(sp)

00000000800008cc <.LBB0_30>:
800008cc: 97 65 00 00  	auipc	a1, 6
800008d0: 93 85 45 98  	addi	a1, a1, -1660
800008d4: 28 11        	addi	a0, sp, 168
800008d6: 11 46        	addi	a2, zero, 4
800008d8: b4 09        	addi	a3, sp, 216
800008da: 0d 47        	addi	a4, zero, 3
800008dc: 97 30 00 00  	auipc	ra, 3
800008e0: e7 80 60 27  	jalr	630(ra)
800008e4: 09 a0        	j	2 <.LBB0_30+0x1a>
800008e6: 08 11        	addi	a0, sp, 160
800008e8: 2c 11        	addi	a1, sp, 168
800008ea: 97 00 00 00  	auipc	ra, 0
800008ee: e7 80 a0 dc  	jalr	-566(ra)
800008f2: 09 a0        	j	2 <.LBB0_30+0x28>
800008f4: 0d a8        	j	50 <.LBB0_32+0x28>

00000000800008f6 <.LBB0_31>:
800008f6: 97 65 00 00  	auipc	a1, 6
800008fa: 93 85 a5 93  	addi	a1, a1, -1734

00000000800008fe <.LBB0_32>:
800008fe: 97 66 00 00  	auipc	a3, 6
80000902: 93 86 a6 91  	addi	a3, a3, -1766
80000906: a8 02        	addi	a0, sp, 328
80000908: 05 46        	addi	a2, zero, 1
8000090a: 01 47        	mv	a4, zero
8000090c: 97 30 00 00  	auipc	ra, 3
80000910: e7 80 60 24  	jalr	582(ra)
80000914: 09 a0        	j	2 <.LBB0_32+0x18>
80000916: 88 02        	addi	a0, sp, 320
80000918: ac 02        	addi	a1, sp, 328
8000091a: 97 00 00 00  	auipc	ra, 0
8000091e: e7 80 a0 d9  	jalr	-614(ra)
80000922: 09 a0        	j	2 <.LBB0_32+0x26>
80000924: 09 a0        	j	2 <.LBB0_32+0x28>
80000926: 97 30 00 00  	auipc	ra, 3
8000092a: e7 80 e0 0c  	jalr	206(ra)
8000092e: aa fe        	sd	a0, 376(sp)
80000930: 09 a0        	j	2 <.LBB0_33>

0000000080000932 <.LBB0_33>:
80000932: 97 65 00 00  	auipc	a1, 6
80000936: 93 85 e5 98  	addi	a1, a1, -1650

000000008000093a <.LBB0_34>:
8000093a: 97 66 00 00  	auipc	a3, 6
8000093e: 93 86 e6 8d  	addi	a3, a3, -1826
80000942: 08 03        	addi	a0, sp, 384
80000944: 05 46        	addi	a2, zero, 1
80000946: 01 47        	mv	a4, zero
80000948: 97 30 00 00  	auipc	ra, 3
8000094c: e7 80 a0 20  	jalr	522(ra)
80000950: 09 a0        	j	2 <.LBB0_34+0x18>
80000952: a8 1a        	addi	a0, sp, 376
80000954: 0c 03        	addi	a1, sp, 384
80000956: 97 00 00 00  	auipc	ra, 0
8000095a: e7 80 e0 d5  	jalr	-674(ra)
8000095e: 09 a0        	j	2 <.LBB0_34+0x26>
80000960: 97 00 00 00  	auipc	ra, 0
80000964: e7 80 a0 00  	jalr	10(ra)
80000968: 00 00        	unimp	

000000008000096a <abort>:
8000096a: 09 a0        	j	2 <abort+0x2>
8000096c: 73 00 50 10  	wfi	
80000970: f5 bf        	j	-4 <abort+0x2>

0000000080000972 <<&T as core::fmt::Display>::fmt::h1cbc4798f6d34cba>:
80000972: 01 11        	addi	sp, sp, -32
80000974: 06 ec        	sd	ra, 24(sp)
80000976: 2a e4        	sd	a0, 8(sp)
80000978: 2e e8        	sd	a1, 16(sp)
8000097a: 08 61        	ld	a0, 0(a0)
8000097c: 97 50 00 00  	auipc	ra, 5
80000980: e7 80 e0 a9  	jalr	-1378(ra)
80000984: 2a e0        	sd	a0, 0(sp)
80000986: 09 a0        	j	2 <<&T as core::fmt::Display>::fmt::h1cbc4798f6d34cba+0x16>
80000988: 02 65        	ld	a0, 0(sp)
8000098a: e2 60        	ld	ra, 24(sp)
8000098c: 05 61        	addi	sp, sp, 32
8000098e: 82 80        	ret

0000000080000990 <<&T as core::fmt::Display>::fmt::h8f0ae62eb689b81d>:
80000990: 79 71        	addi	sp, sp, -48
80000992: 06 f4        	sd	ra, 40(sp)
80000994: 2a ec        	sd	a0, 24(sp)
80000996: 2e f0        	sd	a1, 32(sp)
80000998: 10 61        	ld	a2, 0(a0)
8000099a: 08 65        	ld	a0, 8(a0)
8000099c: 2a e8        	sd	a0, 16(sp)
8000099e: 32 85        	add	a0, zero, a2
800009a0: 42 66        	ld	a2, 16(sp)
800009a2: 2e e4        	sd	a1, 8(sp)
800009a4: b2 85        	add	a1, zero, a2
800009a6: 22 66        	ld	a2, 8(sp)
800009a8: 97 50 00 00  	auipc	ra, 5
800009ac: e7 80 c0 1d  	jalr	476(ra)
800009b0: 2a e0        	sd	a0, 0(sp)
800009b2: 09 a0        	j	2 <<&T as core::fmt::Display>::fmt::h8f0ae62eb689b81d+0x24>
800009b4: 02 65        	ld	a0, 0(sp)
800009b6: a2 70        	ld	ra, 40(sp)
800009b8: 45 61        	addi	sp, sp, 48
800009ba: 82 80        	ret

00000000800009bc <core::fmt::ArgumentV1::new::h660487df1dd5f4bc>:
800009bc: 5d 71        	addi	sp, sp, -80
800009be: 2a f8        	sd	a0, 48(sp)
800009c0: 2e fc        	sd	a1, 56(sp)
800009c2: ae e0        	sd	a1, 64(sp)
800009c4: 2a ec        	sd	a0, 24(sp)
800009c6: 2e e8        	sd	a1, 16(sp)
800009c8: 09 a0        	j	2 <core::fmt::ArgumentV1::new::h660487df1dd5f4bc+0xe>
800009ca: 62 65        	ld	a0, 24(sp)
800009cc: aa e4        	sd	a0, 72(sp)
800009ce: 2a e4        	sd	a0, 8(sp)
800009d0: 09 a0        	j	2 <core::fmt::ArgumentV1::new::h660487df1dd5f4bc+0x16>
800009d2: 22 65        	ld	a0, 8(sp)
800009d4: 2a f0        	sd	a0, 32(sp)
800009d6: c2 65        	ld	a1, 16(sp)
800009d8: 2e f4        	sd	a1, 40(sp)
800009da: 61 61        	addi	sp, sp, 80
800009dc: 82 80        	ret

00000000800009de <core::fmt::ArgumentV1::new::h8f11df0beb827160>:
800009de: 5d 71        	addi	sp, sp, -80
800009e0: 2a f8        	sd	a0, 48(sp)
800009e2: 2e fc        	sd	a1, 56(sp)
800009e4: ae e0        	sd	a1, 64(sp)
800009e6: 2a ec        	sd	a0, 24(sp)
800009e8: 2e e8        	sd	a1, 16(sp)
800009ea: 09 a0        	j	2 <core::fmt::ArgumentV1::new::h8f11df0beb827160+0xe>
800009ec: 62 65        	ld	a0, 24(sp)
800009ee: aa e4        	sd	a0, 72(sp)
800009f0: 2a e4        	sd	a0, 8(sp)
800009f2: 09 a0        	j	2 <core::fmt::ArgumentV1::new::h8f11df0beb827160+0x16>
800009f4: 22 65        	ld	a0, 8(sp)
800009f6: 2a f0        	sd	a0, 32(sp)
800009f8: c2 65        	ld	a1, 16(sp)
800009fa: 2e f4        	sd	a1, 40(sp)
800009fc: 61 61        	addi	sp, sp, 80
800009fe: 82 80        	ret

0000000080000a00 <core::fmt::ArgumentV1::new::h95c12be2076b4e56>:
80000a00: 5d 71        	addi	sp, sp, -80
80000a02: 2a f8        	sd	a0, 48(sp)
80000a04: 2e fc        	sd	a1, 56(sp)
80000a06: ae e0        	sd	a1, 64(sp)
80000a08: 2a ec        	sd	a0, 24(sp)
80000a0a: 2e e8        	sd	a1, 16(sp)
80000a0c: 09 a0        	j	2 <core::fmt::ArgumentV1::new::h95c12be2076b4e56+0xe>
80000a0e: 62 65        	ld	a0, 24(sp)
80000a10: aa e4        	sd	a0, 72(sp)
80000a12: 2a e4        	sd	a0, 8(sp)
80000a14: 09 a0        	j	2 <core::fmt::ArgumentV1::new::h95c12be2076b4e56+0x16>
80000a16: 22 65        	ld	a0, 8(sp)
80000a18: 2a f0        	sd	a0, 32(sp)
80000a1a: c2 65        	ld	a1, 16(sp)
80000a1c: 2e f4        	sd	a1, 40(sp)
80000a1e: 61 61        	addi	sp, sp, 80
80000a20: 82 80        	ret

0000000080000a22 <core::fmt::ArgumentV1::new::ha2a1311ba7293ff5>:
80000a22: 5d 71        	addi	sp, sp, -80
80000a24: 2a f8        	sd	a0, 48(sp)
80000a26: 2e fc        	sd	a1, 56(sp)
80000a28: ae e0        	sd	a1, 64(sp)
80000a2a: 2a ec        	sd	a0, 24(sp)
80000a2c: 2e e8        	sd	a1, 16(sp)
80000a2e: 09 a0        	j	2 <core::fmt::ArgumentV1::new::ha2a1311ba7293ff5+0xe>
80000a30: 62 65        	ld	a0, 24(sp)
80000a32: aa e4        	sd	a0, 72(sp)
80000a34: 2a e4        	sd	a0, 8(sp)
80000a36: 09 a0        	j	2 <core::fmt::ArgumentV1::new::ha2a1311ba7293ff5+0x16>
80000a38: 22 65        	ld	a0, 8(sp)
80000a3a: 2a f0        	sd	a0, 32(sp)
80000a3c: c2 65        	ld	a1, 16(sp)
80000a3e: 2e f4        	sd	a1, 40(sp)
80000a40: 61 61        	addi	sp, sp, 80
80000a42: 82 80        	ret

0000000080000a44 <core::fmt::ArgumentV1::new::hef676748ad38ea2f>:
80000a44: 5d 71        	addi	sp, sp, -80
80000a46: 2a f8        	sd	a0, 48(sp)
80000a48: 2e fc        	sd	a1, 56(sp)
80000a4a: ae e0        	sd	a1, 64(sp)
80000a4c: 2a ec        	sd	a0, 24(sp)
80000a4e: 2e e8        	sd	a1, 16(sp)
80000a50: 09 a0        	j	2 <core::fmt::ArgumentV1::new::hef676748ad38ea2f+0xe>
80000a52: 62 65        	ld	a0, 24(sp)
80000a54: aa e4        	sd	a0, 72(sp)
80000a56: 2a e4        	sd	a0, 8(sp)
80000a58: 09 a0        	j	2 <core::fmt::ArgumentV1::new::hef676748ad38ea2f+0x16>
80000a5a: 22 65        	ld	a0, 8(sp)
80000a5c: 2a f0        	sd	a0, 32(sp)
80000a5e: c2 65        	ld	a1, 16(sp)
80000a60: 2e f4        	sd	a1, 40(sp)
80000a62: 61 61        	addi	sp, sp, 80
80000a64: 82 80        	ret

0000000080000a66 <core::slice::index::<impl core::ops::index::IndexMut<I> for [T]>::index_mut::hb144080b57c44c24>:
80000a66: 39 71        	addi	sp, sp, -64
80000a68: 06 fc        	sd	ra, 56(sp)
80000a6a: 2a f0        	sd	a0, 32(sp)
80000a6c: 2e f4        	sd	a1, 40(sp)
80000a6e: 32 f8        	sd	a2, 48(sp)
80000a70: 2a ec        	sd	a0, 24(sp)
80000a72: 32 85        	add	a0, zero, a2
80000a74: 62 66        	ld	a2, 24(sp)
80000a76: 2e e8        	sd	a1, 16(sp)
80000a78: b2 85        	add	a1, zero, a2
80000a7a: 42 66        	ld	a2, 16(sp)
80000a7c: 97 00 00 00  	auipc	ra, 0
80000a80: e7 80 e0 2c  	jalr	718(ra)
80000a84: 2a e4        	sd	a0, 8(sp)
80000a86: 2e e0        	sd	a1, 0(sp)
80000a88: 09 a0        	j	2 <core::slice::index::<impl core::ops::index::IndexMut<I> for [T]>::index_mut::hb144080b57c44c24+0x24>
80000a8a: 22 65        	ld	a0, 8(sp)
80000a8c: 82 65        	ld	a1, 0(sp)
80000a8e: e2 70        	ld	ra, 56(sp)
80000a90: 21 61        	addi	sp, sp, 64
80000a92: 82 80        	ret

0000000080000a94 <core::slice::index::<impl core::ops::index::IndexMut<I> for [T]>::index_mut::hde4eb6e8188a1538>:
80000a94: 79 71        	addi	sp, sp, -48
80000a96: 06 f4        	sd	ra, 40(sp)
80000a98: 2a e8        	sd	a0, 16(sp)
80000a9a: 2e ec        	sd	a1, 24(sp)
80000a9c: 97 00 00 00  	auipc	ra, 0
80000aa0: e7 80 20 52  	jalr	1314(ra)
80000aa4: 2a e4        	sd	a0, 8(sp)
80000aa6: 2e e0        	sd	a1, 0(sp)
80000aa8: 09 a0        	j	2 <core::slice::index::<impl core::ops::index::IndexMut<I> for [T]>::index_mut::hde4eb6e8188a1538+0x16>
80000aaa: 22 65        	ld	a0, 8(sp)
80000aac: 82 65        	ld	a1, 0(sp)
80000aae: a2 70        	ld	ra, 40(sp)
80000ab0: 45 61        	addi	sp, sp, 48
80000ab2: 82 80        	ret

0000000080000ab4 <core::ptr::mut_ptr::<impl *mut T>::wrapping_add::hfaa38ab845c7a85a>:
80000ab4: 01 11        	addi	sp, sp, -32
80000ab6: 06 ec        	sd	ra, 24(sp)
80000ab8: 2a e4        	sd	a0, 8(sp)
80000aba: 2e e8        	sd	a1, 16(sp)
80000abc: 97 00 00 00  	auipc	ra, 0
80000ac0: e7 80 c0 04  	jalr	76(ra)
80000ac4: 2a e0        	sd	a0, 0(sp)
80000ac6: 09 a0        	j	2 <core::ptr::mut_ptr::<impl *mut T>::wrapping_add::hfaa38ab845c7a85a+0x14>
80000ac8: 02 65        	ld	a0, 0(sp)
80000aca: e2 60        	ld	ra, 24(sp)
80000acc: 05 61        	addi	sp, sp, 32
80000ace: 82 80        	ret

0000000080000ad0 <core::ptr::mut_ptr::<impl *mut T>::guaranteed_eq::h71459db081357289>:
80000ad0: 01 11        	addi	sp, sp, -32
80000ad2: 2a e4        	sd	a0, 8(sp)
80000ad4: 2e e8        	sd	a1, 16(sp)
80000ad6: 2d 8d        	xor	a0, a0, a1
80000ad8: 13 35 15 00  	seqz	a0, a0
80000adc: a3 0f a1 00  	sb	a0, 31(sp)
80000ae0: 2a e0        	sd	a0, 0(sp)
80000ae2: 09 a0        	j	2 <core::ptr::mut_ptr::<impl *mut T>::guaranteed_eq::h71459db081357289+0x14>
80000ae4: 02 65        	ld	a0, 0(sp)
80000ae6: 05 61        	addi	sp, sp, 32
80000ae8: 82 80        	ret

0000000080000aea <core::ptr::mut_ptr::<impl *mut T>::write_volatile::h5abecb6247a1f8be>:
80000aea: 01 11        	addi	sp, sp, -32
80000aec: 06 ec        	sd	ra, 24(sp)
80000aee: 2e 86        	add	a2, zero, a1
80000af0: 2a e4        	sd	a0, 8(sp)
80000af2: a3 0b b1 00  	sb	a1, 23(sp)
80000af6: 32 e0        	sd	a2, 0(sp)
80000af8: 97 10 00 00  	auipc	ra, 1
80000afc: e7 80 20 28  	jalr	642(ra)
80000b00: 09 a0        	j	2 <core::ptr::mut_ptr::<impl *mut T>::write_volatile::h5abecb6247a1f8be+0x18>
80000b02: e2 60        	ld	ra, 24(sp)
80000b04: 05 61        	addi	sp, sp, 32
80000b06: 82 80        	ret

0000000080000b08 <core::ptr::mut_ptr::<impl *mut T>::wrapping_offset::hd5f181b938da7950>:
80000b08: 01 11        	addi	sp, sp, -32
80000b0a: 2a e4        	sd	a0, 8(sp)
80000b0c: 2e e8        	sd	a1, 16(sp)
80000b0e: 2e 95        	add	a0, a0, a1
80000b10: 2a ec        	sd	a0, 24(sp)
80000b12: 2a e0        	sd	a0, 0(sp)
80000b14: 09 a0        	j	2 <core::ptr::mut_ptr::<impl *mut T>::wrapping_offset::hd5f181b938da7950+0xe>
80000b16: 02 65        	ld	a0, 0(sp)
80000b18: 05 61        	addi	sp, sp, 32
80000b1a: 82 80        	ret

0000000080000b1c <core::ptr::mut_ptr::<impl *mut T>::add::hd29f57681088eee8>:
80000b1c: 01 11        	addi	sp, sp, -32
80000b1e: 06 ec        	sd	ra, 24(sp)
80000b20: 2a e4        	sd	a0, 8(sp)
80000b22: 2e e8        	sd	a1, 16(sp)
80000b24: 97 00 00 00  	auipc	ra, 0
80000b28: e7 80 c0 05  	jalr	92(ra)
80000b2c: 2a e0        	sd	a0, 0(sp)
80000b2e: 09 a0        	j	2 <core::ptr::mut_ptr::<impl *mut T>::add::hd29f57681088eee8+0x14>
80000b30: 02 65        	ld	a0, 0(sp)
80000b32: e2 60        	ld	ra, 24(sp)
80000b34: 05 61        	addi	sp, sp, 32
80000b36: 82 80        	ret

0000000080000b38 <core::ptr::mut_ptr::<impl *mut T>::add::hd5f289fb834d33cb>:
80000b38: 01 11        	addi	sp, sp, -32
80000b3a: 06 ec        	sd	ra, 24(sp)
80000b3c: 2a e4        	sd	a0, 8(sp)
80000b3e: 2e e8        	sd	a1, 16(sp)
80000b40: 97 00 00 00  	auipc	ra, 0
80000b44: e7 80 c0 02  	jalr	44(ra)
80000b48: 2a e0        	sd	a0, 0(sp)
80000b4a: 09 a0        	j	2 <core::ptr::mut_ptr::<impl *mut T>::add::hd5f289fb834d33cb+0x14>
80000b4c: 02 65        	ld	a0, 0(sp)
80000b4e: e2 60        	ld	ra, 24(sp)
80000b50: 05 61        	addi	sp, sp, 32
80000b52: 82 80        	ret

0000000080000b54 <core::ptr::mut_ptr::<impl *mut T>::write::ha41c474b79aa5fa3>:
80000b54: 01 11        	addi	sp, sp, -32
80000b56: 06 ec        	sd	ra, 24(sp)
80000b58: 2a e4        	sd	a0, 8(sp)
80000b5a: 2e e8        	sd	a1, 16(sp)
80000b5c: 97 10 00 00  	auipc	ra, 1
80000b60: e7 80 80 43  	jalr	1080(ra)
80000b64: 09 a0        	j	2 <core::ptr::mut_ptr::<impl *mut T>::write::ha41c474b79aa5fa3+0x12>
80000b66: e2 60        	ld	ra, 24(sp)
80000b68: 05 61        	addi	sp, sp, 32
80000b6a: 82 80        	ret

0000000080000b6c <core::ptr::mut_ptr::<impl *mut T>::offset::h94cfd4f667ae54fa>:
80000b6c: 01 11        	addi	sp, sp, -32
80000b6e: 2a e4        	sd	a0, 8(sp)
80000b70: 2e e8        	sd	a1, 16(sp)
80000b72: 2e 95        	add	a0, a0, a1
80000b74: 2a ec        	sd	a0, 24(sp)
80000b76: 2a e0        	sd	a0, 0(sp)
80000b78: 09 a0        	j	2 <core::ptr::mut_ptr::<impl *mut T>::offset::h94cfd4f667ae54fa+0xe>
80000b7a: 02 65        	ld	a0, 0(sp)
80000b7c: 05 61        	addi	sp, sp, 32
80000b7e: 82 80        	ret

0000000080000b80 <core::ptr::mut_ptr::<impl *mut T>::offset::hba61c729b113f29e>:
80000b80: 01 11        	addi	sp, sp, -32
80000b82: 2a e4        	sd	a0, 8(sp)
80000b84: 2e e8        	sd	a1, 16(sp)
80000b86: 8e 05        	slli	a1, a1, 3
80000b88: 2e 95        	add	a0, a0, a1
80000b8a: 2a ec        	sd	a0, 24(sp)
80000b8c: 2a e0        	sd	a0, 0(sp)
80000b8e: 09 a0        	j	2 <core::ptr::mut_ptr::<impl *mut T>::offset::hba61c729b113f29e+0x10>
80000b90: 02 65        	ld	a0, 0(sp)
80000b92: 05 61        	addi	sp, sp, 32
80000b94: 82 80        	ret

0000000080000b96 <core::ptr::mut_ptr::<impl *mut T>::is_null::h1bf7e2ab568872d3>:
80000b96: 79 71        	addi	sp, sp, -48
80000b98: 06 f4        	sd	ra, 40(sp)
80000b9a: 2a f0        	sd	a0, 32(sp)
80000b9c: 2a ec        	sd	a0, 24(sp)
80000b9e: 97 10 00 00  	auipc	ra, 1
80000ba2: e7 80 e0 41  	jalr	1054(ra)
80000ba6: 2a e8        	sd	a0, 16(sp)
80000ba8: 09 a0        	j	2 <core::ptr::mut_ptr::<impl *mut T>::is_null::h1bf7e2ab568872d3+0x14>
80000baa: 62 65        	ld	a0, 24(sp)
80000bac: c2 65        	ld	a1, 16(sp)
80000bae: 97 00 00 00  	auipc	ra, 0
80000bb2: e7 80 20 f2  	jalr	-222(ra)
80000bb6: 2a e4        	sd	a0, 8(sp)
80000bb8: 09 a0        	j	2 <core::ptr::mut_ptr::<impl *mut T>::is_null::h1bf7e2ab568872d3+0x24>
80000bba: 22 65        	ld	a0, 8(sp)
80000bbc: a2 70        	ld	ra, 40(sp)
80000bbe: 45 61        	addi	sp, sp, 48
80000bc0: 82 80        	ret

0000000080000bc2 <core::ptr::mut_ptr::<impl *mut [T]>::as_mut_ptr::ha11f6c981d9e58ef>:
80000bc2: 41 11        	addi	sp, sp, -16
80000bc4: 2a e0        	sd	a0, 0(sp)
80000bc6: 2e e4        	sd	a1, 8(sp)
80000bc8: 41 01        	addi	sp, sp, 16
80000bca: 82 80        	ret

0000000080000bcc <core::ptr::const_ptr::<impl *const T>::wrapping_add::hd0a3f40e6699496a>:
80000bcc: 01 11        	addi	sp, sp, -32
80000bce: 06 ec        	sd	ra, 24(sp)
80000bd0: 2a e4        	sd	a0, 8(sp)
80000bd2: 2e e8        	sd	a1, 16(sp)
80000bd4: 97 00 00 00  	auipc	ra, 0
80000bd8: e7 80 e0 02  	jalr	46(ra)
80000bdc: 2a e0        	sd	a0, 0(sp)
80000bde: 09 a0        	j	2 <core::ptr::const_ptr::<impl *const T>::wrapping_add::hd0a3f40e6699496a+0x14>
80000be0: 02 65        	ld	a0, 0(sp)
80000be2: e2 60        	ld	ra, 24(sp)
80000be4: 05 61        	addi	sp, sp, 32
80000be6: 82 80        	ret

0000000080000be8 <core::ptr::const_ptr::<impl *const T>::guaranteed_eq::h4bbad69b049d11a5>:
80000be8: 01 11        	addi	sp, sp, -32
80000bea: 2a e4        	sd	a0, 8(sp)
80000bec: 2e e8        	sd	a1, 16(sp)
80000bee: 2d 8d        	xor	a0, a0, a1
80000bf0: 13 35 15 00  	seqz	a0, a0
80000bf4: a3 0f a1 00  	sb	a0, 31(sp)
80000bf8: 2a e0        	sd	a0, 0(sp)
80000bfa: 09 a0        	j	2 <core::ptr::const_ptr::<impl *const T>::guaranteed_eq::h4bbad69b049d11a5+0x14>
80000bfc: 02 65        	ld	a0, 0(sp)
80000bfe: 05 61        	addi	sp, sp, 32
80000c00: 82 80        	ret

0000000080000c02 <core::ptr::const_ptr::<impl *const T>::wrapping_offset::h7ead50eb173a7372>:
80000c02: 01 11        	addi	sp, sp, -32
80000c04: 2a e4        	sd	a0, 8(sp)
80000c06: 2e e8        	sd	a1, 16(sp)
80000c08: 2e 95        	add	a0, a0, a1
80000c0a: 2a ec        	sd	a0, 24(sp)
80000c0c: 2a e0        	sd	a0, 0(sp)
80000c0e: 09 a0        	j	2 <core::ptr::const_ptr::<impl *const T>::wrapping_offset::h7ead50eb173a7372+0xe>
80000c10: 02 65        	ld	a0, 0(sp)
80000c12: 05 61        	addi	sp, sp, 32
80000c14: 82 80        	ret

0000000080000c16 <core::ptr::const_ptr::<impl *const T>::add::hefb2ca1bfb549948>:
80000c16: 01 11        	addi	sp, sp, -32
80000c18: 06 ec        	sd	ra, 24(sp)
80000c1a: 2a e4        	sd	a0, 8(sp)
80000c1c: 2e e8        	sd	a1, 16(sp)
80000c1e: 97 00 00 00  	auipc	ra, 0
80000c22: e7 80 40 01  	jalr	20(ra)
80000c26: 2a e0        	sd	a0, 0(sp)
80000c28: 09 a0        	j	2 <core::ptr::const_ptr::<impl *const T>::add::hefb2ca1bfb549948+0x14>
80000c2a: 02 65        	ld	a0, 0(sp)
80000c2c: e2 60        	ld	ra, 24(sp)
80000c2e: 05 61        	addi	sp, sp, 32
80000c30: 82 80        	ret

0000000080000c32 <core::ptr::const_ptr::<impl *const T>::offset::h93ad8ee1f1f999c4>:
80000c32: 01 11        	addi	sp, sp, -32
80000c34: 2a e4        	sd	a0, 8(sp)
80000c36: 2e e8        	sd	a1, 16(sp)
80000c38: 2e 95        	add	a0, a0, a1
80000c3a: 2a ec        	sd	a0, 24(sp)
80000c3c: 2a e0        	sd	a0, 0(sp)
80000c3e: 09 a0        	j	2 <core::ptr::const_ptr::<impl *const T>::offset::h93ad8ee1f1f999c4+0xe>
80000c40: 02 65        	ld	a0, 0(sp)
80000c42: 05 61        	addi	sp, sp, 32
80000c44: 82 80        	ret

0000000080000c46 <core::ptr::const_ptr::<impl *const T>::is_null::h8db621950fc43ee7>:
80000c46: 79 71        	addi	sp, sp, -48
80000c48: 06 f4        	sd	ra, 40(sp)
80000c4a: 2a f0        	sd	a0, 32(sp)
80000c4c: 2a ec        	sd	a0, 24(sp)
80000c4e: 97 10 00 00  	auipc	ra, 1
80000c52: e7 80 20 2b  	jalr	690(ra)
80000c56: 2a e8        	sd	a0, 16(sp)
80000c58: 09 a0        	j	2 <core::ptr::const_ptr::<impl *const T>::is_null::h8db621950fc43ee7+0x14>
80000c5a: 62 65        	ld	a0, 24(sp)
80000c5c: c2 65        	ld	a1, 16(sp)
80000c5e: 97 00 00 00  	auipc	ra, 0
80000c62: e7 80 a0 f8  	jalr	-118(ra)
80000c66: 2a e4        	sd	a0, 8(sp)
80000c68: 09 a0        	j	2 <core::ptr::const_ptr::<impl *const T>::is_null::h8db621950fc43ee7+0x24>
80000c6a: 22 65        	ld	a0, 8(sp)
80000c6c: a2 70        	ld	ra, 40(sp)
80000c6e: 45 61        	addi	sp, sp, 48
80000c70: 82 80        	ret

0000000080000c72 <<core::ops::range::Range<usize> as core::slice::index::SliceIndex<[T]>>::get_unchecked_mut::h5563ecb68bdf072e>:
80000c72: 1d 71        	addi	sp, sp, -96
80000c74: 86 ec        	sd	ra, 88(sp)
80000c76: 2a fc        	sd	a0, 56(sp)
80000c78: ae e0        	sd	a1, 64(sp)
80000c7a: b2 e4        	sd	a2, 72(sp)
80000c7c: b6 e8        	sd	a3, 80(sp)
80000c7e: 2a f8        	sd	a0, 48(sp)
80000c80: 32 85        	add	a0, zero, a2
80000c82: 2e f4        	sd	a1, 40(sp)
80000c84: b6 85        	add	a1, zero, a3
80000c86: 97 00 00 00  	auipc	ra, 0
80000c8a: e7 80 c0 f3  	jalr	-196(ra)
80000c8e: 2a f0        	sd	a0, 32(sp)
80000c90: 09 a0        	j	2 <<core::ops::range::Range<usize> as core::slice::index::SliceIndex<[T]>>::get_unchecked_mut::h5563ecb68bdf072e+0x20>
80000c92: 02 75        	ld	a0, 32(sp)
80000c94: c2 75        	ld	a1, 48(sp)
80000c96: 97 00 00 00  	auipc	ra, 0
80000c9a: e7 80 20 ea  	jalr	-350(ra)
80000c9e: 2a ec        	sd	a0, 24(sp)
80000ca0: 09 a0        	j	2 <<core::ops::range::Range<usize> as core::slice::index::SliceIndex<[T]>>::get_unchecked_mut::h5563ecb68bdf072e+0x30>
80000ca2: 22 75        	ld	a0, 40(sp)
80000ca4: c2 75        	ld	a1, 48(sp)
80000ca6: b3 05 b5 40  	sub	a1, a0, a1
80000caa: 62 65        	ld	a0, 24(sp)
80000cac: 97 10 00 00  	auipc	ra, 1
80000cb0: e7 80 20 24  	jalr	578(ra)
80000cb4: 2a e8        	sd	a0, 16(sp)
80000cb6: 2e e4        	sd	a1, 8(sp)
80000cb8: 09 a0        	j	2 <<core::ops::range::Range<usize> as core::slice::index::SliceIndex<[T]>>::get_unchecked_mut::h5563ecb68bdf072e+0x48>
80000cba: 42 65        	ld	a0, 16(sp)
80000cbc: a2 65        	ld	a1, 8(sp)
80000cbe: e6 60        	ld	ra, 88(sp)
80000cc0: 25 61        	addi	sp, sp, 96
80000cc2: 82 80        	ret

0000000080000cc4 <<core::ops::range::Range<usize> as core::slice::index::SliceIndex<[T]>>::index_mut::h50c2767c4b62dddf>:
80000cc4: 59 71        	addi	sp, sp, -112
80000cc6: 86 f4        	sd	ra, 104(sp)
80000cc8: aa e4        	sd	a0, 72(sp)
80000cca: ae e8        	sd	a1, 80(sp)
80000ccc: b2 ec        	sd	a2, 88(sp)
80000cce: b6 f0        	sd	a3, 96(sp)
80000cd0: ba e0        	sd	a4, 64(sp)
80000cd2: 36 fc        	sd	a3, 56(sp)
80000cd4: 32 f8        	sd	a2, 48(sp)
80000cd6: 2e f4        	sd	a1, 40(sp)
80000cd8: 2a f0        	sd	a0, 32(sp)
80000cda: 63 eb a5 00  	bltu	a1, a0, 22 <<core::ops::range::Range<usize> as core::slice::index::SliceIndex<[T]>>::index_mut::h50c2767c4b62dddf+0x2c>
80000cde: 09 a0        	j	2 <<core::ops::range::Range<usize> as core::slice::index::SliceIndex<[T]>>::index_mut::h50c2767c4b62dddf+0x1c>
80000ce0: 42 75        	ld	a0, 48(sp)
80000ce2: e2 75        	ld	a1, 56(sp)
80000ce4: 97 20 00 00  	auipc	ra, 2
80000ce8: e7 80 e0 7e  	jalr	2030(ra)
80000cec: 2a ec        	sd	a0, 24(sp)
80000cee: 09 a8        	j	18 <<core::ops::range::Range<usize> as core::slice::index::SliceIndex<[T]>>::index_mut::h50c2767c4b62dddf+0x3c>
80000cf0: 02 75        	ld	a0, 32(sp)
80000cf2: a2 75        	ld	a1, 40(sp)
80000cf4: 06 66        	ld	a2, 64(sp)
80000cf6: 97 50 00 00  	auipc	ra, 5
80000cfa: e7 80 e0 f1  	jalr	-226(ra)
80000cfe: 00 00        	unimp	
80000d00: 62 65        	ld	a0, 24(sp)
80000d02: a2 75        	ld	a1, 40(sp)
80000d04: 63 6e b5 00  	bltu	a0, a1, 28 <<core::ops::range::Range<usize> as core::slice::index::SliceIndex<[T]>>::index_mut::h50c2767c4b62dddf+0x5c>
80000d08: 09 a0        	j	2 <<core::ops::range::Range<usize> as core::slice::index::SliceIndex<[T]>>::index_mut::h50c2767c4b62dddf+0x46>
80000d0a: 02 75        	ld	a0, 32(sp)
80000d0c: a2 75        	ld	a1, 40(sp)
80000d0e: 42 76        	ld	a2, 48(sp)
80000d10: e2 76        	ld	a3, 56(sp)
80000d12: 97 00 00 00  	auipc	ra, 0
80000d16: e7 80 00 f6  	jalr	-160(ra)
80000d1a: 2a e8        	sd	a0, 16(sp)
80000d1c: 2e e4        	sd	a1, 8(sp)
80000d1e: 0d a0        	j	34 <<core::ops::range::Range<usize> as core::slice::index::SliceIndex<[T]>>::index_mut::h50c2767c4b62dddf+0x7c>
80000d20: 42 75        	ld	a0, 48(sp)
80000d22: e2 75        	ld	a1, 56(sp)
80000d24: 97 20 00 00  	auipc	ra, 2
80000d28: e7 80 e0 7a  	jalr	1966(ra)
80000d2c: 2a e0        	sd	a0, 0(sp)
80000d2e: 09 a0        	j	2 <<core::ops::range::Range<usize> as core::slice::index::SliceIndex<[T]>>::index_mut::h50c2767c4b62dddf+0x6c>
80000d30: 22 75        	ld	a0, 40(sp)
80000d32: 82 65        	ld	a1, 0(sp)
80000d34: 06 66        	ld	a2, 64(sp)
80000d36: 97 50 00 00  	auipc	ra, 5
80000d3a: e7 80 e0 e9  	jalr	-354(ra)
80000d3e: 00 00        	unimp	
80000d40: 42 65        	ld	a0, 16(sp)
80000d42: a2 65        	ld	a1, 8(sp)
80000d44: a6 70        	ld	ra, 104(sp)
80000d46: 65 61        	addi	sp, sp, 112
80000d48: 82 80        	ret

0000000080000d4a <<core::ops::range::RangeTo<usize> as core::slice::index::SliceIndex<[T]>>::index_mut::h1e40c92f619bf71c>:
80000d4a: 1d 71        	addi	sp, sp, -96
80000d4c: 86 ec        	sd	ra, 88(sp)
80000d4e: aa e0        	sd	a0, 64(sp)
80000d50: ae e4        	sd	a1, 72(sp)
80000d52: b2 e8        	sd	a2, 80(sp)
80000d54: 01 47        	mv	a4, zero
80000d56: 3a f8        	sd	a4, 48(sp)
80000d58: 2a fc        	sd	a0, 56(sp)
80000d5a: 2a f4        	sd	a0, 40(sp)
80000d5c: 3a 85        	add	a0, zero, a4
80000d5e: 22 77        	ld	a4, 40(sp)
80000d60: 2e f0        	sd	a1, 32(sp)
80000d62: ba 85        	add	a1, zero, a4
80000d64: 82 77        	ld	a5, 32(sp)
80000d66: 32 ec        	sd	a2, 24(sp)
80000d68: 3e 86        	add	a2, zero, a5
80000d6a: 62 68        	ld	a6, 24(sp)
80000d6c: 36 e8        	sd	a3, 16(sp)
80000d6e: c2 86        	add	a3, zero, a6
80000d70: 42 67        	ld	a4, 16(sp)
80000d72: 97 00 00 00  	auipc	ra, 0
80000d76: e7 80 20 f5  	jalr	-174(ra)
80000d7a: 2a e4        	sd	a0, 8(sp)
80000d7c: 2e e0        	sd	a1, 0(sp)
80000d7e: 09 a0        	j	2 <<core::ops::range::RangeTo<usize> as core::slice::index::SliceIndex<[T]>>::index_mut::h1e40c92f619bf71c+0x36>
80000d80: 22 65        	ld	a0, 8(sp)
80000d82: 82 65        	ld	a1, 0(sp)
80000d84: e6 60        	ld	ra, 88(sp)
80000d86: 25 61        	addi	sp, sp, 96
80000d88: 82 80        	ret

0000000080000d8a <core::ops::range::RangeInclusive<Idx>::new::hc2c5a94656cba9df>:
80000d8a: 41 11        	addi	sp, sp, -16
80000d8c: 2e e0        	sd	a1, 0(sp)
80000d8e: 32 e4        	sd	a2, 8(sp)
80000d90: 0c e1        	sd	a1, 0(a0)
80000d92: 10 e5        	sd	a2, 8(a0)
80000d94: 81 45        	mv	a1, zero
80000d96: 23 08 b5 00  	sb	a1, 16(a0)
80000d9a: 41 01        	addi	sp, sp, 16
80000d9c: 82 80        	ret

0000000080000d9e <core::ops::range::RangeInclusive<Idx>::is_empty::h5b18b860f63ac33d>:
80000d9e: 79 71        	addi	sp, sp, -48
80000da0: 06 f4        	sd	ra, 40(sp)
80000da2: 2a f0        	sd	a0, 32(sp)
80000da4: 83 45 05 01  	lbu	a1, 16(a0)
80000da8: 85 89        	andi	a1, a1, 1
80000daa: 01 46        	mv	a2, zero
80000dac: 2a e8        	sd	a0, 16(sp)
80000dae: 63 8b c5 00  	beq	a1, a2, 22 <core::ops::range::RangeInclusive<Idx>::is_empty::h5b18b860f63ac33d+0x26>
80000db2: 09 a0        	j	2 <core::ops::range::RangeInclusive<Idx>::is_empty::h5b18b860f63ac33d+0x16>
80000db4: 05 45        	addi	a0, zero, 1
80000db6: a3 0f a1 00  	sb	a0, 31(sp)
80000dba: 31 a8        	j	28 <core::ops::range::RangeInclusive<Idx>::is_empty::h5b18b860f63ac33d+0x38>
80000dbc: 01 45        	mv	a0, zero
80000dbe: a3 0f a1 00  	sb	a0, 31(sp)
80000dc2: 11 a8        	j	20 <core::ops::range::RangeInclusive<Idx>::is_empty::h5b18b860f63ac33d+0x38>
80000dc4: 42 65        	ld	a0, 16(sp)
80000dc6: 93 05 85 00  	addi	a1, a0, 8
80000dca: 97 20 00 00  	auipc	ra, 2
80000dce: e7 80 60 37  	jalr	886(ra)
80000dd2: 2a e4        	sd	a0, 8(sp)
80000dd4: 31 a0        	j	12 <core::ops::range::RangeInclusive<Idx>::is_empty::h5b18b860f63ac33d+0x42>
80000dd6: 03 45 f1 01  	lbu	a0, 31(sp)
80000dda: a2 70        	ld	ra, 40(sp)
80000ddc: 45 61        	addi	sp, sp, 48
80000dde: 82 80        	ret
80000de0: 01 45        	mv	a0, zero
80000de2: a2 65        	ld	a1, 8(sp)
80000de4: e3 88 a5 fc  	beq	a1, a0, -48 <core::ops::range::RangeInclusive<Idx>::is_empty::h5b18b860f63ac33d+0x16>
80000de8: d1 bf        	j	-44 <core::ops::range::RangeInclusive<Idx>::is_empty::h5b18b860f63ac33d+0x1e>

0000000080000dea <core::iter::range::<impl core::iter::traits::iterator::Iterator for core::ops::range::Range<A>>::next::hf3a787c3dd9ce1cc>:
80000dea: 5d 71        	addi	sp, sp, -80
80000dec: 86 e4        	sd	ra, 72(sp)
80000dee: 2a fc        	sd	a0, 56(sp)
80000df0: 93 05 85 00  	addi	a1, a0, 8
80000df4: 2a f0        	sd	a0, 32(sp)
80000df6: 97 20 00 00  	auipc	ra, 2
80000dfa: e7 80 00 36  	jalr	864(ra)
80000dfe: 2a ec        	sd	a0, 24(sp)
80000e00: 09 a0        	j	2 <core::iter::range::<impl core::iter::traits::iterator::Iterator for core::ops::range::Range<A>>::next::hf3a787c3dd9ce1cc+0x18>
80000e02: 62 65        	ld	a0, 24(sp)
80000e04: 09 e5        	bnez	a0, 10 <core::iter::range::<impl core::iter::traits::iterator::Iterator for core::ops::range::Range<A>>::next::hf3a787c3dd9ce1cc+0x24>
80000e06: 09 a0        	j	2 <core::iter::range::<impl core::iter::traits::iterator::Iterator for core::ops::range::Range<A>>::next::hf3a787c3dd9ce1cc+0x1e>
80000e08: 01 45        	mv	a0, zero
80000e0a: 2a f4        	sd	a0, 40(sp)
80000e0c: 3d a8        	j	62 <core::iter::range::<impl core::iter::traits::iterator::Iterator for core::ops::range::Range<A>>::next::hf3a787c3dd9ce1cc+0x60>
80000e0e: 02 75        	ld	a0, 32(sp)
80000e10: 97 30 00 00  	auipc	ra, 3
80000e14: e7 80 40 b1  	jalr	-1260(ra)
80000e18: 2a e8        	sd	a0, 16(sp)
80000e1a: 09 a0        	j	2 <core::iter::range::<impl core::iter::traits::iterator::Iterator for core::ops::range::Range<A>>::next::hf3a787c3dd9ce1cc+0x32>
80000e1c: 85 45        	addi	a1, zero, 1
80000e1e: 42 65        	ld	a0, 16(sp)
80000e20: 97 10 00 00  	auipc	ra, 1
80000e24: e7 80 c0 98  	jalr	-1652(ra)
80000e28: aa 85        	add	a1, zero, a0
80000e2a: aa e0        	sd	a0, 64(sp)
80000e2c: 2e e4        	sd	a1, 8(sp)
80000e2e: 09 a0        	j	2 <core::iter::range::<impl core::iter::traits::iterator::Iterator for core::ops::range::Range<A>>::next::hf3a787c3dd9ce1cc+0x46>
80000e30: 02 75        	ld	a0, 32(sp)
80000e32: a2 65        	ld	a1, 8(sp)
80000e34: 97 10 00 00  	auipc	ra, 1
80000e38: e7 80 a0 cd  	jalr	-806(ra)
80000e3c: 2a e0        	sd	a0, 0(sp)
80000e3e: 09 a0        	j	2 <core::iter::range::<impl core::iter::traits::iterator::Iterator for core::ops::range::Range<A>>::next::hf3a787c3dd9ce1cc+0x56>
80000e40: 02 65        	ld	a0, 0(sp)
80000e42: 2a f8        	sd	a0, 48(sp)
80000e44: 85 45        	addi	a1, zero, 1
80000e46: 2e f4        	sd	a1, 40(sp)
80000e48: 09 a0        	j	2 <core::iter::range::<impl core::iter::traits::iterator::Iterator for core::ops::range::Range<A>>::next::hf3a787c3dd9ce1cc+0x60>
80000e4a: 22 75        	ld	a0, 40(sp)
80000e4c: c2 75        	ld	a1, 48(sp)
80000e4e: a6 60        	ld	ra, 72(sp)
80000e50: 61 61        	addi	sp, sp, 80
80000e52: 82 80        	ret

0000000080000e54 <core::iter::range::<impl core::iter::traits::double_ended::DoubleEndedIterator for core::ops::range::Range<A>>::next_back::h9970799399292793>:
80000e54: 5d 71        	addi	sp, sp, -80
80000e56: 86 e4        	sd	ra, 72(sp)
80000e58: aa e0        	sd	a0, 64(sp)
80000e5a: 93 05 85 00  	addi	a1, a0, 8
80000e5e: 2a f0        	sd	a0, 32(sp)
80000e60: 97 20 00 00  	auipc	ra, 2
80000e64: e7 80 60 2f  	jalr	758(ra)
80000e68: 2a ec        	sd	a0, 24(sp)
80000e6a: 09 a0        	j	2 <core::iter::range::<impl core::iter::traits::double_ended::DoubleEndedIterator for core::ops::range::Range<A>>::next_back::h9970799399292793+0x18>
80000e6c: 62 65        	ld	a0, 24(sp)
80000e6e: 09 e5        	bnez	a0, 10 <core::iter::range::<impl core::iter::traits::double_ended::DoubleEndedIterator for core::ops::range::Range<A>>::next_back::h9970799399292793+0x24>
80000e70: 09 a0        	j	2 <core::iter::range::<impl core::iter::traits::double_ended::DoubleEndedIterator for core::ops::range::Range<A>>::next_back::h9970799399292793+0x1e>
80000e72: 01 45        	mv	a0, zero
80000e74: 2a f4        	sd	a0, 40(sp)
80000e76: 3d a0        	j	46 <core::iter::range::<impl core::iter::traits::double_ended::DoubleEndedIterator for core::ops::range::Range<A>>::next_back::h9970799399292793+0x50>
80000e78: 02 75        	ld	a0, 32(sp)
80000e7a: 21 05        	addi	a0, a0, 8
80000e7c: 97 30 00 00  	auipc	ra, 3
80000e80: e7 80 80 aa  	jalr	-1368(ra)
80000e84: 2a e8        	sd	a0, 16(sp)
80000e86: 09 a0        	j	2 <core::iter::range::<impl core::iter::traits::double_ended::DoubleEndedIterator for core::ops::range::Range<A>>::next_back::h9970799399292793+0x34>
80000e88: 85 45        	addi	a1, zero, 1
80000e8a: 42 65        	ld	a0, 16(sp)
80000e8c: 97 10 00 00  	auipc	ra, 1
80000e90: e7 80 c0 93  	jalr	-1732(ra)
80000e94: 2a e4        	sd	a0, 8(sp)
80000e96: 09 a0        	j	2 <core::iter::range::<impl core::iter::traits::double_ended::DoubleEndedIterator for core::ops::range::Range<A>>::next_back::h9970799399292793+0x44>
80000e98: 19 a8        	j	22 <core::iter::range::<impl core::iter::traits::double_ended::DoubleEndedIterator for core::ops::range::Range<A>>::next_back::h9970799399292793+0x5a>
80000e9a: 62 75        	ld	a0, 56(sp)
80000e9c: 2a f8        	sd	a0, 48(sp)
80000e9e: 05 45        	addi	a0, zero, 1
80000ea0: 2a f4        	sd	a0, 40(sp)
80000ea2: 09 a0        	j	2 <core::iter::range::<impl core::iter::traits::double_ended::DoubleEndedIterator for core::ops::range::Range<A>>::next_back::h9970799399292793+0x50>
80000ea4: 22 75        	ld	a0, 40(sp)
80000ea6: c2 75        	ld	a1, 48(sp)
80000ea8: a6 60        	ld	ra, 72(sp)
80000eaa: 61 61        	addi	sp, sp, 80
80000eac: 82 80        	ret
80000eae: 02 75        	ld	a0, 32(sp)
80000eb0: 21 05        	addi	a0, a0, 8
80000eb2: a2 65        	ld	a1, 8(sp)
80000eb4: 02 76        	ld	a2, 32(sp)
80000eb6: 0c e6        	sd	a1, 8(a2)
80000eb8: 97 30 00 00  	auipc	ra, 3
80000ebc: e7 80 c0 a6  	jalr	-1428(ra)
80000ec0: 2a fc        	sd	a0, 56(sp)
80000ec2: e1 bf        	j	-40 <core::iter::range::<impl core::iter::traits::double_ended::DoubleEndedIterator for core::ops::range::Range<A>>::next_back::h9970799399292793+0x46>

0000000080000ec4 <core::iter::range::<impl core::iter::traits::double_ended::DoubleEndedIterator for core::ops::range::RangeInclusive<A>>::next_back::h8c93a735773f904e>:
80000ec4: 1d 71        	addi	sp, sp, -96
80000ec6: 86 ec        	sd	ra, 88(sp)
80000ec8: aa e0        	sd	a0, 64(sp)
80000eca: 2a f0        	sd	a0, 32(sp)
80000ecc: 97 00 00 00  	auipc	ra, 0
80000ed0: e7 80 20 ed  	jalr	-302(ra)
80000ed4: 2a ec        	sd	a0, 24(sp)
80000ed6: 09 a0        	j	2 <core::iter::range::<impl core::iter::traits::double_ended::DoubleEndedIterator for core::ops::range::RangeInclusive<A>>::next_back::h8c93a735773f904e+0x14>
80000ed8: 62 65        	ld	a0, 24(sp)
80000eda: 11 ed        	bnez	a0, 28 <core::iter::range::<impl core::iter::traits::double_ended::DoubleEndedIterator for core::ops::range::RangeInclusive<A>>::next_back::h8c93a735773f904e+0x32>
80000edc: 09 a0        	j	2 <core::iter::range::<impl core::iter::traits::double_ended::DoubleEndedIterator for core::ops::range::RangeInclusive<A>>::next_back::h8c93a735773f904e+0x1a>
80000ede: 02 75        	ld	a0, 32(sp)
80000ee0: 93 05 85 00  	addi	a1, a0, 8
80000ee4: 97 20 00 00  	auipc	ra, 2
80000ee8: e7 80 20 27  	jalr	626(ra)
80000eec: aa 85        	add	a1, zero, a0
80000eee: a3 07 a1 04  	sb	a0, 79(sp)
80000ef2: 2e e8        	sd	a1, 16(sp)
80000ef4: 21 a0        	j	8 <core::iter::range::<impl core::iter::traits::double_ended::DoubleEndedIterator for core::ops::range::RangeInclusive<A>>::next_back::h8c93a735773f904e+0x38>
80000ef6: 01 45        	mv	a0, zero
80000ef8: 2a f4        	sd	a0, 40(sp)
80000efa: 95 a0        	j	100 <core::iter::range::<impl core::iter::traits::double_ended::DoubleEndedIterator for core::ops::range::RangeInclusive<A>>::next_back::h8c93a735773f904e+0x9a>
80000efc: 42 65        	ld	a0, 16(sp)
80000efe: 11 ed        	bnez	a0, 28 <core::iter::range::<impl core::iter::traits::double_ended::DoubleEndedIterator for core::ops::range::RangeInclusive<A>>::next_back::h8c93a735773f904e+0x56>
80000f00: 09 a0        	j	2 <core::iter::range::<impl core::iter::traits::double_ended::DoubleEndedIterator for core::ops::range::RangeInclusive<A>>::next_back::h8c93a735773f904e+0x3e>
80000f02: 05 45        	addi	a0, zero, 1
80000f04: 82 75        	ld	a1, 32(sp)
80000f06: 23 88 a5 00  	sb	a0, 16(a1)
80000f0a: 13 85 85 00  	addi	a0, a1, 8
80000f0e: 97 30 00 00  	auipc	ra, 3
80000f12: e7 80 60 a1  	jalr	-1514(ra)
80000f16: 2a fc        	sd	a0, 56(sp)
80000f18: 2d a8        	j	58 <core::iter::range::<impl core::iter::traits::double_ended::DoubleEndedIterator for core::ops::range::RangeInclusive<A>>::next_back::h8c93a735773f904e+0x8e>
80000f1a: 02 75        	ld	a0, 32(sp)
80000f1c: 21 05        	addi	a0, a0, 8
80000f1e: 97 30 00 00  	auipc	ra, 3
80000f22: e7 80 60 a0  	jalr	-1530(ra)
80000f26: 2a e4        	sd	a0, 8(sp)
80000f28: 09 a0        	j	2 <core::iter::range::<impl core::iter::traits::double_ended::DoubleEndedIterator for core::ops::range::RangeInclusive<A>>::next_back::h8c93a735773f904e+0x66>
80000f2a: 85 45        	addi	a1, zero, 1
80000f2c: 22 65        	ld	a0, 8(sp)
80000f2e: 97 10 00 00  	auipc	ra, 1
80000f32: e7 80 a0 89  	jalr	-1894(ra)
80000f36: aa 85        	add	a1, zero, a0
80000f38: aa e8        	sd	a0, 80(sp)
80000f3a: 2e e0        	sd	a1, 0(sp)
80000f3c: 09 a0        	j	2 <core::iter::range::<impl core::iter::traits::double_ended::DoubleEndedIterator for core::ops::range::RangeInclusive<A>>::next_back::h8c93a735773f904e+0x7a>
80000f3e: 02 75        	ld	a0, 32(sp)
80000f40: 21 05        	addi	a0, a0, 8
80000f42: 82 65        	ld	a1, 0(sp)
80000f44: 97 10 00 00  	auipc	ra, 1
80000f48: e7 80 a0 bc  	jalr	-1078(ra)
80000f4c: 2a fc        	sd	a0, 56(sp)
80000f4e: 09 a0        	j	2 <core::iter::range::<impl core::iter::traits::double_ended::DoubleEndedIterator for core::ops::range::RangeInclusive<A>>::next_back::h8c93a735773f904e+0x8c>
80000f50: 11 a0        	j	4 <core::iter::range::<impl core::iter::traits::double_ended::DoubleEndedIterator for core::ops::range::RangeInclusive<A>>::next_back::h8c93a735773f904e+0x90>
80000f52: 09 a0        	j	2 <core::iter::range::<impl core::iter::traits::double_ended::DoubleEndedIterator for core::ops::range::RangeInclusive<A>>::next_back::h8c93a735773f904e+0x90>
80000f54: 62 75        	ld	a0, 56(sp)
80000f56: 2a f8        	sd	a0, 48(sp)
80000f58: 05 45        	addi	a0, zero, 1
80000f5a: 2a f4        	sd	a0, 40(sp)
80000f5c: 09 a0        	j	2 <core::iter::range::<impl core::iter::traits::double_ended::DoubleEndedIterator for core::ops::range::RangeInclusive<A>>::next_back::h8c93a735773f904e+0x9a>
80000f5e: 22 75        	ld	a0, 40(sp)
80000f60: c2 75        	ld	a1, 48(sp)
80000f62: e6 60        	ld	ra, 88(sp)
80000f64: 25 61        	addi	sp, sp, 96
80000f66: 82 80        	ret

0000000080000f68 <core::iter::traits::iterator::Iterator::rev::h0a3fcec0b0fa4b9a>:
80000f68: 79 71        	addi	sp, sp, -48
80000f6a: 06 f4        	sd	ra, 40(sp)
80000f6c: 2a ec        	sd	a0, 24(sp)
80000f6e: 2e f0        	sd	a1, 32(sp)
80000f70: 97 30 00 00  	auipc	ra, 3
80000f74: e7 80 a0 b5  	jalr	-1190(ra)
80000f78: 2a e8        	sd	a0, 16(sp)
80000f7a: 2e e4        	sd	a1, 8(sp)
80000f7c: 09 a0        	j	2 <core::iter::traits::iterator::Iterator::rev::h0a3fcec0b0fa4b9a+0x16>
80000f7e: 42 65        	ld	a0, 16(sp)
80000f80: a2 65        	ld	a1, 8(sp)
80000f82: a2 70        	ld	ra, 40(sp)
80000f84: 45 61        	addi	sp, sp, 48
80000f86: 82 80        	ret

0000000080000f88 <core::iter::traits::iterator::Iterator::rev::hed24877bb362270d>:
80000f88: 01 11        	addi	sp, sp, -32
80000f8a: 06 ec        	sd	ra, 24(sp)
80000f8c: 90 69        	ld	a2, 16(a1)
80000f8e: 32 e8        	sd	a2, 16(sp)
80000f90: 90 65        	ld	a2, 8(a1)
80000f92: 32 e4        	sd	a2, 8(sp)
80000f94: 8c 61        	ld	a1, 0(a1)
80000f96: 2e e0        	sd	a1, 0(sp)
80000f98: 8a 85        	add	a1, zero, sp
80000f9a: 97 30 00 00  	auipc	ra, 3
80000f9e: e7 80 80 b1  	jalr	-1256(ra)
80000fa2: 09 a0        	j	2 <core::iter::traits::iterator::Iterator::rev::hed24877bb362270d+0x1c>
80000fa4: e2 60        	ld	ra, 24(sp)
80000fa6: 05 61        	addi	sp, sp, 32
80000fa8: 82 80        	ret

0000000080000faa <<I as core::iter::traits::collect::IntoIterator>::into_iter::hca56401f6e0c245f>:
80000faa: 41 11        	addi	sp, sp, -16
80000fac: 2a e0        	sd	a0, 0(sp)
80000fae: 2e e4        	sd	a1, 8(sp)
80000fb0: 41 01        	addi	sp, sp, 16
80000fb2: 82 80        	ret

0000000080000fb4 <<core::ops::range::RangeFull as core::slice::index::SliceIndex<[T]>>::index_mut::h93e945b248ecc3c0>:
80000fb4: 01 11        	addi	sp, sp, -32
80000fb6: 2a e8        	sd	a0, 16(sp)
80000fb8: 2e ec        	sd	a1, 24(sp)
80000fba: 05 61        	addi	sp, sp, 32
80000fbc: 82 80        	ret

0000000080000fbe <<core::ops::range::RangeFull as core::slice::index::SliceIndex<[T]>>::index_mut::ha5be3702ed419da9>:
80000fbe: 01 11        	addi	sp, sp, -32
80000fc0: 2a e8        	sd	a0, 16(sp)
80000fc2: 2e ec        	sd	a1, 24(sp)
80000fc4: 05 61        	addi	sp, sp, 32
80000fc6: 82 80        	ret

0000000080000fc8 <qor_os::mem::heap::get_heap_head::h071ee4a03d893a82>:
80000fc8: 39 71        	addi	sp, sp, -64
80000fca: 06 fc        	sd	ra, 56(sp)

0000000080000fcc <.LBB0_8>:
80000fcc: 17 55 00 00  	auipc	a0, 5
80000fd0: 13 05 c5 75  	addi	a0, a0, 1884
80000fd4: 97 00 00 00  	auipc	ra, 0
80000fd8: e7 80 40 70  	jalr	1796(ra)
80000fdc: 2a f4        	sd	a0, 40(sp)
80000fde: 09 a0        	j	2 <.LBB0_8+0x14>
80000fe0: 11 45        	addi	a0, zero, 4
80000fe2: a3 0b a1 02  	sb	a0, 55(sp)
80000fe6: a2 75        	ld	a1, 40(sp)
80000fe8: 2a f0        	sd	a0, 32(sp)
80000fea: 2e 85        	add	a0, zero, a1
80000fec: 82 75        	ld	a1, 32(sp)
80000fee: 97 40 00 00  	auipc	ra, 4
80000ff2: e7 80 80 87  	jalr	-1928(ra)
80000ff6: 2a ec        	sd	a0, 24(sp)
80000ff8: 09 a0        	j	2 <.LBB0_8+0x2e>
80000ffa: 01 45        	mv	a0, zero
80000ffc: e2 65        	ld	a1, 24(sp)
80000ffe: 63 89 a5 00  	beq	a1, a0, 18 <.LBB0_9>
80001002: 09 a0        	j	2 <.LBB0_8+0x38>
80001004: 97 00 00 00  	auipc	ra, 0
80001008: e7 80 00 79  	jalr	1936(ra)
8000100c: 2a e8        	sd	a0, 16(sp)
8000100e: 05 a0        	j	32 <.LBB0_10+0x16>

0000000080001010 <.LBB0_9>:
80001010: 17 55 00 00  	auipc	a0, 5
80001014: 13 05 05 2c  	addi	a0, a0, 704

0000000080001018 <.LBB0_10>:
80001018: 17 56 00 00  	auipc	a2, 5
8000101c: 13 06 86 30  	addi	a2, a2, 776
80001020: 93 05 a0 03  	addi	a1, zero, 58
80001024: 97 40 00 00  	auipc	ra, 4
80001028: e7 80 60 2f  	jalr	758(ra)
8000102c: 00 00        	unimp	
8000102e: 42 65        	ld	a0, 16(sp)
80001030: 97 20 00 00  	auipc	ra, 2
80001034: e7 80 80 8d  	jalr	-1832(ra)
80001038: 2a e4        	sd	a0, 8(sp)
8000103a: 09 a0        	j	2 <.LBB0_11>

000000008000103c <.LBB0_11>:
8000103c: 97 55 00 00  	auipc	a1, 5
80001040: 93 85 c5 2f  	addi	a1, a1, 764
80001044: 22 65        	ld	a0, 8(sp)
80001046: 97 20 00 00  	auipc	ra, 2
8000104a: e7 80 00 82  	jalr	-2016(ra)
8000104e: 2a e0        	sd	a0, 0(sp)
80001050: 09 a0        	j	2 <.LBB0_11+0x16>
80001052: 02 65        	ld	a0, 0(sp)
80001054: e2 70        	ld	ra, 56(sp)
80001056: 21 61        	addi	sp, sp, 64
80001058: 82 80        	ret

000000008000105a <qor_os::mem::heap::initialize_heap::hf5a9e01f10836706>:
8000105a: 69 71        	addi	sp, sp, -304
8000105c: 06 f6        	sd	ra, 296(sp)
8000105e: 97 00 00 00  	auipc	ra, 0
80001062: e7 80 60 73  	jalr	1846(ra)
80001066: aa f0        	sd	a0, 96(sp)
80001068: 09 a0        	j	2 <qor_os::mem::heap::initialize_heap::hf5a9e01f10836706+0x10>
8000106a: 97 00 00 00  	auipc	ra, 0
8000106e: e7 80 60 73  	jalr	1846(ra)
80001072: aa ec        	sd	a0, 88(sp)
80001074: 09 a0        	j	2 <qor_os::mem::heap::initialize_heap::hf5a9e01f10836706+0x1c>
80001076: 97 00 00 00  	auipc	ra, 0
8000107a: e7 80 e0 71  	jalr	1822(ra)
8000107e: aa e8        	sd	a0, 80(sp)
80001080: 09 a0        	j	2 <qor_os::mem::heap::initialize_heap::hf5a9e01f10836706+0x28>
80001082: 66 65        	ld	a0, 88(sp)
80001084: c6 65        	ld	a1, 80(sp)
80001086: 33 06 b5 40  	sub	a2, a0, a1
8000108a: b2 e4        	sd	a2, 72(sp)
8000108c: 63 66 c5 12  	bltu	a0, a2, 300 <.LBB1_26>
80001090: 09 a0        	j	2 <qor_os::mem::heap::initialize_heap::hf5a9e01f10836706+0x38>
80001092: 26 65        	ld	a0, 72(sp)
80001094: 2a e6        	sd	a0, 264(sp)
80001096: 83 55 01 06  	lhu	a1, 96(sp)
8000109a: 05 66        	lui	a2, 1
8000109c: 7d 36        	addiw	a2, a2, -1
8000109e: f1 8d        	and	a1, a1, a2
800010a0: 01 46        	mv	a2, zero
800010a2: 63 9d c5 00  	bne	a1, a2, 26 <qor_os::mem::heap::initialize_heap::hf5a9e01f10836706+0x62>
800010a6: 09 a0        	j	2 <qor_os::mem::heap::initialize_heap::hf5a9e01f10836706+0x4e>
800010a8: 26 65        	ld	a0, 72(sp)
800010aa: 93 55 c5 00  	srli	a1, a0, 12
800010ae: 2e f2        	sd	a1, 288(sp)
800010b0: 06 75        	ld	a0, 96(sp)
800010b2: 97 00 00 00  	auipc	ra, 0
800010b6: e7 80 60 75  	jalr	1878(ra)
800010ba: 41 a8        	j	144 <.LBB1_22+0x14>
800010bc: 88 10        	addi	a0, sp, 96
800010be: 2a fd        	sd	a0, 184(sp)

00000000800010c0 <.LBB1_17>:
800010c0: 97 55 00 00  	auipc	a1, 5
800010c4: 93 85 85 66  	addi	a1, a1, 1640
800010c8: ae e1        	sd	a1, 192(sp)
800010ca: 2a ea        	sd	a0, 272(sp)
800010cc: 2e ee        	sd	a1, 280(sp)

00000000800010ce <.LBB1_18>:
800010ce: 17 56 00 00  	auipc	a2, 5
800010d2: 13 06 26 c8  	addi	a2, a2, -894
800010d6: ae e0        	sd	a1, 64(sp)
800010d8: b2 85        	add	a1, zero, a2
800010da: 97 00 00 00  	auipc	ra, 0
800010de: e7 80 a0 96  	jalr	-1686(ra)
800010e2: 2a fc        	sd	a0, 56(sp)
800010e4: 2e f8        	sd	a1, 48(sp)
800010e6: 09 a0        	j	2 <.LBB1_19>

00000000800010e8 <.LBB1_19>:
800010e8: 97 55 00 00  	auipc	a1, 5
800010ec: 93 85 45 ea  	addi	a1, a1, -348
800010f0: 06 65        	ld	a0, 64(sp)
800010f2: 97 00 00 00  	auipc	ra, 0
800010f6: e7 80 20 95  	jalr	-1710(ra)
800010fa: 2a f4        	sd	a0, 40(sp)
800010fc: 2e f0        	sd	a1, 32(sp)
800010fe: 09 a0        	j	2 <.LBB1_19+0x18>
80001100: 62 75        	ld	a0, 56(sp)
80001102: 2a ed        	sd	a0, 152(sp)
80001104: c2 75        	ld	a1, 48(sp)
80001106: 2e f1        	sd	a1, 160(sp)
80001108: 22 76        	ld	a2, 40(sp)
8000110a: 32 f5        	sd	a2, 168(sp)
8000110c: 82 76        	ld	a3, 32(sp)
8000110e: 36 f9        	sd	a3, 176(sp)

0000000080001110 <.LBB1_20>:
80001110: 97 55 00 00  	auipc	a1, 5
80001114: 93 85 05 2c  	addi	a1, a1, 704

0000000080001118 <.LBB1_21>:
80001118: 97 57 00 00  	auipc	a5, 5
8000111c: 93 87 87 2e  	addi	a5, a5, 744
80001120: a8 10        	addi	a0, sp, 104
80001122: 0d 46        	addi	a2, zero, 3
80001124: 34 09        	addi	a3, sp, 152
80001126: 09 47        	addi	a4, zero, 2
80001128: 3a ec        	sd	a4, 24(sp)
8000112a: 62 68        	ld	a6, 24(sp)
8000112c: 97 30 00 00  	auipc	ra, 3
80001130: e7 80 00 a0  	jalr	-1536(ra)
80001134: 09 a0        	j	2 <.LBB1_22>

0000000080001136 <.LBB1_22>:
80001136: 97 55 00 00  	auipc	a1, 5
8000113a: 93 85 a5 33  	addi	a1, a1, 826
8000113e: a8 10        	addi	a0, sp, 104
80001140: 97 40 00 00  	auipc	ra, 4
80001144: e7 80 60 24  	jalr	582(ra)
80001148: 00 00        	unimp	
8000114a: 97 30 00 00  	auipc	ra, 3
8000114e: e7 80 a0 8a  	jalr	-1878(ra)
80001152: aa e5        	sd	a0, 200(sp)
80001154: 09 a0        	j	2 <.LBB1_23>

0000000080001156 <.LBB1_23>:
80001156: 97 55 00 00  	auipc	a1, 5
8000115a: 93 85 a5 34  	addi	a1, a1, 842

000000008000115e <.LBB1_24>:
8000115e: 97 56 00 00  	auipc	a3, 5
80001162: 93 86 26 35  	addi	a3, a3, 850
80001166: 88 09        	addi	a0, sp, 208
80001168: 05 46        	addi	a2, zero, 1
8000116a: 01 47        	mv	a4, zero
8000116c: 97 30 00 00  	auipc	ra, 3
80001170: e7 80 60 9e  	jalr	-1562(ra)
80001174: 09 a0        	j	2 <.LBB1_24+0x18>
80001176: a8 01        	addi	a0, sp, 200
80001178: 8c 09        	addi	a1, sp, 208
8000117a: 97 f0 ff ff  	auipc	ra, 1048575
8000117e: e7 80 a0 53  	jalr	1338(ra)
80001182: 09 a0        	j	2 <.LBB1_25>

0000000080001184 <.LBB1_25>:
80001184: 17 55 00 00  	auipc	a0, 5
80001188: 13 05 45 5a  	addi	a0, a0, 1444
8000118c: 97 00 00 00  	auipc	ra, 0
80001190: e7 80 c0 54  	jalr	1356(ra)
80001194: 2a e8        	sd	a0, 16(sp)
80001196: 09 a0        	j	2 <.LBB1_25+0x14>
80001198: 11 45        	addi	a0, zero, 4
8000119a: a3 03 a1 10  	sb	a0, 263(sp)
8000119e: 85 45        	addi	a1, zero, 1
800011a0: 42 66        	ld	a2, 16(sp)
800011a2: 2a e4        	sd	a0, 8(sp)
800011a4: 32 85        	add	a0, zero, a2
800011a6: 22 66        	ld	a2, 8(sp)
800011a8: 97 30 00 00  	auipc	ra, 3
800011ac: e7 80 80 6f  	jalr	1784(ra)
800011b0: 09 a0        	j	2 <.LBB1_25+0x2e>
800011b2: b2 70        	ld	ra, 296(sp)
800011b4: 55 61        	addi	sp, sp, 304
800011b6: 82 80        	ret

00000000800011b8 <.LBB1_26>:
800011b8: 17 55 00 00  	auipc	a0, 5
800011bc: 13 05 85 1b  	addi	a0, a0, 440

00000000800011c0 <.LBB1_27>:
800011c0: 17 56 00 00  	auipc	a2, 5
800011c4: 13 06 06 19  	addi	a2, a2, 400
800011c8: 93 05 10 02  	addi	a1, zero, 33
800011cc: 97 40 00 00  	auipc	ra, 4
800011d0: e7 80 e0 14  	jalr	334(ra)
800011d4: 00 00        	unimp	

00000000800011d6 <qor_os::mem::heap::kalloc::h48cf4d2c26a80e21>:
800011d6: 13 01 01 d6  	addi	sp, sp, -672
800011da: 23 3c 11 28  	sd	ra, 664(sp)
800011de: 2a e6        	sd	a0, 264(sp)
800011e0: 01 45        	mv	a0, zero
800011e2: a3 0b a1 10  	sb	a0, 279(sp)
800011e6: 97 f0 ff ff  	auipc	ra, 1048575
800011ea: e7 80 e0 1e  	jalr	494(ra)
800011ee: 2a e2        	sd	a0, 256(sp)
800011f0: 09 a0        	j	2 <qor_os::mem::heap::kalloc::h48cf4d2c26a80e21+0x1c>
800011f2: 12 65        	ld	a0, 256(sp)
800011f4: 19 e1        	bnez	a0, 6 <qor_os::mem::heap::kalloc::h48cf4d2c26a80e21+0x24>
800011f6: 09 a0        	j	2 <qor_os::mem::heap::kalloc::h48cf4d2c26a80e21+0x22>
800011f8: b9 a8        	j	94 <.LBB2_62+0x2a>
800011fa: 97 20 00 00  	auipc	ra, 2
800011fe: e7 80 a0 7f  	jalr	2042(ra)
80001202: 2a ee        	sd	a0, 280(sp)
80001204: 09 a0        	j	2 <qor_os::mem::heap::kalloc::h48cf4d2c26a80e21+0x30>
80001206: 28 02        	addi	a0, sp, 264
80001208: aa f2        	sd	a0, 352(sp)
8000120a: 23 38 a1 26  	sd	a0, 624(sp)

000000008000120e <.LBB2_61>:
8000120e: 97 55 00 00  	auipc	a1, 5
80001212: 93 85 e5 d7  	addi	a1, a1, -642
80001216: 97 00 00 00  	auipc	ra, 0
8000121a: e7 80 e0 82  	jalr	-2002(ra)
8000121e: aa fd        	sd	a0, 248(sp)
80001220: ae f9        	sd	a1, 240(sp)
80001222: 09 a0        	j	2 <.LBB2_61+0x16>
80001224: 6e 75        	ld	a0, 248(sp)
80001226: aa ea        	sd	a0, 336(sp)
80001228: ce 75        	ld	a1, 240(sp)
8000122a: ae ee        	sd	a1, 344(sp)

000000008000122c <.LBB2_62>:
8000122c: 97 55 00 00  	auipc	a1, 5
80001230: 93 85 45 32  	addi	a1, a1, 804
80001234: 08 12        	addi	a0, sp, 288
80001236: 09 46        	addi	a2, zero, 2
80001238: 94 0a        	addi	a3, sp, 336
8000123a: 05 47        	addi	a4, zero, 1
8000123c: 97 30 00 00  	auipc	ra, 3
80001240: e7 80 60 91  	jalr	-1770(ra)
80001244: 09 a0        	j	2 <.LBB2_62+0x1a>
80001246: 28 0a        	addi	a0, sp, 280
80001248: 0c 12        	addi	a1, sp, 288
8000124a: 97 f0 ff ff  	auipc	ra, 1048575
8000124e: e7 80 a0 46  	jalr	1130(ra)
80001252: 09 a0        	j	2 <.LBB2_62+0x28>
80001254: 09 a0        	j	2 <.LBB2_62+0x2a>
80001256: 97 00 00 00  	auipc	ra, 0
8000125a: e7 80 20 d7  	jalr	-654(ra)
8000125e: aa f6        	sd	a0, 360(sp)
80001260: 09 a0        	j	2 <.LBB2_62+0x36>
80001262: 32 65        	ld	a0, 264(sp)
80001264: b6 75        	ld	a1, 360(sp)
80001266: aa f5        	sd	a0, 232(sp)
80001268: 2e 85        	add	a0, zero, a1
8000126a: 97 00 00 00  	auipc	ra, 0
8000126e: e7 80 e0 70  	jalr	1806(ra)
80001272: aa f1        	sd	a0, 224(sp)
80001274: 09 a0        	j	2 <.LBB2_62+0x4a>
80001276: 0e 75        	ld	a0, 224(sp)
80001278: ae 75        	ld	a1, 232(sp)
8000127a: 63 6a b5 00  	bltu	a0, a1, 20 <.LBB2_62+0x62>
8000127e: 09 a0        	j	2 <.LBB2_62+0x54>
80001280: 36 75        	ld	a0, 360(sp)
80001282: 97 10 00 00  	auipc	ra, 1
80001286: e7 80 80 80  	jalr	-2040(ra)
8000128a: aa ed        	sd	a0, 216(sp)
8000128c: 99 a8        	j	86 <.LBB2_65+0x14>
8000128e: 28 02        	addi	a0, sp, 264
80001290: 2a fb        	sd	a0, 432(sp)
80001292: 23 3c a1 26  	sd	a0, 632(sp)

0000000080001296 <.LBB2_63>:
80001296: 97 55 00 00  	auipc	a1, 5
8000129a: 93 85 65 cf  	addi	a1, a1, -778
8000129e: 97 f0 ff ff  	auipc	ra, 1048575
800012a2: e7 80 60 7a  	jalr	1958(ra)
800012a6: aa e9        	sd	a0, 208(sp)
800012a8: ae e5        	sd	a1, 200(sp)
800012aa: 09 a0        	j	2 <.LBB2_63+0x16>
800012ac: 4e 65        	ld	a0, 208(sp)
800012ae: 2a f3        	sd	a0, 416(sp)
800012b0: ae 65        	ld	a1, 200(sp)
800012b2: 2e f7        	sd	a1, 424(sp)

00000000800012b4 <.LBB2_64>:
800012b4: 97 55 00 00  	auipc	a1, 5
800012b8: 93 85 c5 2e  	addi	a1, a1, 748
800012bc: 88 1a        	addi	a0, sp, 368
800012be: 09 46        	addi	a2, zero, 2
800012c0: 14 13        	addi	a3, sp, 416
800012c2: 05 47        	addi	a4, zero, 1
800012c4: 97 30 00 00  	auipc	ra, 3
800012c8: e7 80 e0 88  	jalr	-1906(ra)
800012cc: 09 a0        	j	2 <.LBB2_65>

00000000800012ce <.LBB2_65>:
800012ce: 97 55 00 00  	auipc	a1, 5
800012d2: 93 85 25 2f  	addi	a1, a1, 754
800012d6: 88 1a        	addi	a0, sp, 368
800012d8: 97 40 00 00  	auipc	ra, 4
800012dc: e7 80 e0 0a  	jalr	174(ra)
800012e0: 00 00        	unimp	
800012e2: 6e 65        	ld	a0, 216(sp)
800012e4: 97 10 00 00  	auipc	ra, 1
800012e8: e7 80 40 62  	jalr	1572(ra)
800012ec: aa e1        	sd	a0, 192(sp)
800012ee: 09 a0        	j	2 <.LBB2_66>

00000000800012f0 <.LBB2_66>:
800012f0: 97 55 00 00  	auipc	a1, 5
800012f4: 93 85 85 2e  	addi	a1, a1, 744
800012f8: 0e 65        	ld	a0, 192(sp)
800012fa: 97 10 00 00  	auipc	ra, 1
800012fe: e7 80 c0 56  	jalr	1388(ra)
80001302: 2a ff        	sd	a0, 440(sp)
80001304: 09 a0        	j	2 <.LBB2_66+0x16>
80001306: 09 a0        	j	2 <.LBB2_66+0x18>
80001308: 7a 75        	ld	a0, 440(sp)
8000130a: 97 00 00 00  	auipc	ra, 0
8000130e: e7 80 e0 66  	jalr	1646(ra)
80001312: 2a fd        	sd	a0, 184(sp)
80001314: 09 a0        	j	2 <.LBB2_66+0x26>
80001316: 32 65        	ld	a0, 264(sp)
80001318: ea 75        	ld	a1, 184(sp)
8000131a: 63 ed a5 00  	bltu	a1, a0, 26 <.LBB2_66+0x44>
8000131e: 09 a0        	j	2 <.LBB2_66+0x30>
80001320: 36 75        	ld	a0, 360(sp)
80001322: fa 75        	ld	a1, 440(sp)
80001324: 2a f9        	sd	a0, 176(sp)
80001326: 2e 85        	add	a0, zero, a1
80001328: 97 00 00 00  	auipc	ra, 0
8000132c: e7 80 80 75  	jalr	1880(ra)
80001330: 2a f5        	sd	a0, 168(sp)
80001332: 45 a0        	j	160 <.LBB2_69+0x14>
80001334: 7a 75        	ld	a0, 440(sp)
80001336: 97 00 00 00  	auipc	ra, 0
8000133a: e7 80 40 75  	jalr	1876(ra)
8000133e: 2a f1        	sd	a0, 160(sp)
80001340: 09 a0        	j	2 <.LBB2_66+0x52>
80001342: 0a 75        	ld	a0, 160(sp)
80001344: 97 10 00 00  	auipc	ra, 1
80001348: e7 80 40 5c  	jalr	1476(ra)
8000134c: aa e3        	sd	a0, 448(sp)
8000134e: 09 a0        	j	2 <.LBB2_66+0x60>
80001350: 1e 65        	ld	a0, 448(sp)
80001352: 81 45        	mv	a1, zero
80001354: 63 13 b5 02  	bne	a0, a1, 38 <.LBB2_67+0x16>
80001358: 09 a0        	j	2 <.LBB2_66+0x6a>
8000135a: 28 02        	addi	a0, sp, 264
8000135c: 23 34 a1 20  	sd	a0, 520(sp)
80001360: 23 30 a1 28  	sd	a0, 640(sp)

0000000080001364 <.LBB2_67>:
80001364: 97 55 00 00  	auipc	a1, 5
80001368: 93 85 85 c2  	addi	a1, a1, -984
8000136c: 97 f0 ff ff  	auipc	ra, 1048575
80001370: e7 80 80 6d  	jalr	1752(ra)
80001374: 2a ed        	sd	a0, 152(sp)
80001376: 2e e9        	sd	a1, 144(sp)
80001378: 0d a0        	j	34 <.LBB2_67+0x36>
8000137a: 1e 65        	ld	a0, 448(sp)
8000137c: 23 34 a1 28  	sd	a0, 648(sp)
80001380: ac 12        	addi	a1, sp, 360
80001382: 30 1b        	addi	a2, sp, 440
80001384: 2a e5        	sd	a0, 136(sp)
80001386: 2e 85        	add	a0, zero, a1
80001388: b2 85        	add	a1, zero, a2
8000138a: 97 00 00 00  	auipc	ra, 0
8000138e: e7 80 c0 76  	jalr	1900(ra)
80001392: 09 a0        	j	2 <.LBB2_67+0x30>
80001394: 2a 65        	ld	a0, 136(sp)
80001396: 2a ff        	sd	a0, 440(sp)
80001398: 85 bf        	j	-144 <.LBB2_66+0x18>
8000139a: 6a 65        	ld	a0, 152(sp)
8000139c: aa ff        	sd	a0, 504(sp)
8000139e: ca 65        	ld	a1, 144(sp)
800013a0: 23 30 b1 20  	sd	a1, 512(sp)

00000000800013a4 <.LBB2_68>:
800013a4: 97 55 00 00  	auipc	a1, 5
800013a8: 93 85 c5 1f  	addi	a1, a1, 508
800013ac: a8 03        	addi	a0, sp, 456
800013ae: 09 46        	addi	a2, zero, 2
800013b0: b4 1b        	addi	a3, sp, 504
800013b2: 05 47        	addi	a4, zero, 1
800013b4: 97 20 00 00  	auipc	ra, 2
800013b8: e7 80 e0 79  	jalr	1950(ra)
800013bc: 09 a0        	j	2 <.LBB2_69>

00000000800013be <.LBB2_69>:
800013be: 97 55 00 00  	auipc	a1, 5
800013c2: 93 85 25 23  	addi	a1, a1, 562
800013c6: a8 03        	addi	a0, sp, 456
800013c8: 97 40 00 00  	auipc	ra, 4
800013cc: e7 80 e0 fb  	jalr	-66(ra)
800013d0: 00 00        	unimp	
800013d2: 2a 75        	ld	a0, 168(sp)
800013d4: b2 65        	ld	a1, 264(sp)
800013d6: 05 46        	addi	a2, zero, 1
800013d8: 52 16        	slli	a2, a2, 52
800013da: 7d 16        	addi	a2, a2, -1
800013dc: 6d 8e        	and	a2, a2, a1
800013de: 93 96 c5 00  	slli	a3, a1, 12
800013e2: 2a e1        	sd	a0, 128(sp)
800013e4: b6 fc        	sd	a3, 120(sp)
800013e6: 63 1a b6 16  	bne	a2, a1, 372 <.LBB2_72>
800013ea: 09 a0        	j	2 <.LBB2_69+0x2e>
800013ec: 0a 65        	ld	a0, 128(sp)
800013ee: e6 75        	ld	a1, 120(sp)
800013f0: 33 06 b5 00  	add	a2, a0, a1
800013f4: b2 f8        	sd	a2, 112(sp)
800013f6: 63 61 a6 18  	bltu	a2, a0, 386 <.LBB2_74>
800013fa: 09 a0        	j	2 <.LBB2_69+0x3e>
800013fc: 4a 75        	ld	a0, 176(sp)
800013fe: c6 75        	ld	a1, 112(sp)
80001400: 97 00 00 00  	auipc	ra, 0
80001404: e7 80 40 69  	jalr	1684(ra)
80001408: 09 a0        	j	2 <.LBB2_69+0x4c>
8000140a: 7a 75        	ld	a0, 440(sp)
8000140c: 97 00 00 00  	auipc	ra, 0
80001410: e7 80 c0 56  	jalr	1388(ra)
80001414: aa f4        	sd	a0, 104(sp)
80001416: 09 a0        	j	2 <.LBB2_69+0x5a>
80001418: 32 65        	ld	a0, 264(sp)
8000141a: a6 75        	ld	a1, 104(sp)
8000141c: 33 85 a5 40  	sub	a0, a1, a0
80001420: aa f0        	sd	a0, 96(sp)
80001422: 63 e9 a5 16  	bltu	a1, a0, 370 <.LBB2_76>
80001426: 09 a0        	j	2 <.LBB2_69+0x6a>
80001428: 01 45        	mv	a0, zero
8000142a: 86 75        	ld	a1, 96(sp)
8000142c: 63 94 a5 00  	bne	a1, a0, 8 <.LBB2_69+0x76>
80001430: 09 a0        	j	2 <.LBB2_69+0x74>
80001432: a5 a8        	j	120 <.LBB2_69+0xec>
80001434: 7a 75        	ld	a0, 440(sp)
80001436: 97 00 00 00  	auipc	ra, 0
8000143a: e7 80 a0 64  	jalr	1610(ra)
8000143e: aa ec        	sd	a0, 88(sp)
80001440: 09 a0        	j	2 <.LBB2_69+0x84>
80001442: 66 65        	ld	a0, 88(sp)
80001444: b2 65        	ld	a1, 264(sp)
80001446: 05 46        	addi	a2, zero, 1
80001448: 52 16        	slli	a2, a2, 52
8000144a: 7d 16        	addi	a2, a2, -1
8000144c: 6d 8e        	and	a2, a2, a1
8000144e: 93 96 c5 00  	slli	a3, a1, 12
80001452: aa e8        	sd	a0, 80(sp)
80001454: b6 e4        	sd	a3, 72(sp)
80001456: 63 1e b6 14  	bne	a2, a1, 348 <.LBB2_78>
8000145a: 09 a0        	j	2 <.LBB2_69+0x9e>
8000145c: 46 65        	ld	a0, 80(sp)
8000145e: a6 65        	ld	a1, 72(sp)
80001460: 33 06 b5 00  	add	a2, a0, a1
80001464: b2 e0        	sd	a2, 64(sp)
80001466: 63 65 a6 16  	bltu	a2, a0, 362 <.LBB2_80>
8000146a: 09 a0        	j	2 <.LBB2_69+0xae>
8000146c: 7a 75        	ld	a0, 440(sp)
8000146e: 97 00 00 00  	auipc	ra, 0
80001472: e7 80 a0 50  	jalr	1290(ra)
80001476: 2a fc        	sd	a0, 56(sp)
80001478: 09 a0        	j	2 <.LBB2_69+0xbc>
8000147a: 32 65        	ld	a0, 264(sp)
8000147c: e2 75        	ld	a1, 56(sp)
8000147e: 33 85 a5 40  	sub	a0, a1, a0
80001482: 2a f8        	sd	a0, 48(sp)
80001484: 63 e4 a5 16  	bltu	a1, a0, 360 <.LBB2_82>
80001488: 09 a0        	j	2 <.LBB2_69+0xcc>
8000148a: 7a 75        	ld	a0, 440(sp)
8000148c: 97 00 00 00  	auipc	ra, 0
80001490: e7 80 e0 5f  	jalr	1534(ra)
80001494: 2a f4        	sd	a0, 40(sp)
80001496: 09 a0        	j	2 <.LBB2_69+0xda>
80001498: 06 65        	ld	a0, 64(sp)
8000149a: c2 75        	ld	a1, 48(sp)
8000149c: 22 76        	ld	a2, 40(sp)
8000149e: 97 00 00 00  	auipc	ra, 0
800014a2: e7 80 a0 47  	jalr	1146(ra)
800014a6: 09 a0        	j	2 <.LBB2_69+0xea>
800014a8: 09 a0        	j	2 <.LBB2_69+0xec>
800014aa: 01 45        	mv	a0, zero
800014ac: a3 0b a1 20  	sb	a0, 535(sp)
800014b0: 97 f0 ff ff  	auipc	ra, 1048575
800014b4: e7 80 40 f2  	jalr	-220(ra)
800014b8: 2a f0        	sd	a0, 32(sp)
800014ba: 09 a0        	j	2 <.LBB2_69+0xfe>
800014bc: 02 75        	ld	a0, 32(sp)
800014be: 19 e1        	bnez	a0, 6 <.LBB2_69+0x106>
800014c0: 09 a0        	j	2 <.LBB2_69+0x104>
800014c2: bd a8        	j	126 <.LBB2_71+0x2a>
800014c4: 97 20 00 00  	auipc	ra, 2
800014c8: e7 80 00 53  	jalr	1328(ra)
800014cc: 23 3c a1 20  	sd	a0, 536(sp)
800014d0: 09 a0        	j	2 <.LBB2_69+0x114>
800014d2: 7a 75        	ld	a0, 440(sp)
800014d4: 97 00 00 00  	auipc	ra, 0
800014d8: e7 80 c0 5a  	jalr	1452(ra)
800014dc: 2a ec        	sd	a0, 24(sp)
800014de: 09 a0        	j	2 <.LBB2_69+0x122>
800014e0: 62 65        	ld	a0, 24(sp)
800014e2: 23 34 a1 26  	sd	a0, 616(sp)
800014e6: ac 14        	addi	a1, sp, 616
800014e8: 23 30 b1 26  	sd	a1, 608(sp)
800014ec: 23 38 b1 28  	sd	a1, 656(sp)

00000000800014f0 <.LBB2_70>:
800014f0: 17 56 00 00  	auipc	a2, 5
800014f4: 13 06 06 86  	addi	a2, a2, -1952
800014f8: 2e 85        	add	a0, zero, a1
800014fa: b2 85        	add	a1, zero, a2
800014fc: 97 f0 ff ff  	auipc	ra, 1048575
80001500: e7 80 80 54  	jalr	1352(ra)
80001504: 2a e8        	sd	a0, 16(sp)
80001506: 2e e4        	sd	a1, 8(sp)
80001508: 09 a0        	j	2 <.LBB2_70+0x1a>
8000150a: 42 65        	ld	a0, 16(sp)
8000150c: 23 38 a1 24  	sd	a0, 592(sp)
80001510: a2 65        	ld	a1, 8(sp)
80001512: 23 3c b1 24  	sd	a1, 600(sp)

0000000080001516 <.LBB2_71>:
80001516: 97 55 00 00  	auipc	a1, 5
8000151a: 93 85 a5 1d  	addi	a1, a1, 474
8000151e: 08 14        	addi	a0, sp, 544
80001520: 09 46        	addi	a2, zero, 2
80001522: 94 0c        	addi	a3, sp, 592
80001524: 05 47        	addi	a4, zero, 1
80001526: 97 20 00 00  	auipc	ra, 2
8000152a: e7 80 c0 62  	jalr	1580(ra)
8000152e: 09 a0        	j	2 <.LBB2_71+0x1a>
80001530: 28 0c        	addi	a0, sp, 536
80001532: 0c 14        	addi	a1, sp, 544
80001534: 97 f0 ff ff  	auipc	ra, 1048575
80001538: e7 80 00 18  	jalr	384(ra)
8000153c: 09 a0        	j	2 <.LBB2_71+0x28>
8000153e: 09 a0        	j	2 <.LBB2_71+0x2a>
80001540: 7a 75        	ld	a0, 440(sp)
80001542: 97 00 00 00  	auipc	ra, 0
80001546: e7 80 e0 53  	jalr	1342(ra)
8000154a: 2a e0        	sd	a0, 0(sp)
8000154c: 09 a0        	j	2 <.LBB2_71+0x38>
8000154e: 02 65        	ld	a0, 0(sp)
80001550: 83 30 81 29  	ld	ra, 664(sp)
80001554: 13 01 01 2a  	addi	sp, sp, 672
80001558: 82 80        	ret

000000008000155a <.LBB2_72>:
8000155a: 17 55 00 00  	auipc	a0, 5
8000155e: 13 05 65 0c  	addi	a0, a0, 198

0000000080001562 <.LBB2_73>:
80001562: 17 56 00 00  	auipc	a2, 5
80001566: 13 06 66 0a  	addi	a2, a2, 166
8000156a: 93 05 10 02  	addi	a1, zero, 33
8000156e: 97 40 00 00  	auipc	ra, 4
80001572: e7 80 c0 da  	jalr	-596(ra)
80001576: 00 00        	unimp	

0000000080001578 <.LBB2_74>:
80001578: 17 55 00 00  	auipc	a0, 5
8000157c: 13 05 85 0e  	addi	a0, a0, 232

0000000080001580 <.LBB2_75>:
80001580: 17 56 00 00  	auipc	a2, 5
80001584: 13 06 86 0c  	addi	a2, a2, 200
80001588: f1 45        	addi	a1, zero, 28
8000158a: 97 40 00 00  	auipc	ra, 4
8000158e: e7 80 00 d9  	jalr	-624(ra)
80001592: 00 00        	unimp	

0000000080001594 <.LBB2_76>:
80001594: 17 55 00 00  	auipc	a0, 5
80001598: 13 05 c5 dd  	addi	a0, a0, -548

000000008000159c <.LBB2_77>:
8000159c: 17 56 00 00  	auipc	a2, 5
800015a0: 13 06 46 0e  	addi	a2, a2, 228
800015a4: 93 05 10 02  	addi	a1, zero, 33
800015a8: 97 40 00 00  	auipc	ra, 4
800015ac: e7 80 20 d7  	jalr	-654(ra)
800015b0: 00 00        	unimp	

00000000800015b2 <.LBB2_78>:
800015b2: 17 55 00 00  	auipc	a0, 5
800015b6: 13 05 e5 06  	addi	a0, a0, 110

00000000800015ba <.LBB2_79>:
800015ba: 17 56 00 00  	auipc	a2, 5
800015be: 13 06 e6 0d  	addi	a2, a2, 222
800015c2: 93 05 10 02  	addi	a1, zero, 33
800015c6: 97 40 00 00  	auipc	ra, 4
800015ca: e7 80 40 d5  	jalr	-684(ra)
800015ce: 00 00        	unimp	

00000000800015d0 <.LBB2_80>:
800015d0: 17 55 00 00  	auipc	a0, 5
800015d4: 13 05 05 09  	addi	a0, a0, 144

00000000800015d8 <.LBB2_81>:
800015d8: 17 56 00 00  	auipc	a2, 5
800015dc: 13 06 86 0d  	addi	a2, a2, 216
800015e0: f1 45        	addi	a1, zero, 28
800015e2: 97 40 00 00  	auipc	ra, 4
800015e6: e7 80 80 d3  	jalr	-712(ra)
800015ea: 00 00        	unimp	

00000000800015ec <.LBB2_82>:
800015ec: 17 55 00 00  	auipc	a0, 5
800015f0: 13 05 45 d8  	addi	a0, a0, -636

00000000800015f4 <.LBB2_83>:
800015f4: 17 56 00 00  	auipc	a2, 5
800015f8: 13 06 46 0d  	addi	a2, a2, 212
800015fc: 93 05 10 02  	addi	a1, zero, 33
80001600: 97 40 00 00  	auipc	ra, 4
80001604: e7 80 a0 d1  	jalr	-742(ra)
80001608: 00 00        	unimp	

000000008000160a <qor_os::mem::heap::kzalloc::h2b8223473bf9dd3a>:
8000160a: 71 71        	addi	sp, sp, -176
8000160c: 06 f5        	sd	ra, 168(sp)
8000160e: 2a e1        	sd	a0, 128(sp)
80001610: aa e4        	sd	a0, 72(sp)
80001612: 97 00 00 00  	auipc	ra, 0
80001616: e7 80 40 bc  	jalr	-1084(ra)
8000161a: aa e0        	sd	a0, 64(sp)
8000161c: 09 a0        	j	2 <qor_os::mem::heap::kzalloc::h2b8223473bf9dd3a+0x14>
8000161e: 06 65        	ld	a0, 64(sp)
80001620: 86 65        	ld	a1, 64(sp)
80001622: 2e e5        	sd	a1, 136(sp)
80001624: 05 46        	addi	a2, zero, 1
80001626: 52 16        	slli	a2, a2, 52
80001628: 7d 16        	addi	a2, a2, -1
8000162a: a6 66        	ld	a3, 72(sp)
8000162c: 75 8e        	and	a2, a2, a3
8000162e: 13 97 c6 00  	slli	a4, a3, 12
80001632: 2a fc        	sd	a0, 56(sp)
80001634: 3a f8        	sd	a4, 48(sp)
80001636: 63 12 d6 08  	bne	a2, a3, 132 <.LBB3_13>
8000163a: 09 a0        	j	2 <qor_os::mem::heap::kzalloc::h2b8223473bf9dd3a+0x32>
8000163c: 42 75        	ld	a0, 48(sp)
8000163e: 93 55 35 00  	srli	a1, a0, 3
80001642: 01 46        	mv	a2, zero
80001644: b2 e8        	sd	a2, 80(sp)
80001646: ae ec        	sd	a1, 88(sp)
80001648: 32 85        	add	a0, zero, a2
8000164a: 97 00 00 00  	auipc	ra, 0
8000164e: e7 80 00 96  	jalr	-1696(ra)
80001652: 2a f4        	sd	a0, 40(sp)
80001654: 2e f0        	sd	a1, 32(sp)
80001656: 09 a0        	j	2 <qor_os::mem::heap::kzalloc::h2b8223473bf9dd3a+0x4e>
80001658: 22 75        	ld	a0, 40(sp)
8000165a: aa f0        	sd	a0, 96(sp)
8000165c: 82 75        	ld	a1, 32(sp)
8000165e: ae f4        	sd	a1, 104(sp)
80001660: 09 a0        	j	2 <qor_os::mem::heap::kzalloc::h2b8223473bf9dd3a+0x58>
80001662: 88 10        	addi	a0, sp, 96
80001664: 97 f0 ff ff  	auipc	ra, 1048575
80001668: e7 80 60 78  	jalr	1926(ra)
8000166c: aa f8        	sd	a0, 112(sp)
8000166e: ae fc        	sd	a1, 120(sp)
80001670: 09 a0        	j	2 <qor_os::mem::heap::kzalloc::h2b8223473bf9dd3a+0x68>
80001672: 46 75        	ld	a0, 112(sp)
80001674: 81 45        	mv	a1, zero
80001676: 63 04 b5 00  	beq	a0, a1, 8 <qor_os::mem::heap::kzalloc::h2b8223473bf9dd3a+0x74>
8000167a: 09 a0        	j	2 <qor_os::mem::heap::kzalloc::h2b8223473bf9dd3a+0x72>
8000167c: 31 a0        	j	12 <qor_os::mem::heap::kzalloc::h2b8223473bf9dd3a+0x7e>
8000167e: 62 75        	ld	a0, 56(sp)
80001680: aa 70        	ld	ra, 168(sp)
80001682: 4d 61        	addi	sp, sp, 176
80001684: 82 80        	ret
80001686: 00 00        	unimp	
80001688: 66 75        	ld	a0, 120(sp)
8000168a: 2a e9        	sd	a0, 144(sp)
8000168c: 2a ed        	sd	a0, 152(sp)
8000168e: 2a f1        	sd	a0, 160(sp)
80001690: e2 75        	ld	a1, 56(sp)
80001692: 2a ec        	sd	a0, 24(sp)
80001694: 2e 85        	add	a0, zero, a1
80001696: e2 65        	ld	a1, 24(sp)
80001698: 97 f0 ff ff  	auipc	ra, 1048575
8000169c: e7 80 40 48  	jalr	1156(ra)
800016a0: 2a e8        	sd	a0, 16(sp)
800016a2: 09 a0        	j	2 <qor_os::mem::heap::kzalloc::h2b8223473bf9dd3a+0x9a>
800016a4: 01 45        	mv	a0, zero
800016a6: c2 65        	ld	a1, 16(sp)
800016a8: 2a e4        	sd	a0, 8(sp)
800016aa: 2e 85        	add	a0, zero, a1
800016ac: a2 65        	ld	a1, 8(sp)
800016ae: 97 f0 ff ff  	auipc	ra, 1048575
800016b2: e7 80 60 4a  	jalr	1190(ra)
800016b6: 09 a0        	j	2 <qor_os::mem::heap::kzalloc::h2b8223473bf9dd3a+0xae>
800016b8: 6d b7        	j	-86 <qor_os::mem::heap::kzalloc::h2b8223473bf9dd3a+0x58>

00000000800016ba <.LBB3_13>:
800016ba: 17 55 00 00  	auipc	a0, 5
800016be: 13 05 65 f6  	addi	a0, a0, -154

00000000800016c2 <.LBB3_14>:
800016c2: 17 56 00 00  	auipc	a2, 5
800016c6: 13 06 e6 04  	addi	a2, a2, 78
800016ca: 93 05 10 02  	addi	a1, zero, 33
800016ce: 97 40 00 00  	auipc	ra, 4
800016d2: e7 80 c0 c4  	jalr	-948(ra)
800016d6: 00 00        	unimp	

00000000800016d8 <<qor_os::mem::heap::HEAP_INITIALIZED as core::ops::deref::Deref>::deref::hd06a0b64429fe76d>:
800016d8: 01 11        	addi	sp, sp, -32
800016da: 06 ec        	sd	ra, 24(sp)
800016dc: 2a e8        	sd	a0, 16(sp)

00000000800016de <.LBB4_2>:
800016de: 17 75 00 00  	auipc	a0, 7
800016e2: 13 05 25 94  	addi	a0, a0, -1726
800016e6: 97 00 00 00  	auipc	ra, 0
800016ea: e7 80 a0 3b  	jalr	954(ra)
800016ee: 2a e4        	sd	a0, 8(sp)
800016f0: 09 a0        	j	2 <.LBB4_2+0x14>
800016f2: 22 65        	ld	a0, 8(sp)
800016f4: e2 60        	ld	ra, 24(sp)
800016f6: 05 61        	addi	sp, sp, 32
800016f8: 82 80        	ret

00000000800016fa <<qor_os::mem::heap::HEAP_INITIALIZED as core::ops::deref::Deref>::deref::__static_ref_initialize::hd81166267f5eb662>:
800016fa: 41 11        	addi	sp, sp, -16
800016fc: 06 e4        	sd	ra, 8(sp)
800016fe: 01 45        	mv	a0, zero
80001700: 97 30 00 00  	auipc	ra, 3
80001704: e7 80 20 14  	jalr	322(ra)
80001708: a3 03 a1 00  	sb	a0, 7(sp)
8000170c: 23 00 a1 00  	sb	a0, 0(sp)
80001710: 09 a0        	j	2 <<qor_os::mem::heap::HEAP_INITIALIZED as core::ops::deref::Deref>::deref::__static_ref_initialize::hd81166267f5eb662+0x18>
80001712: 03 05 01 00  	lb	a0, 0(sp)
80001716: a2 60        	ld	ra, 8(sp)
80001718: 41 01        	addi	sp, sp, 16
8000171a: 82 80        	ret

000000008000171c <qor_os::mem::addrs::text_start::hb34f76d95fd517d0>:
8000171c: 17 55 00 00  	auipc	a0, 5
80001720: 13 05 c5 a5  	addi	a0, a0, -1444
80001724: 08 61        	ld	a0, 0(a0)
80001726: 82 80        	ret

0000000080001728 <qor_os::mem::addrs::text_end::h2b213b7aecfe5dbf>:
80001728: 17 55 00 00  	auipc	a0, 5
8000172c: 13 05 85 a5  	addi	a0, a0, -1448
80001730: 08 61        	ld	a0, 0(a0)
80001732: 82 80        	ret

0000000080001734 <qor_os::mem::addrs::rodata_start::h40a1ad496e26850d>:
80001734: 17 55 00 00  	auipc	a0, 5
80001738: 13 05 45 a6  	addi	a0, a0, -1436
8000173c: 08 61        	ld	a0, 0(a0)
8000173e: 82 80        	ret

0000000080001740 <qor_os::mem::addrs::rodata_end::h0b6d91e3a8ee33fe>:
80001740: 17 55 00 00  	auipc	a0, 5
80001744: 13 05 05 a6  	addi	a0, a0, -1440
80001748: 08 61        	ld	a0, 0(a0)
8000174a: 82 80        	ret

000000008000174c <qor_os::mem::addrs::data_start::he8e8e1b14c9720ef>:
8000174c: 17 55 00 00  	auipc	a0, 5
80001750: 13 05 c5 a3  	addi	a0, a0, -1476
80001754: 08 61        	ld	a0, 0(a0)
80001756: 82 80        	ret

0000000080001758 <qor_os::mem::addrs::data_end::hbe4efd5368784cdb>:
80001758: 17 55 00 00  	auipc	a0, 5
8000175c: 13 05 85 a3  	addi	a0, a0, -1480
80001760: 08 61        	ld	a0, 0(a0)
80001762: 82 80        	ret

0000000080001764 <qor_os::mem::addrs::bss_start::h87a67845b9f5a453>:
80001764: 17 55 00 00  	auipc	a0, 5
80001768: 13 05 45 a4  	addi	a0, a0, -1468
8000176c: 08 61        	ld	a0, 0(a0)
8000176e: 82 80        	ret

0000000080001770 <qor_os::mem::addrs::bss_end::h382694f20a1a8d58>:
80001770: 17 55 00 00  	auipc	a0, 5
80001774: 13 05 05 a4  	addi	a0, a0, -1472
80001778: 08 61        	ld	a0, 0(a0)
8000177a: 82 80        	ret

000000008000177c <qor_os::mem::addrs::stack_start::h65068c6b72b8168b>:
8000177c: 17 55 00 00  	auipc	a0, 5
80001780: 13 05 c5 a3  	addi	a0, a0, -1476
80001784: 08 61        	ld	a0, 0(a0)
80001786: 82 80        	ret

0000000080001788 <qor_os::mem::addrs::stack_end::h8b61f7123a5a75ae>:
80001788: 17 55 00 00  	auipc	a0, 5
8000178c: 13 05 85 a3  	addi	a0, a0, -1480
80001790: 08 61        	ld	a0, 0(a0)
80001792: 82 80        	ret

0000000080001794 <qor_os::mem::addrs::heap_start::h71899cf2fa2e0cf0>:
80001794: 17 55 00 00  	auipc	a0, 5
80001798: 13 05 c5 9c  	addi	a0, a0, -1588
8000179c: 08 61        	ld	a0, 0(a0)
8000179e: 82 80        	ret

00000000800017a0 <qor_os::mem::addrs::heap_end::hf1f9e9f812434b3b>:
800017a0: 17 55 00 00  	auipc	a0, 5
800017a4: 13 05 05 9d  	addi	a0, a0, -1584
800017a8: 08 61        	ld	a0, 0(a0)
800017aa: 82 80        	ret

00000000800017ac <<usize as core::iter::range::Step>::forward_unchecked::h25aa93ad125e51e1>:
800017ac: 01 11        	addi	sp, sp, -32
800017ae: 06 ec        	sd	ra, 24(sp)
800017b0: 2a e4        	sd	a0, 8(sp)
800017b2: 2e e8        	sd	a1, 16(sp)
800017b4: 97 20 00 00  	auipc	ra, 2
800017b8: e7 80 60 cf  	jalr	-778(ra)
800017bc: 2a e0        	sd	a0, 0(sp)
800017be: 09 a0        	j	2 <<usize as core::iter::range::Step>::forward_unchecked::h25aa93ad125e51e1+0x14>
800017c0: 02 65        	ld	a0, 0(sp)
800017c2: e2 60        	ld	ra, 24(sp)
800017c4: 05 61        	addi	sp, sp, 32
800017c6: 82 80        	ret

00000000800017c8 <<usize as core::iter::range::Step>::backward_unchecked::hd559545914271640>:
800017c8: 01 11        	addi	sp, sp, -32
800017ca: 06 ec        	sd	ra, 24(sp)
800017cc: 2a e4        	sd	a0, 8(sp)
800017ce: 2e e8        	sd	a1, 16(sp)
800017d0: 97 20 00 00  	auipc	ra, 2
800017d4: e7 80 e0 ce  	jalr	-786(ra)
800017d8: 2a e0        	sd	a0, 0(sp)
800017da: 09 a0        	j	2 <<usize as core::iter::range::Step>::backward_unchecked::hd559545914271640+0x14>
800017dc: 02 65        	ld	a0, 0(sp)
800017de: e2 60        	ld	ra, 24(sp)
800017e0: 05 61        	addi	sp, sp, 32
800017e2: 82 80        	ret

00000000800017e4 <core::ptr::non_null::NonNull<T>::new_unchecked::h46ef6f8010623d71>:
800017e4: 41 11        	addi	sp, sp, -16
800017e6: 2a e4        	sd	a0, 8(sp)
800017e8: 2a e0        	sd	a0, 0(sp)
800017ea: 41 01        	addi	sp, sp, 16
800017ec: 82 80        	ret

00000000800017ee <core::ptr::non_null::NonNull<T>::new_unchecked::h54f204e9eac66a05>:
800017ee: 41 11        	addi	sp, sp, -16
800017f0: 2a e4        	sd	a0, 8(sp)
800017f2: 2a e0        	sd	a0, 0(sp)
800017f4: 41 01        	addi	sp, sp, 16
800017f6: 82 80        	ret

00000000800017f8 <core::ptr::non_null::NonNull<T>::as_ptr::h1809231f3bcb581d>:
800017f8: 41 11        	addi	sp, sp, -16
800017fa: 2a e4        	sd	a0, 8(sp)
800017fc: 41 01        	addi	sp, sp, 16
800017fe: 82 80        	ret

0000000080001800 <core::ptr::non_null::NonNull<T>::as_ptr::h3d09fa3c16e8e971>:
80001800: 41 11        	addi	sp, sp, -16
80001802: 2a e4        	sd	a0, 8(sp)
80001804: 41 01        	addi	sp, sp, 16
80001806: 82 80        	ret

0000000080001808 <qor_os::mem::pages::PageData::init::hfd028aecb77d80c8>:
80001808: 51 71        	addi	sp, sp, -240
8000180a: 86 f5        	sd	ra, 232(sp)
8000180c: aa e5        	sd	a0, 200(sp)
8000180e: ae e9        	sd	a1, 208(sp)
80001810: 2a 86        	add	a2, zero, a0
80001812: aa ed        	sd	a0, 216(sp)
80001814: 81 46        	mv	a3, zero
80001816: ae e0        	sd	a1, 64(sp)
80001818: 2a fc        	sd	a0, 56(sp)
8000181a: 32 f8        	sd	a2, 48(sp)
8000181c: 63 89 d5 00  	beq	a1, a3, 18 <.LBB0_12>
80001820: 09 a0        	j	2 <qor_os::mem::pages::PageData::init::hfd028aecb77d80c8+0x1a>
80001822: 97 00 00 00  	auipc	ra, 0
80001826: e7 80 60 79  	jalr	1942(ra)
8000182a: 2a f4        	sd	a0, 40(sp)
8000182c: 05 a0        	j	32 <.LBB0_13+0x16>

000000008000182e <.LBB0_12>:
8000182e: 17 55 00 00  	auipc	a0, 5
80001832: 13 05 35 f8  	addi	a0, a0, -125

0000000080001836 <.LBB0_13>:
80001836: 17 56 00 00  	auipc	a2, 5
8000183a: 13 06 26 fa  	addi	a2, a2, -94
8000183e: 93 05 70 02  	addi	a1, zero, 39
80001842: 97 40 00 00  	auipc	ra, 4
80001846: e7 80 80 ad  	jalr	-1320(ra)
8000184a: 00 00        	unimp	
8000184c: 42 75        	ld	a0, 48(sp)
8000184e: aa e4        	sd	a0, 72(sp)
80001850: a2 75        	ld	a1, 40(sp)
80001852: ae e8        	sd	a1, 80(sp)
80001854: 05 46        	addi	a2, zero, 1
80001856: b2 ec        	sd	a2, 88(sp)
80001858: 23 00 c1 06  	sb	a2, 96(sp)
8000185c: 86 66        	ld	a3, 64(sp)
8000185e: 63 64 d6 00  	bltu	a2, a3, 8 <.LBB0_13+0x30>
80001862: 09 a0        	j	2 <.LBB0_13+0x2e>
80001864: a9 a8        	j	90 <.LBB0_13+0x88>
80001866: 05 65        	lui	a0, 1
80001868: e2 75        	ld	a1, 56(sp)
8000186a: 2e 95        	add	a0, a0, a1
8000186c: 2a f0        	sd	a0, 32(sp)
8000186e: 63 68 b5 06  	bltu	a0, a1, 112 <.LBB0_14>
80001872: 09 a0        	j	2 <.LBB0_13+0x3e>
80001874: 02 75        	ld	a0, 32(sp)
80001876: 82 75        	ld	a1, 32(sp)
80001878: ae f1        	sd	a1, 224(sp)
8000187a: 2a ec        	sd	a0, 24(sp)
8000187c: 97 00 00 00  	auipc	ra, 0
80001880: e7 80 c0 73  	jalr	1852(ra)
80001884: 2a e8        	sd	a0, 16(sp)
80001886: 09 a0        	j	2 <.LBB0_13+0x52>
80001888: 06 65        	ld	a0, 64(sp)
8000188a: 93 05 f5 ff  	addi	a1, a0, -1
8000188e: 2e e4        	sd	a1, 8(sp)
80001890: 63 65 b5 06  	bltu	a0, a1, 106 <.LBB0_16>
80001894: 09 a0        	j	2 <.LBB0_13+0x60>
80001896: 62 65        	ld	a0, 24(sp)
80001898: aa f4        	sd	a0, 104(sp)
8000189a: c2 65        	ld	a1, 16(sp)
8000189c: ae f8        	sd	a1, 112(sp)
8000189e: 22 66        	ld	a2, 8(sp)
800018a0: b2 fc        	sd	a2, 120(sp)
800018a2: 81 46        	mv	a3, zero
800018a4: 23 00 d1 08  	sb	a3, 128(sp)
800018a8: aa e8        	sd	a0, 80(sp)
800018aa: 2a e5        	sd	a0, 136(sp)
800018ac: 2e e9        	sd	a1, 144(sp)
800018ae: 32 ed        	sd	a2, 152(sp)
800018b0: 8a 66        	ld	a3, 128(sp)
800018b2: 36 f1        	sd	a3, 160(sp)
800018b4: 14 ed        	sd	a3, 24(a0)
800018b6: 10 e9        	sd	a2, 16(a0)
800018b8: 0c e5        	sd	a1, 8(a0)
800018ba: 08 e1        	sd	a0, 0(a0)
800018bc: 09 a0        	j	2 <.LBB0_13+0x88>
800018be: 06 75        	ld	a0, 96(sp)
800018c0: aa e1        	sd	a0, 192(sp)
800018c2: e6 65        	ld	a1, 88(sp)
800018c4: 2e fd        	sd	a1, 184(sp)
800018c6: 46 66        	ld	a2, 80(sp)
800018c8: 32 f9        	sd	a2, 176(sp)
800018ca: a6 66        	ld	a3, 72(sp)
800018cc: 36 f5        	sd	a3, 168(sp)
800018ce: 42 77        	ld	a4, 48(sp)
800018d0: 08 ef        	sd	a0, 24(a4)
800018d2: 0c eb        	sd	a1, 16(a4)
800018d4: 10 e7        	sd	a2, 8(a4)
800018d6: 14 e3        	sd	a3, 0(a4)
800018d8: ae 70        	ld	ra, 232(sp)
800018da: 6d 61        	addi	sp, sp, 240
800018dc: 82 80        	ret

00000000800018de <.LBB0_14>:
800018de: 17 55 00 00  	auipc	a0, 5
800018e2: 13 05 25 e7  	addi	a0, a0, -398

00000000800018e6 <.LBB0_15>:
800018e6: 17 56 00 00  	auipc	a2, 5
800018ea: 13 06 a6 e4  	addi	a2, a2, -438
800018ee: f1 45        	addi	a1, zero, 28
800018f0: 97 40 00 00  	auipc	ra, 4
800018f4: e7 80 a0 a2  	jalr	-1494(ra)
800018f8: 00 00        	unimp	

00000000800018fa <.LBB0_16>:
800018fa: 17 55 00 00  	auipc	a0, 5
800018fe: 13 05 65 e9  	addi	a0, a0, -362

0000000080001902 <.LBB0_17>:
80001902: 17 56 00 00  	auipc	a2, 5
80001906: 13 06 e6 e6  	addi	a2, a2, -402
8000190a: 93 05 10 02  	addi	a1, zero, 33
8000190e: 97 40 00 00  	auipc	ra, 4
80001912: e7 80 c0 a0  	jalr	-1524(ra)
80001916: 00 00        	unimp	

0000000080001918 <qor_os::mem::pages::PageData::init_not_head::h17d2a47b02051541>:
80001918: 19 71        	addi	sp, sp, -128
8000191a: aa f0        	sd	a0, 96(sp)
8000191c: ae f4        	sd	a1, 104(sp)
8000191e: b2 f8        	sd	a2, 112(sp)
80001920: aa 86        	add	a3, zero, a0
80001922: aa fc        	sd	a0, 120(sp)
80001924: 01 45        	mv	a0, zero
80001926: 32 ec        	sd	a2, 24(sp)
80001928: 2e e8        	sd	a1, 16(sp)
8000192a: 36 e4        	sd	a3, 8(sp)
8000192c: 63 87 a5 02  	beq	a1, a0, 46 <.LBB1_3>
80001930: 09 a0        	j	2 <qor_os::mem::pages::PageData::init_not_head::h17d2a47b02051541+0x1a>
80001932: 22 65        	ld	a0, 8(sp)
80001934: 2a f0        	sd	a0, 32(sp)
80001936: e2 65        	ld	a1, 24(sp)
80001938: 2e f4        	sd	a1, 40(sp)
8000193a: 42 66        	ld	a2, 16(sp)
8000193c: 32 f8        	sd	a2, 48(sp)
8000193e: 81 46        	mv	a3, zero
80001940: 23 0c d1 02  	sb	a3, 56(sp)
80001944: aa e0        	sd	a0, 64(sp)
80001946: ae e4        	sd	a1, 72(sp)
80001948: b2 e8        	sd	a2, 80(sp)
8000194a: e2 76        	ld	a3, 56(sp)
8000194c: b6 ec        	sd	a3, 88(sp)
8000194e: 14 ed        	sd	a3, 24(a0)
80001950: 10 e9        	sd	a2, 16(a0)
80001952: 0c e5        	sd	a1, 8(a0)
80001954: 08 e1        	sd	a0, 0(a0)
80001956: 09 61        	addi	sp, sp, 128
80001958: 82 80        	ret

000000008000195a <.LBB1_3>:
8000195a: 17 55 00 00  	auipc	a0, 5
8000195e: 13 05 75 e5  	addi	a0, a0, -425

0000000080001962 <.LBB1_4>:
80001962: 17 56 00 00  	auipc	a2, 5
80001966: 13 06 e6 e8  	addi	a2, a2, -370
8000196a: 93 05 70 02  	addi	a1, zero, 39
8000196e: 97 40 00 00  	auipc	ra, 4
80001972: e7 80 c0 9a  	jalr	-1620(ra)
80001976: 00 00        	unimp	

0000000080001978 <qor_os::mem::pages::PageData::get_number_pages::h2f10df107dc5f99b>:
80001978: 59 71        	addi	sp, sp, -112
8000197a: 86 f4        	sd	ra, 104(sp)
8000197c: aa ec        	sd	a0, 88(sp)
8000197e: 0c 65        	ld	a1, 8(a0)
80001980: 2a f8        	sd	a0, 48(sp)
80001982: 2e 85        	add	a0, zero, a1
80001984: 97 10 00 00  	auipc	ra, 1
80001988: e7 80 20 fb  	jalr	-78(ra)
8000198c: aa e0        	sd	a0, 64(sp)
8000198e: 09 a0        	j	2 <qor_os::mem::pages::PageData::get_number_pages::h2f10df107dc5f99b+0x18>
80001990: 06 65        	ld	a0, 64(sp)
80001992: 81 45        	mv	a1, zero
80001994: 63 1b b5 00  	bne	a0, a1, 22 <qor_os::mem::pages::PageData::get_number_pages::h2f10df107dc5f99b+0x32>
80001998: 09 a0        	j	2 <qor_os::mem::pages::PageData::get_number_pages::h2f10df107dc5f99b+0x22>
8000199a: 42 75        	ld	a0, 48(sp)
8000199c: 0c 69        	ld	a1, 16(a0)
8000199e: 03 46 85 01  	lbu	a2, 24(a0)
800019a2: 05 8a        	andi	a2, a2, 1
800019a4: 2e f4        	sd	a1, 40(sp)
800019a6: 39 ee        	bnez	a2, 94 <qor_os::mem::pages::PageData::get_number_pages::h2f10df107dc5f99b+0x8c>
800019a8: 99 a8        	j	86 <qor_os::mem::pages::PageData::get_number_pages::h2f10df107dc5f99b+0x86>
800019aa: 06 65        	ld	a0, 64(sp)
800019ac: aa f0        	sd	a0, 96(sp)
800019ae: c2 75        	ld	a1, 48(sp)
800019b0: 90 69        	ld	a2, 16(a1)
800019b2: 32 f0        	sd	a2, 32(sp)
800019b4: 97 00 00 00  	auipc	ra, 0
800019b8: e7 80 40 fc  	jalr	-60(ra)
800019bc: 2a ec        	sd	a0, 24(sp)
800019be: 09 a0        	j	2 <qor_os::mem::pages::PageData::get_number_pages::h2f10df107dc5f99b+0x48>
800019c0: 02 75        	ld	a0, 32(sp)
800019c2: e2 65        	ld	a1, 24(sp)
800019c4: 33 06 b5 00  	add	a2, a0, a1
800019c8: 32 e8        	sd	a2, 16(sp)
800019ca: 63 6e a6 06  	bltu	a2, a0, 124 <.LBB2_20>
800019ce: 09 a0        	j	2 <qor_os::mem::pages::PageData::get_number_pages::h2f10df107dc5f99b+0x58>
800019d0: 42 75        	ld	a0, 48(sp)
800019d2: 83 45 85 01  	lbu	a1, 24(a0)
800019d6: 85 89        	andi	a1, a1, 1
800019d8: 89 e5        	bnez	a1, 10 <qor_os::mem::pages::PageData::get_number_pages::h2f10df107dc5f99b+0x6a>
800019da: 09 a0        	j	2 <qor_os::mem::pages::PageData::get_number_pages::h2f10df107dc5f99b+0x64>
800019dc: 01 45        	mv	a0, zero
800019de: aa e4        	sd	a0, 72(sp)
800019e0: 21 a0        	j	8 <qor_os::mem::pages::PageData::get_number_pages::h2f10df107dc5f99b+0x70>
800019e2: 05 45        	addi	a0, zero, 1
800019e4: aa e4        	sd	a0, 72(sp)
800019e6: 09 a0        	j	2 <qor_os::mem::pages::PageData::get_number_pages::h2f10df107dc5f99b+0x70>
800019e8: 26 65        	ld	a0, 72(sp)
800019ea: c2 65        	ld	a1, 16(sp)
800019ec: 33 85 a5 40  	sub	a0, a1, a0
800019f0: 2a e4        	sd	a0, 8(sp)
800019f2: 63 e8 a5 06  	bltu	a1, a0, 112 <.LBB2_22>
800019f6: 09 a0        	j	2 <qor_os::mem::pages::PageData::get_number_pages::h2f10df107dc5f99b+0x80>
800019f8: 22 65        	ld	a0, 8(sp)
800019fa: 2a fc        	sd	a0, 56(sp)
800019fc: 15 a0        	j	36 <qor_os::mem::pages::PageData::get_number_pages::h2f10df107dc5f99b+0xa8>
800019fe: 01 45        	mv	a0, zero
80001a00: aa e8        	sd	a0, 80(sp)
80001a02: 21 a0        	j	8 <qor_os::mem::pages::PageData::get_number_pages::h2f10df107dc5f99b+0x92>
80001a04: 05 45        	addi	a0, zero, 1
80001a06: aa e8        	sd	a0, 80(sp)
80001a08: 09 a0        	j	2 <qor_os::mem::pages::PageData::get_number_pages::h2f10df107dc5f99b+0x92>
80001a0a: 46 65        	ld	a0, 80(sp)
80001a0c: a2 75        	ld	a1, 40(sp)
80001a0e: 33 85 a5 40  	sub	a0, a1, a0
80001a12: 2a e0        	sd	a0, 0(sp)
80001a14: 63 ea a5 00  	bltu	a1, a0, 20 <.LBB2_18>
80001a18: 09 a0        	j	2 <qor_os::mem::pages::PageData::get_number_pages::h2f10df107dc5f99b+0xa2>
80001a1a: 02 65        	ld	a0, 0(sp)
80001a1c: 2a fc        	sd	a0, 56(sp)
80001a1e: 09 a0        	j	2 <qor_os::mem::pages::PageData::get_number_pages::h2f10df107dc5f99b+0xa8>
80001a20: 62 75        	ld	a0, 56(sp)
80001a22: a6 70        	ld	ra, 104(sp)
80001a24: 65 61        	addi	sp, sp, 112
80001a26: 82 80        	ret

0000000080001a28 <.LBB2_18>:
80001a28: 17 55 00 00  	auipc	a0, 5
80001a2c: 13 05 85 d6  	addi	a0, a0, -664

0000000080001a30 <.LBB2_19>:
80001a30: 17 56 00 00  	auipc	a2, 5
80001a34: 13 06 86 dd  	addi	a2, a2, -552
80001a38: 93 05 10 02  	addi	a1, zero, 33
80001a3c: 97 40 00 00  	auipc	ra, 4
80001a40: e7 80 e0 8d  	jalr	-1826(ra)
80001a44: 00 00        	unimp	

0000000080001a46 <.LBB2_20>:
80001a46: 17 55 00 00  	auipc	a0, 5
80001a4a: 13 05 a5 d0  	addi	a0, a0, -758

0000000080001a4e <.LBB2_21>:
80001a4e: 17 56 00 00  	auipc	a2, 5
80001a52: 13 06 26 dd  	addi	a2, a2, -558
80001a56: f1 45        	addi	a1, zero, 28
80001a58: 97 40 00 00  	auipc	ra, 4
80001a5c: e7 80 20 8c  	jalr	-1854(ra)
80001a60: 00 00        	unimp	

0000000080001a62 <.LBB2_22>:
80001a62: 17 55 00 00  	auipc	a0, 5
80001a66: 13 05 e5 d2  	addi	a0, a0, -722

0000000080001a6a <.LBB2_23>:
80001a6a: 17 56 00 00  	auipc	a2, 5
80001a6e: 13 06 66 db  	addi	a2, a2, -586
80001a72: 93 05 10 02  	addi	a1, zero, 33
80001a76: 97 40 00 00  	auipc	ra, 4
80001a7a: e7 80 40 8a  	jalr	-1884(ra)
80001a7e: 00 00        	unimp	

0000000080001a80 <qor_os::mem::pages::PageData::get_current_pointer::hb0c6396ef67f08fc>:
80001a80: 41 11        	addi	sp, sp, -16
80001a82: 2a e4        	sd	a0, 8(sp)
80001a84: 08 61        	ld	a0, 0(a0)
80001a86: 41 01        	addi	sp, sp, 16
80001a88: 82 80        	ret

0000000080001a8a <qor_os::mem::pages::PageData::get_next_pointer::h82b4067944296821>:
80001a8a: 41 11        	addi	sp, sp, -16
80001a8c: 2a e4        	sd	a0, 8(sp)
80001a8e: 08 65        	ld	a0, 8(a0)
80001a90: 41 01        	addi	sp, sp, 16
80001a92: 82 80        	ret

0000000080001a94 <qor_os::mem::pages::PageData::set_next::h245667faf83f680f>:
80001a94: 41 11        	addi	sp, sp, -16
80001a96: 2a e0        	sd	a0, 0(sp)
80001a98: 2e e4        	sd	a1, 8(sp)
80001a9a: 0c e5        	sd	a1, 8(a0)
80001a9c: 41 01        	addi	sp, sp, 16
80001a9e: 82 80        	ret

0000000080001aa0 <lazy_static::lazy::Lazy<T>::get::hb561973631e423c3>:
80001aa0: 01 11        	addi	sp, sp, -32
80001aa2: 06 ec        	sd	ra, 24(sp)
80001aa4: 2a e4        	sd	a0, 8(sp)
80001aa6: 97 10 00 00  	auipc	ra, 1
80001aaa: e7 80 00 f5  	jalr	-176(ra)
80001aae: 2a e0        	sd	a0, 0(sp)
80001ab0: 09 a0        	j	2 <lazy_static::lazy::Lazy<T>::get::hb561973631e423c3+0x12>
80001ab2: 02 65        	ld	a0, 0(sp)
80001ab4: e2 60        	ld	ra, 24(sp)
80001ab6: 05 61        	addi	sp, sp, 32
80001ab8: 82 80        	ret

0000000080001aba <lazy_static::lazy::Lazy<T>::get::hebe16b0f06ccd207>:
80001aba: 01 11        	addi	sp, sp, -32
80001abc: 06 ec        	sd	ra, 24(sp)
80001abe: 2a e4        	sd	a0, 8(sp)
80001ac0: 97 10 00 00  	auipc	ra, 1
80001ac4: e7 80 60 0e  	jalr	230(ra)
80001ac8: 2a e0        	sd	a0, 0(sp)
80001aca: 09 a0        	j	2 <lazy_static::lazy::Lazy<T>::get::hebe16b0f06ccd207+0x12>
80001acc: 02 65        	ld	a0, 0(sp)
80001ace: e2 60        	ld	ra, 24(sp)
80001ad0: 05 61        	addi	sp, sp, 32
80001ad2: 82 80        	ret

0000000080001ad4 <core::str::converts::from_utf8_unchecked_mut::hc41c8599e29f1dcd>:
80001ad4: 41 11        	addi	sp, sp, -16
80001ad6: 2a e0        	sd	a0, 0(sp)
80001ad8: 2e e4        	sd	a1, 8(sp)
80001ada: 41 01        	addi	sp, sp, 16
80001adc: 82 80        	ret

0000000080001ade <core::mem::swap::h1a1cdaed667db559>:
80001ade: 01 11        	addi	sp, sp, -32
80001ae0: 06 ec        	sd	ra, 24(sp)
80001ae2: 2a e4        	sd	a0, 8(sp)
80001ae4: 2e e8        	sd	a1, 16(sp)
80001ae6: 97 00 00 00  	auipc	ra, 0
80001aea: e7 80 a0 39  	jalr	922(ra)
80001aee: 09 a0        	j	2 <core::mem::swap::h1a1cdaed667db559+0x12>
80001af0: e2 60        	ld	ra, 24(sp)
80001af2: 05 61        	addi	sp, sp, 32
80001af4: 82 80        	ret

0000000080001af6 <core::mem::swap::hcd449973a5d6698a>:
80001af6: 01 11        	addi	sp, sp, -32
80001af8: 06 ec        	sd	ra, 24(sp)
80001afa: 2a e4        	sd	a0, 8(sp)
80001afc: 2e e8        	sd	a1, 16(sp)
80001afe: 97 00 00 00  	auipc	ra, 0
80001b02: e7 80 40 31  	jalr	788(ra)
80001b06: 09 a0        	j	2 <core::mem::swap::hcd449973a5d6698a+0x12>
80001b08: e2 60        	ld	ra, 24(sp)
80001b0a: 05 61        	addi	sp, sp, 32
80001b0c: 82 80        	ret

0000000080001b0e <core::mem::replace::ha9da5beb5454198f>:
80001b0e: 01 11        	addi	sp, sp, -32
80001b10: 06 ec        	sd	ra, 24(sp)
80001b12: 2e e4        	sd	a1, 8(sp)
80001b14: 2a e8        	sd	a0, 16(sp)
80001b16: 2c 00        	addi	a1, sp, 8
80001b18: 97 00 00 00  	auipc	ra, 0
80001b1c: e7 80 60 fc  	jalr	-58(ra)
80001b20: 09 a0        	j	2 <core::mem::replace::ha9da5beb5454198f+0x14>
80001b22: 22 65        	ld	a0, 8(sp)
80001b24: e2 60        	ld	ra, 24(sp)
80001b26: 05 61        	addi	sp, sp, 32
80001b28: 82 80        	ret

0000000080001b2a <core::mem::size_of::h038c57ee1b2c0602>:
80001b2a: 05 45        	addi	a0, zero, 1
80001b2c: 82 80        	ret

0000000080001b2e <core::mem::size_of::h4d33288ac84d02ee>:
80001b2e: 21 45        	addi	a0, zero, 8
80001b30: 82 80        	ret

0000000080001b32 <core::mem::size_of::h60415dfc7a003324>:
80001b32: 21 45        	addi	a0, zero, 8
80001b34: 82 80        	ret

0000000080001b36 <core::mem::size_of::hbb13f5c32e377443>:
80001b36: 13 05 00 02  	addi	a0, zero, 32
80001b3a: 82 80        	ret

0000000080001b3c <core::mem::size_of::hd3ef6f16f21eed5f>:
80001b3c: 21 45        	addi	a0, zero, 8
80001b3e: 82 80        	ret

0000000080001b40 <core::ptr::mut_ptr::<impl *mut T>::add::hbe86e0f5566423a3>:
80001b40: 01 11        	addi	sp, sp, -32
80001b42: 06 ec        	sd	ra, 24(sp)
80001b44: 2a e4        	sd	a0, 8(sp)
80001b46: 2e e8        	sd	a1, 16(sp)
80001b48: 97 00 00 00  	auipc	ra, 0
80001b4c: e7 80 00 07  	jalr	112(ra)
80001b50: 2a e0        	sd	a0, 0(sp)
80001b52: 09 a0        	j	2 <core::ptr::mut_ptr::<impl *mut T>::add::hbe86e0f5566423a3+0x14>
80001b54: 02 65        	ld	a0, 0(sp)
80001b56: e2 60        	ld	ra, 24(sp)
80001b58: 05 61        	addi	sp, sp, 32
80001b5a: 82 80        	ret

0000000080001b5c <core::ptr::mut_ptr::<impl *mut T>::as_mut::hcf30877550c56ef9>:
80001b5c: 79 71        	addi	sp, sp, -48
80001b5e: 06 f4        	sd	ra, 40(sp)
80001b60: 2a f0        	sd	a0, 32(sp)
80001b62: 2a e8        	sd	a0, 16(sp)
80001b64: 97 00 00 00  	auipc	ra, 0
80001b68: e7 80 a0 06  	jalr	106(ra)
80001b6c: 2a e4        	sd	a0, 8(sp)
80001b6e: 09 a0        	j	2 <core::ptr::mut_ptr::<impl *mut T>::as_mut::hcf30877550c56ef9+0x14>
80001b70: 22 65        	ld	a0, 8(sp)
80001b72: 09 e5        	bnez	a0, 10 <core::ptr::mut_ptr::<impl *mut T>::as_mut::hcf30877550c56ef9+0x20>
80001b74: 09 a0        	j	2 <core::ptr::mut_ptr::<impl *mut T>::as_mut::hcf30877550c56ef9+0x1a>
80001b76: 42 65        	ld	a0, 16(sp)
80001b78: 2a ec        	sd	a0, 24(sp)
80001b7a: 21 a0        	j	8 <core::ptr::mut_ptr::<impl *mut T>::as_mut::hcf30877550c56ef9+0x26>
80001b7c: 01 45        	mv	a0, zero
80001b7e: 2a ec        	sd	a0, 24(sp)
80001b80: 09 a0        	j	2 <core::ptr::mut_ptr::<impl *mut T>::as_mut::hcf30877550c56ef9+0x26>
80001b82: 62 65        	ld	a0, 24(sp)
80001b84: a2 70        	ld	ra, 40(sp)
80001b86: 45 61        	addi	sp, sp, 48
80001b88: 82 80        	ret

0000000080001b8a <core::ptr::mut_ptr::<impl *mut T>::as_mut::hd64e97742b2db1f9>:
80001b8a: 79 71        	addi	sp, sp, -48
80001b8c: 06 f4        	sd	ra, 40(sp)
80001b8e: 2a f0        	sd	a0, 32(sp)
80001b90: 2a e8        	sd	a0, 16(sp)
80001b92: 97 00 00 00  	auipc	ra, 0
80001b96: e7 80 80 06  	jalr	104(ra)
80001b9a: 2a e4        	sd	a0, 8(sp)
80001b9c: 09 a0        	j	2 <core::ptr::mut_ptr::<impl *mut T>::as_mut::hd64e97742b2db1f9+0x14>
80001b9e: 22 65        	ld	a0, 8(sp)
80001ba0: 09 e5        	bnez	a0, 10 <core::ptr::mut_ptr::<impl *mut T>::as_mut::hd64e97742b2db1f9+0x20>
80001ba2: 09 a0        	j	2 <core::ptr::mut_ptr::<impl *mut T>::as_mut::hd64e97742b2db1f9+0x1a>
80001ba4: 42 65        	ld	a0, 16(sp)
80001ba6: 2a ec        	sd	a0, 24(sp)
80001ba8: 21 a0        	j	8 <core::ptr::mut_ptr::<impl *mut T>::as_mut::hd64e97742b2db1f9+0x26>
80001baa: 01 45        	mv	a0, zero
80001bac: 2a ec        	sd	a0, 24(sp)
80001bae: 09 a0        	j	2 <core::ptr::mut_ptr::<impl *mut T>::as_mut::hd64e97742b2db1f9+0x26>
80001bb0: 62 65        	ld	a0, 24(sp)
80001bb2: a2 70        	ld	ra, 40(sp)
80001bb4: 45 61        	addi	sp, sp, 48
80001bb6: 82 80        	ret

0000000080001bb8 <core::ptr::mut_ptr::<impl *mut T>::offset::hd87520b2ccb461b8>:
80001bb8: 01 11        	addi	sp, sp, -32
80001bba: 2a e4        	sd	a0, 8(sp)
80001bbc: 2e e8        	sd	a1, 16(sp)
80001bbe: 8e 05        	slli	a1, a1, 3
80001bc0: 2e 95        	add	a0, a0, a1
80001bc2: 2a ec        	sd	a0, 24(sp)
80001bc4: 2a e0        	sd	a0, 0(sp)
80001bc6: 09 a0        	j	2 <core::ptr::mut_ptr::<impl *mut T>::offset::hd87520b2ccb461b8+0x10>
80001bc8: 02 65        	ld	a0, 0(sp)
80001bca: 05 61        	addi	sp, sp, 32
80001bcc: 82 80        	ret

0000000080001bce <core::ptr::mut_ptr::<impl *mut T>::is_null::h33300686c4362a48>:
80001bce: 79 71        	addi	sp, sp, -48
80001bd0: 06 f4        	sd	ra, 40(sp)
80001bd2: 2a f0        	sd	a0, 32(sp)
80001bd4: 2a ec        	sd	a0, 24(sp)
80001bd6: 97 00 00 00  	auipc	ra, 0
80001bda: e7 80 60 3e  	jalr	998(ra)
80001bde: 2a e8        	sd	a0, 16(sp)
80001be0: 09 a0        	j	2 <core::ptr::mut_ptr::<impl *mut T>::is_null::h33300686c4362a48+0x14>
80001be2: 62 65        	ld	a0, 24(sp)
80001be4: c2 65        	ld	a1, 16(sp)
80001be6: 97 f0 ff ff  	auipc	ra, 1048575
80001bea: e7 80 a0 ee  	jalr	-278(ra)
80001bee: 2a e4        	sd	a0, 8(sp)
80001bf0: 09 a0        	j	2 <core::ptr::mut_ptr::<impl *mut T>::is_null::h33300686c4362a48+0x24>
80001bf2: 22 65        	ld	a0, 8(sp)
80001bf4: a2 70        	ld	ra, 40(sp)
80001bf6: 45 61        	addi	sp, sp, 48
80001bf8: 82 80        	ret

0000000080001bfa <core::ptr::mut_ptr::<impl *mut T>::is_null::ha91b49e78c3c139a>:
80001bfa: 79 71        	addi	sp, sp, -48
80001bfc: 06 f4        	sd	ra, 40(sp)
80001bfe: 2a f0        	sd	a0, 32(sp)
80001c00: 2a ec        	sd	a0, 24(sp)
80001c02: 97 00 00 00  	auipc	ra, 0
80001c06: e7 80 a0 3b  	jalr	954(ra)
80001c0a: 2a e8        	sd	a0, 16(sp)
80001c0c: 09 a0        	j	2 <core::ptr::mut_ptr::<impl *mut T>::is_null::ha91b49e78c3c139a+0x14>
80001c0e: 62 65        	ld	a0, 24(sp)
80001c10: c2 65        	ld	a1, 16(sp)
80001c12: 97 f0 ff ff  	auipc	ra, 1048575
80001c16: e7 80 e0 eb  	jalr	-322(ra)
80001c1a: 2a e4        	sd	a0, 8(sp)
80001c1c: 09 a0        	j	2 <core::ptr::mut_ptr::<impl *mut T>::is_null::ha91b49e78c3c139a+0x24>
80001c1e: 22 65        	ld	a0, 8(sp)
80001c20: a2 70        	ld	ra, 40(sp)
80001c22: 45 61        	addi	sp, sp, 48
80001c24: 82 80        	ret

0000000080001c26 <core::ptr::const_ptr::<impl *const T>::add::h93523ba5a00e59e0>:
80001c26: 01 11        	addi	sp, sp, -32
80001c28: 06 ec        	sd	ra, 24(sp)
80001c2a: 2a e4        	sd	a0, 8(sp)
80001c2c: 2e e8        	sd	a1, 16(sp)
80001c2e: 97 00 00 00  	auipc	ra, 0
80001c32: e7 80 20 04  	jalr	66(ra)
80001c36: 2a e0        	sd	a0, 0(sp)
80001c38: 09 a0        	j	2 <core::ptr::const_ptr::<impl *const T>::add::h93523ba5a00e59e0+0x14>
80001c3a: 02 65        	ld	a0, 0(sp)
80001c3c: e2 60        	ld	ra, 24(sp)
80001c3e: 05 61        	addi	sp, sp, 32
80001c40: 82 80        	ret

0000000080001c42 <core::ptr::const_ptr::<impl *const T>::as_ref::h122315fe5d5296c5>:
80001c42: 79 71        	addi	sp, sp, -48
80001c44: 06 f4        	sd	ra, 40(sp)
80001c46: 2a f0        	sd	a0, 32(sp)
80001c48: 2a e8        	sd	a0, 16(sp)
80001c4a: 97 00 00 00  	auipc	ra, 0
80001c4e: e7 80 c0 03  	jalr	60(ra)
80001c52: 2a e4        	sd	a0, 8(sp)
80001c54: 09 a0        	j	2 <core::ptr::const_ptr::<impl *const T>::as_ref::h122315fe5d5296c5+0x14>
80001c56: 22 65        	ld	a0, 8(sp)
80001c58: 09 e5        	bnez	a0, 10 <core::ptr::const_ptr::<impl *const T>::as_ref::h122315fe5d5296c5+0x20>
80001c5a: 09 a0        	j	2 <core::ptr::const_ptr::<impl *const T>::as_ref::h122315fe5d5296c5+0x1a>
80001c5c: 42 65        	ld	a0, 16(sp)
80001c5e: 2a ec        	sd	a0, 24(sp)
80001c60: 21 a0        	j	8 <core::ptr::const_ptr::<impl *const T>::as_ref::h122315fe5d5296c5+0x26>
80001c62: 01 45        	mv	a0, zero
80001c64: 2a ec        	sd	a0, 24(sp)
80001c66: 09 a0        	j	2 <core::ptr::const_ptr::<impl *const T>::as_ref::h122315fe5d5296c5+0x26>
80001c68: 62 65        	ld	a0, 24(sp)
80001c6a: a2 70        	ld	ra, 40(sp)
80001c6c: 45 61        	addi	sp, sp, 48
80001c6e: 82 80        	ret

0000000080001c70 <core::ptr::const_ptr::<impl *const T>::offset::hee2548dd90abe947>:
80001c70: 01 11        	addi	sp, sp, -32
80001c72: 2a e4        	sd	a0, 8(sp)
80001c74: 2e e8        	sd	a1, 16(sp)
80001c76: 8e 05        	slli	a1, a1, 3
80001c78: 2e 95        	add	a0, a0, a1
80001c7a: 2a ec        	sd	a0, 24(sp)
80001c7c: 2a e0        	sd	a0, 0(sp)
80001c7e: 09 a0        	j	2 <core::ptr::const_ptr::<impl *const T>::offset::hee2548dd90abe947+0x10>
80001c80: 02 65        	ld	a0, 0(sp)
80001c82: 05 61        	addi	sp, sp, 32
80001c84: 82 80        	ret

0000000080001c86 <core::ptr::const_ptr::<impl *const T>::is_null::h94f01d5579d3242c>:
80001c86: 79 71        	addi	sp, sp, -48
80001c88: 06 f4        	sd	ra, 40(sp)
80001c8a: 2a f0        	sd	a0, 32(sp)
80001c8c: 2a ec        	sd	a0, 24(sp)
80001c8e: 97 00 00 00  	auipc	ra, 0
80001c92: e7 80 20 27  	jalr	626(ra)
80001c96: 2a e8        	sd	a0, 16(sp)
80001c98: 09 a0        	j	2 <core::ptr::const_ptr::<impl *const T>::is_null::h94f01d5579d3242c+0x14>
80001c9a: 62 65        	ld	a0, 24(sp)
80001c9c: c2 65        	ld	a1, 16(sp)
80001c9e: 97 f0 ff ff  	auipc	ra, 1048575
80001ca2: e7 80 a0 f4  	jalr	-182(ra)
80001ca6: 2a e4        	sd	a0, 8(sp)
80001ca8: 09 a0        	j	2 <core::ptr::const_ptr::<impl *const T>::is_null::h94f01d5579d3242c+0x24>
80001caa: 22 65        	ld	a0, 8(sp)
80001cac: a2 70        	ld	ra, 40(sp)
80001cae: 45 61        	addi	sp, sp, 48
80001cb0: 82 80        	ret

0000000080001cb2 <core::array::<impl core::ops::index::IndexMut<I> for [T; N]>::index_mut::h659ee0f930a9c8b4>:
80001cb2: 79 71        	addi	sp, sp, -48
80001cb4: 06 f4        	sd	ra, 40(sp)
80001cb6: 2a ec        	sd	a0, 24(sp)
80001cb8: 13 06 00 20  	addi	a2, zero, 512
80001cbc: 2e e8        	sd	a1, 16(sp)
80001cbe: b2 85        	add	a1, zero, a2
80001cc0: 42 66        	ld	a2, 16(sp)
80001cc2: 97 00 00 00  	auipc	ra, 0
80001cc6: e7 80 80 09  	jalr	152(ra)
80001cca: 2a e4        	sd	a0, 8(sp)
80001ccc: 2e e0        	sd	a1, 0(sp)
80001cce: 09 a0        	j	2 <core::array::<impl core::ops::index::IndexMut<I> for [T; N]>::index_mut::h659ee0f930a9c8b4+0x1e>
80001cd0: 22 65        	ld	a0, 8(sp)
80001cd2: 82 65        	ld	a1, 0(sp)
80001cd4: a2 70        	ld	ra, 40(sp)
80001cd6: 45 61        	addi	sp, sp, 48
80001cd8: 82 80        	ret

0000000080001cda <core::array::<impl core::convert::AsMut<[T]> for [T; N]>::as_mut::h6126fd69ed5f7416>:
80001cda: 79 71        	addi	sp, sp, -48
80001cdc: 06 f4        	sd	ra, 40(sp)
80001cde: 2a f0        	sd	a0, 32(sp)

0000000080001ce0 <.LBB11_2>:
80001ce0: 97 55 00 00  	auipc	a1, 5
80001ce4: 93 85 05 be  	addi	a1, a1, -1056
80001ce8: 97 00 00 00  	auipc	ra, 0
80001cec: e7 80 a0 fc  	jalr	-54(ra)
80001cf0: 2a e8        	sd	a0, 16(sp)
80001cf2: 2e e4        	sd	a1, 8(sp)
80001cf4: 09 a0        	j	2 <.LBB11_2+0x16>
80001cf6: 42 65        	ld	a0, 16(sp)
80001cf8: a2 65        	ld	a1, 8(sp)
80001cfa: a2 70        	ld	ra, 40(sp)
80001cfc: 45 61        	addi	sp, sp, 48
80001cfe: 82 80        	ret

0000000080001d00 <core::slice::<impl [T]>::as_mut_ptr::ha1786ec6a9aafa07>:
80001d00: 41 11        	addi	sp, sp, -16
80001d02: 2a e0        	sd	a0, 0(sp)
80001d04: 2e e4        	sd	a1, 8(sp)
80001d06: 41 01        	addi	sp, sp, 16
80001d08: 82 80        	ret

0000000080001d0a <core::slice::<impl [T]>::len::hc12dd5a3b340607c>:
80001d0a: 01 11        	addi	sp, sp, -32
80001d0c: 2a e8        	sd	a0, 16(sp)
80001d0e: 2e ec        	sd	a1, 24(sp)
80001d10: 2a e0        	sd	a0, 0(sp)
80001d12: 2e e4        	sd	a1, 8(sp)
80001d14: 2e 85        	add	a0, zero, a1
80001d16: 05 61        	addi	sp, sp, 32
80001d18: 82 80        	ret

0000000080001d1a <core::slice::<impl [T]>::iter_mut::hbacbddf2f86b4e59>:
80001d1a: 79 71        	addi	sp, sp, -48
80001d1c: 06 f4        	sd	ra, 40(sp)
80001d1e: 2a ec        	sd	a0, 24(sp)
80001d20: 2e f0        	sd	a1, 32(sp)
80001d22: 97 10 00 00  	auipc	ra, 1
80001d26: e7 80 e0 15  	jalr	350(ra)
80001d2a: 2a e8        	sd	a0, 16(sp)
80001d2c: 2e e4        	sd	a1, 8(sp)
80001d2e: 09 a0        	j	2 <core::slice::<impl [T]>::iter_mut::hbacbddf2f86b4e59+0x16>
80001d30: 42 65        	ld	a0, 16(sp)
80001d32: a2 65        	ld	a1, 8(sp)
80001d34: a2 70        	ld	ra, 40(sp)
80001d36: 45 61        	addi	sp, sp, 48
80001d38: 82 80        	ret

0000000080001d3a <core::slice::iter::<impl core::iter::traits::collect::IntoIterator for &mut [T]>::into_iter::h76f6ce8999d49dce>:
80001d3a: 79 71        	addi	sp, sp, -48
80001d3c: 06 f4        	sd	ra, 40(sp)
80001d3e: 2a ec        	sd	a0, 24(sp)
80001d40: 2e f0        	sd	a1, 32(sp)
80001d42: 97 00 00 00  	auipc	ra, 0
80001d46: e7 80 80 fd  	jalr	-40(ra)
80001d4a: 2a e8        	sd	a0, 16(sp)
80001d4c: 2e e4        	sd	a1, 8(sp)
80001d4e: 09 a0        	j	2 <core::slice::iter::<impl core::iter::traits::collect::IntoIterator for &mut [T]>::into_iter::h76f6ce8999d49dce+0x16>
80001d50: 42 65        	ld	a0, 16(sp)
80001d52: a2 65        	ld	a1, 8(sp)
80001d54: a2 70        	ld	ra, 40(sp)
80001d56: 45 61        	addi	sp, sp, 48
80001d58: 82 80        	ret

0000000080001d5a <core::slice::index::<impl core::ops::index::IndexMut<I> for [T]>::index_mut::h2424354e6ed61ef3>:
80001d5a: 79 71        	addi	sp, sp, -48
80001d5c: 06 f4        	sd	ra, 40(sp)
80001d5e: 2a e8        	sd	a0, 16(sp)
80001d60: 2e ec        	sd	a1, 24(sp)
80001d62: 97 f0 ff ff  	auipc	ra, 1048575
80001d66: e7 80 20 25  	jalr	594(ra)
80001d6a: 2a e4        	sd	a0, 8(sp)
80001d6c: 2e e0        	sd	a1, 0(sp)
80001d6e: 09 a0        	j	2 <core::slice::index::<impl core::ops::index::IndexMut<I> for [T]>::index_mut::h2424354e6ed61ef3+0x16>
80001d70: 22 65        	ld	a0, 8(sp)
80001d72: 82 65        	ld	a1, 0(sp)
80001d74: a2 70        	ld	ra, 40(sp)
80001d76: 45 61        	addi	sp, sp, 48
80001d78: 82 80        	ret

0000000080001d7a <core::ptr::write_volatile::h02a471545d02154b>:
80001d7a: 41 11        	addi	sp, sp, -16
80001d7c: 2e 86        	add	a2, zero, a1
80001d7e: 2a e0        	sd	a0, 0(sp)
80001d80: a3 07 b1 00  	sb	a1, 15(sp)
80001d84: 23 00 b5 00  	sb	a1, 0(a0)
80001d88: 09 a0        	j	2 <core::ptr::write_volatile::h02a471545d02154b+0x10>
80001d8a: 41 01        	addi	sp, sp, 16
80001d8c: 82 80        	ret

0000000080001d8e <core::ptr::swap_nonoverlapping::h7e8eda990f38344c>:
80001d8e: 1d 71        	addi	sp, sp, -96
80001d90: 86 ec        	sd	ra, 88(sp)
80001d92: 2a f4        	sd	a0, 40(sp)
80001d94: 2e f8        	sd	a1, 48(sp)
80001d96: 32 fc        	sd	a2, 56(sp)
80001d98: aa 86        	add	a3, zero, a0
80001d9a: aa e0        	sd	a0, 64(sp)
80001d9c: 2e 85        	add	a0, zero, a1
80001d9e: ae e4        	sd	a1, 72(sp)
80001da0: 32 f0        	sd	a2, 32(sp)
80001da2: 36 ec        	sd	a3, 24(sp)
80001da4: 2a e8        	sd	a0, 16(sp)
80001da6: 97 00 00 00  	auipc	ra, 0
80001daa: e7 80 c0 d8  	jalr	-628(ra)
80001dae: 2a e4        	sd	a0, 8(sp)
80001db0: 09 a0        	j	2 <core::ptr::swap_nonoverlapping::h7e8eda990f38344c+0x24>
80001db2: 22 65        	ld	a0, 8(sp)
80001db4: 82 75        	ld	a1, 32(sp)
80001db6: 33 06 b5 02  	<unknown>
80001dba: b2 e8        	sd	a2, 80(sp)
80001dbc: 62 65        	ld	a0, 24(sp)
80001dbe: c2 65        	ld	a1, 16(sp)
80001dc0: 97 e0 ff ff  	auipc	ra, 1048574
80001dc4: e7 80 60 72  	jalr	1830(ra)
80001dc8: 09 a0        	j	2 <core::ptr::swap_nonoverlapping::h7e8eda990f38344c+0x3c>
80001dca: e6 60        	ld	ra, 88(sp)
80001dcc: 25 61        	addi	sp, sp, 96
80001dce: 82 80        	ret

0000000080001dd0 <core::ptr::swap_nonoverlapping::hbfe88f146b956913>:
80001dd0: 1d 71        	addi	sp, sp, -96
80001dd2: 86 ec        	sd	ra, 88(sp)
80001dd4: 2a f4        	sd	a0, 40(sp)
80001dd6: 2e f8        	sd	a1, 48(sp)
80001dd8: 32 fc        	sd	a2, 56(sp)
80001dda: aa 86        	add	a3, zero, a0
80001ddc: aa e0        	sd	a0, 64(sp)
80001dde: 2e 85        	add	a0, zero, a1
80001de0: ae e4        	sd	a1, 72(sp)
80001de2: 32 f0        	sd	a2, 32(sp)
80001de4: 36 ec        	sd	a3, 24(sp)
80001de6: 2a e8        	sd	a0, 16(sp)
80001de8: 97 00 00 00  	auipc	ra, 0
80001dec: e7 80 40 d5  	jalr	-684(ra)
80001df0: 2a e4        	sd	a0, 8(sp)
80001df2: 09 a0        	j	2 <core::ptr::swap_nonoverlapping::hbfe88f146b956913+0x24>
80001df4: 22 65        	ld	a0, 8(sp)
80001df6: 82 75        	ld	a1, 32(sp)
80001df8: 33 06 b5 02  	<unknown>
80001dfc: b2 e8        	sd	a2, 80(sp)
80001dfe: 62 65        	ld	a0, 24(sp)
80001e00: c2 65        	ld	a1, 16(sp)
80001e02: 97 e0 ff ff  	auipc	ra, 1048574
80001e06: e7 80 40 6e  	jalr	1764(ra)
80001e0a: 09 a0        	j	2 <core::ptr::swap_nonoverlapping::hbfe88f146b956913+0x3c>
80001e0c: e6 60        	ld	ra, 88(sp)
80001e0e: 25 61        	addi	sp, sp, 96
80001e10: 82 80        	ret

0000000080001e12 <core::ptr::swap_nonoverlapping_one::h3119c350d67d9295>:
80001e12: 5d 71        	addi	sp, sp, -80
80001e14: 86 e4        	sd	ra, 72(sp)
80001e16: 2a f8        	sd	a0, 48(sp)
80001e18: 2e fc        	sd	a1, 56(sp)
80001e1a: 2e f0        	sd	a1, 32(sp)
80001e1c: 2a ec        	sd	a0, 24(sp)
80001e1e: 97 00 00 00  	auipc	ra, 0
80001e22: e7 80 40 d1  	jalr	-748(ra)
80001e26: 2a e8        	sd	a0, 16(sp)
80001e28: 09 a0        	j	2 <core::ptr::swap_nonoverlapping_one::h3119c350d67d9295+0x18>
80001e2a: 13 05 00 02  	addi	a0, zero, 32
80001e2e: c2 65        	ld	a1, 16(sp)
80001e30: 63 eb a5 00  	bltu	a1, a0, 22 <core::ptr::swap_nonoverlapping_one::h3119c350d67d9295+0x34>
80001e34: 09 a0        	j	2 <core::ptr::swap_nonoverlapping_one::h3119c350d67d9295+0x24>
80001e36: 05 46        	addi	a2, zero, 1
80001e38: 62 65        	ld	a0, 24(sp)
80001e3a: 82 75        	ld	a1, 32(sp)
80001e3c: 97 00 00 00  	auipc	ra, 0
80001e40: e7 80 20 f5  	jalr	-174(ra)
80001e44: 15 a8        	j	52 <core::ptr::swap_nonoverlapping_one::h3119c350d67d9295+0x66>
80001e46: 62 65        	ld	a0, 24(sp)
80001e48: 97 00 00 00  	auipc	ra, 0
80001e4c: e7 80 c0 0b  	jalr	188(ra)
80001e50: aa 85        	add	a1, zero, a0
80001e52: aa e0        	sd	a0, 64(sp)
80001e54: 2e e4        	sd	a1, 8(sp)
80001e56: 09 a0        	j	2 <core::ptr::swap_nonoverlapping_one::h3119c350d67d9295+0x46>
80001e58: 05 46        	addi	a2, zero, 1
80001e5a: 02 75        	ld	a0, 32(sp)
80001e5c: e2 65        	ld	a1, 24(sp)
80001e5e: 97 00 00 00  	auipc	ra, 0
80001e62: e7 80 80 24  	jalr	584(ra)
80001e66: 09 a0        	j	2 <core::ptr::swap_nonoverlapping_one::h3119c350d67d9295+0x56>
80001e68: 02 75        	ld	a0, 32(sp)
80001e6a: a2 65        	ld	a1, 8(sp)
80001e6c: 97 00 00 00  	auipc	ra, 0
80001e70: e7 80 40 13  	jalr	308(ra)
80001e74: 09 a0        	j	2 <core::ptr::swap_nonoverlapping_one::h3119c350d67d9295+0x64>
80001e76: 11 a0        	j	4 <core::ptr::swap_nonoverlapping_one::h3119c350d67d9295+0x68>
80001e78: 09 a0        	j	2 <core::ptr::swap_nonoverlapping_one::h3119c350d67d9295+0x68>
80001e7a: a6 60        	ld	ra, 72(sp)
80001e7c: 61 61        	addi	sp, sp, 80
80001e7e: 82 80        	ret

0000000080001e80 <core::ptr::swap_nonoverlapping_one::h3bb1977966559396>:
80001e80: 5d 71        	addi	sp, sp, -80
80001e82: 86 e4        	sd	ra, 72(sp)
80001e84: 2a f8        	sd	a0, 48(sp)
80001e86: 2e fc        	sd	a1, 56(sp)
80001e88: 2e f0        	sd	a1, 32(sp)
80001e8a: 2a ec        	sd	a0, 24(sp)
80001e8c: 97 00 00 00  	auipc	ra, 0
80001e90: e7 80 00 cb  	jalr	-848(ra)
80001e94: 2a e8        	sd	a0, 16(sp)
80001e96: 09 a0        	j	2 <core::ptr::swap_nonoverlapping_one::h3bb1977966559396+0x18>
80001e98: 13 05 00 02  	addi	a0, zero, 32
80001e9c: c2 65        	ld	a1, 16(sp)
80001e9e: 63 eb a5 00  	bltu	a1, a0, 22 <core::ptr::swap_nonoverlapping_one::h3bb1977966559396+0x34>
80001ea2: 09 a0        	j	2 <core::ptr::swap_nonoverlapping_one::h3bb1977966559396+0x24>
80001ea4: 05 46        	addi	a2, zero, 1
80001ea6: 62 65        	ld	a0, 24(sp)
80001ea8: 82 75        	ld	a1, 32(sp)
80001eaa: 97 00 00 00  	auipc	ra, 0
80001eae: e7 80 60 f2  	jalr	-218(ra)
80001eb2: 15 a8        	j	52 <core::ptr::swap_nonoverlapping_one::h3bb1977966559396+0x66>
80001eb4: 62 65        	ld	a0, 24(sp)
80001eb6: 97 00 00 00  	auipc	ra, 0
80001eba: e7 80 60 09  	jalr	150(ra)
80001ebe: aa 85        	add	a1, zero, a0
80001ec0: aa e0        	sd	a0, 64(sp)
80001ec2: 2e e4        	sd	a1, 8(sp)
80001ec4: 09 a0        	j	2 <core::ptr::swap_nonoverlapping_one::h3bb1977966559396+0x46>
80001ec6: 05 46        	addi	a2, zero, 1
80001ec8: 02 75        	ld	a0, 32(sp)
80001eca: e2 65        	ld	a1, 24(sp)
80001ecc: 97 00 00 00  	auipc	ra, 0
80001ed0: e7 80 c0 1f  	jalr	508(ra)
80001ed4: 09 a0        	j	2 <core::ptr::swap_nonoverlapping_one::h3bb1977966559396+0x56>
80001ed6: 02 75        	ld	a0, 32(sp)
80001ed8: a2 65        	ld	a1, 8(sp)
80001eda: 97 00 00 00  	auipc	ra, 0
80001ede: e7 80 20 0d  	jalr	210(ra)
80001ee2: 09 a0        	j	2 <core::ptr::swap_nonoverlapping_one::h3bb1977966559396+0x64>
80001ee4: 11 a0        	j	4 <core::ptr::swap_nonoverlapping_one::h3bb1977966559396+0x68>
80001ee6: 09 a0        	j	2 <core::ptr::swap_nonoverlapping_one::h3bb1977966559396+0x68>
80001ee8: a6 60        	ld	ra, 72(sp)
80001eea: 61 61        	addi	sp, sp, 80
80001eec: 82 80        	ret

0000000080001eee <core::ptr::slice_from_raw_parts_mut::h4f554862956e8511>:
80001eee: 79 71        	addi	sp, sp, -48
80001ef0: 2a f0        	sd	a0, 32(sp)
80001ef2: 2e f4        	sd	a1, 40(sp)
80001ef4: 2a e8        	sd	a0, 16(sp)
80001ef6: 2e ec        	sd	a1, 24(sp)
80001ef8: 2a e0        	sd	a0, 0(sp)
80001efa: 2e e4        	sd	a1, 8(sp)
80001efc: 45 61        	addi	sp, sp, 48
80001efe: 82 80        	ret

0000000080001f00 <core::ptr::null::ha195dcd826a017f4>:
80001f00: 01 45        	mv	a0, zero
80001f02: 82 80        	ret

0000000080001f04 <core::ptr::read::h43e1035abc1e1948>:
80001f04: 79 71        	addi	sp, sp, -48
80001f06: 06 f4        	sd	ra, 40(sp)
80001f08: 2a f0        	sd	a0, 32(sp)
80001f0a: 2a e8        	sd	a0, 16(sp)
80001f0c: 97 10 00 00  	auipc	ra, 1
80001f10: e7 80 00 2d  	jalr	720(ra)
80001f14: 2a ec        	sd	a0, 24(sp)
80001f16: 09 a0        	j	2 <core::ptr::read::h43e1035abc1e1948+0x14>
80001f18: 28 08        	addi	a0, sp, 24
80001f1a: 97 10 00 00  	auipc	ra, 1
80001f1e: e7 80 60 26  	jalr	614(ra)
80001f22: 2a e4        	sd	a0, 8(sp)
80001f24: 09 a0        	j	2 <core::ptr::read::h43e1035abc1e1948+0x22>
80001f26: 05 46        	addi	a2, zero, 1
80001f28: 42 65        	ld	a0, 16(sp)
80001f2a: a2 65        	ld	a1, 8(sp)
80001f2c: 97 00 00 00  	auipc	ra, 0
80001f30: e7 80 a0 17  	jalr	378(ra)
80001f34: 09 a0        	j	2 <core::ptr::read::h43e1035abc1e1948+0x32>
80001f36: 62 65        	ld	a0, 24(sp)
80001f38: 97 10 00 00  	auipc	ra, 1
80001f3c: e7 80 00 25  	jalr	592(ra)
80001f40: 2a e0        	sd	a0, 0(sp)
80001f42: 09 a0        	j	2 <core::ptr::read::h43e1035abc1e1948+0x40>
80001f44: 02 65        	ld	a0, 0(sp)
80001f46: a2 70        	ld	ra, 40(sp)
80001f48: 45 61        	addi	sp, sp, 48
80001f4a: 82 80        	ret

0000000080001f4c <core::ptr::read::hee90b788a3be7fe2>:
80001f4c: 79 71        	addi	sp, sp, -48
80001f4e: 06 f4        	sd	ra, 40(sp)
80001f50: 2a f0        	sd	a0, 32(sp)
80001f52: 2a e8        	sd	a0, 16(sp)
80001f54: 97 10 00 00  	auipc	ra, 1
80001f58: e7 80 00 28  	jalr	640(ra)
80001f5c: 2a ec        	sd	a0, 24(sp)
80001f5e: 09 a0        	j	2 <core::ptr::read::hee90b788a3be7fe2+0x14>
80001f60: 28 08        	addi	a0, sp, 24
80001f62: 97 10 00 00  	auipc	ra, 1
80001f66: e7 80 60 21  	jalr	534(ra)
80001f6a: 2a e4        	sd	a0, 8(sp)
80001f6c: 09 a0        	j	2 <core::ptr::read::hee90b788a3be7fe2+0x22>
80001f6e: 05 46        	addi	a2, zero, 1
80001f70: 42 65        	ld	a0, 16(sp)
80001f72: a2 65        	ld	a1, 8(sp)
80001f74: 97 00 00 00  	auipc	ra, 0
80001f78: e7 80 40 15  	jalr	340(ra)
80001f7c: 09 a0        	j	2 <core::ptr::read::hee90b788a3be7fe2+0x32>
80001f7e: 62 65        	ld	a0, 24(sp)
80001f80: 97 10 00 00  	auipc	ra, 1
80001f84: e7 80 80 22  	jalr	552(ra)
80001f88: 2a e0        	sd	a0, 0(sp)
80001f8a: 09 a0        	j	2 <core::ptr::read::hee90b788a3be7fe2+0x40>
80001f8c: 02 65        	ld	a0, 0(sp)
80001f8e: a2 70        	ld	ra, 40(sp)
80001f90: 45 61        	addi	sp, sp, 48
80001f92: 82 80        	ret

0000000080001f94 <core::ptr::write::h75bc1fae78e8a066>:
80001f94: 01 11        	addi	sp, sp, -32
80001f96: 2a e8        	sd	a0, 16(sp)
80001f98: 2e ec        	sd	a1, 24(sp)
80001f9a: 0c e1        	sd	a1, 0(a0)
80001f9c: 05 61        	addi	sp, sp, 32
80001f9e: 82 80        	ret

0000000080001fa0 <core::ptr::write::h7680e21a00e5c867>:
80001fa0: 01 11        	addi	sp, sp, -32
80001fa2: 2a e8        	sd	a0, 16(sp)
80001fa4: 2e ec        	sd	a1, 24(sp)
80001fa6: 0c e1        	sd	a1, 0(a0)
80001fa8: 05 61        	addi	sp, sp, 32
80001faa: 82 80        	ret

0000000080001fac <core::ptr::write::h9569e8d8a1ef3a7a>:
80001fac: 01 11        	addi	sp, sp, -32
80001fae: 2a e8        	sd	a0, 16(sp)
80001fb0: 2e ec        	sd	a1, 24(sp)
80001fb2: 0c e1        	sd	a1, 0(a0)
80001fb4: 05 61        	addi	sp, sp, 32
80001fb6: 82 80        	ret

0000000080001fb8 <core::ptr::null_mut::h529f24730eea5c48>:
80001fb8: 01 45        	mv	a0, zero
80001fba: 82 80        	ret

0000000080001fbc <core::ptr::null_mut::hbf21ca2afd1071b5>:
80001fbc: 01 45        	mv	a0, zero
80001fbe: 82 80        	ret

0000000080001fc0 <core::hint::unreachable_unchecked::h6b5b84c49d4728f3>:
80001fc0: 00 00        	unimp	

0000000080001fc2 <core::hint::spin_loop::h5c75a502006ffe6f>:
80001fc2: 82 80        	ret

0000000080001fc4 <qor_os::drivers::uart::driver::UartDriver::new::h73364bde4c5ae4ca>:
80001fc4: 41 11        	addi	sp, sp, -16
80001fc6: 2a e4        	sd	a0, 8(sp)
80001fc8: 2a e0        	sd	a0, 0(sp)
80001fca: 41 01        	addi	sp, sp, 16
80001fcc: 82 80        	ret

0000000080001fce <qor_os::drivers::uart::driver::UartDriver::initialize::h7c7031e3fa55cda9>:
80001fce: 41 11        	addi	sp, sp, -16
80001fd0: 06 e4        	sd	ra, 8(sp)
80001fd2: 2a e0        	sd	a0, 0(sp)
80001fd4: 08 61        	ld	a0, 0(a0)
80001fd6: 97 20 00 00  	auipc	ra, 2
80001fda: e7 80 80 95  	jalr	-1704(ra)
80001fde: 09 a0        	j	2 <qor_os::drivers::uart::driver::UartDriver::initialize::h7c7031e3fa55cda9+0x12>
80001fe0: a2 60        	ld	ra, 8(sp)
80001fe2: 41 01        	addi	sp, sp, 16
80001fe4: 82 80        	ret

0000000080001fe6 <qor_os::drivers::uart::driver::UartDriver::write_byte::hb73582d63c3f9d7c>:
80001fe6: 01 11        	addi	sp, sp, -32
80001fe8: 06 ec        	sd	ra, 24(sp)
80001fea: 2e 86        	add	a2, zero, a1
80001fec: 2a e4        	sd	a0, 8(sp)
80001fee: a3 0b b1 00  	sb	a1, 23(sp)
80001ff2: 08 61        	ld	a0, 0(a0)
80001ff4: 32 e0        	sd	a2, 0(sp)
80001ff6: 97 20 00 00  	auipc	ra, 2
80001ffa: e7 80 60 9d  	jalr	-1578(ra)
80001ffe: 09 a0        	j	2 <qor_os::drivers::uart::driver::UartDriver::write_byte::hb73582d63c3f9d7c+0x1a>
80002000: e2 60        	ld	ra, 24(sp)
80002002: 05 61        	addi	sp, sp, 32
80002004: 82 80        	ret

0000000080002006 <<qor_os::drivers::uart::driver::UartDriver as core::fmt::Write>::write_str::h114a2c124a926a2c>:
80002006: 19 71        	addi	sp, sp, -128
80002008: 86 fc        	sd	ra, 120(sp)
8000200a: aa e4        	sd	a0, 72(sp)
8000200c: ae e8        	sd	a1, 80(sp)
8000200e: b2 ec        	sd	a2, 88(sp)
80002010: 2a f0        	sd	a0, 32(sp)
80002012: 2e 85        	add	a0, zero, a1
80002014: b2 85        	add	a1, zero, a2
80002016: 97 e0 ff ff  	auipc	ra, 1048574
8000201a: e7 80 20 64  	jalr	1602(ra)
8000201e: 2a ec        	sd	a0, 24(sp)
80002020: 2e e8        	sd	a1, 16(sp)
80002022: 09 a0        	j	2 <<qor_os::drivers::uart::driver::UartDriver as core::fmt::Write>::write_str::h114a2c124a926a2c+0x1e>
80002024: 62 65        	ld	a0, 24(sp)
80002026: c2 65        	ld	a1, 16(sp)
80002028: 97 10 00 00  	auipc	ra, 1
8000202c: e7 80 80 f0  	jalr	-248(ra)
80002030: 2a e4        	sd	a0, 8(sp)
80002032: 2e e0        	sd	a1, 0(sp)
80002034: 09 a0        	j	2 <<qor_os::drivers::uart::driver::UartDriver as core::fmt::Write>::write_str::h114a2c124a926a2c+0x30>
80002036: 22 65        	ld	a0, 8(sp)
80002038: 2a f8        	sd	a0, 48(sp)
8000203a: 82 65        	ld	a1, 0(sp)
8000203c: 2e fc        	sd	a1, 56(sp)
8000203e: 09 a0        	j	2 <<qor_os::drivers::uart::driver::UartDriver as core::fmt::Write>::write_str::h114a2c124a926a2c+0x3a>
80002040: 08 18        	addi	a0, sp, 48
80002042: 97 10 00 00  	auipc	ra, 1
80002046: e7 80 e0 f0  	jalr	-242(ra)
8000204a: aa e0        	sd	a0, 64(sp)
8000204c: 09 a0        	j	2 <<qor_os::drivers::uart::driver::UartDriver as core::fmt::Write>::write_str::h114a2c124a926a2c+0x48>
8000204e: 06 65        	ld	a0, 64(sp)
80002050: b3 35 a0 00  	snez	a1, a0
80002054: 01 46        	mv	a2, zero
80002056: 63 04 c5 00  	beq	a0, a2, 8 <<qor_os::drivers::uart::driver::UartDriver as core::fmt::Write>::write_str::h114a2c124a926a2c+0x58>
8000205a: 09 a0        	j	2 <<qor_os::drivers::uart::driver::UartDriver as core::fmt::Write>::write_str::h114a2c124a926a2c+0x56>
8000205c: 01 a8        	j	16 <<qor_os::drivers::uart::driver::UartDriver as core::fmt::Write>::write_str::h114a2c124a926a2c+0x66>
8000205e: 01 45        	mv	a0, zero
80002060: a3 07 a1 02  	sb	a0, 47(sp)
80002064: e6 70        	ld	ra, 120(sp)
80002066: 09 61        	addi	sp, sp, 128
80002068: 82 80        	ret
8000206a: 00 00        	unimp	
8000206c: 06 65        	ld	a0, 64(sp)
8000206e: aa f0        	sd	a0, 96(sp)
80002070: aa f4        	sd	a0, 104(sp)
80002072: aa f8        	sd	a0, 112(sp)
80002074: 83 05 05 00  	lb	a1, 0(a0)
80002078: 02 75        	ld	a0, 32(sp)
8000207a: 97 00 00 00  	auipc	ra, 0
8000207e: e7 80 c0 f6  	jalr	-148(ra)
80002082: 09 a0        	j	2 <<qor_os::drivers::uart::driver::UartDriver as core::fmt::Write>::write_str::h114a2c124a926a2c+0x7e>
80002084: 75 bf        	j	-68 <<qor_os::drivers::uart::driver::UartDriver as core::fmt::Write>::write_str::h114a2c124a926a2c+0x3a>

0000000080002086 <core::intrinsics::copy_nonoverlapping::h08d4bdf338afedef>:
80002086: 79 71        	addi	sp, sp, -48
80002088: 06 f4        	sd	ra, 40(sp)
8000208a: 2a e8        	sd	a0, 16(sp)
8000208c: 2e ec        	sd	a1, 24(sp)
8000208e: 32 f0        	sd	a2, 32(sp)
80002090: 2a e4        	sd	a0, 8(sp)
80002092: 2e 85        	add	a0, zero, a1
80002094: a2 65        	ld	a1, 8(sp)
80002096: 97 40 00 00  	auipc	ra, 4
8000209a: e7 80 20 0b  	jalr	178(ra)
8000209e: 09 a0        	j	2 <core::intrinsics::copy_nonoverlapping::h08d4bdf338afedef+0x1a>
800020a0: a2 70        	ld	ra, 40(sp)
800020a2: 45 61        	addi	sp, sp, 48
800020a4: 82 80        	ret

00000000800020a6 <core::intrinsics::copy_nonoverlapping::h0fe838b4201841e9>:
800020a6: 79 71        	addi	sp, sp, -48
800020a8: 06 f4        	sd	ra, 40(sp)
800020aa: 2a e8        	sd	a0, 16(sp)
800020ac: 2e ec        	sd	a1, 24(sp)
800020ae: 32 f0        	sd	a2, 32(sp)
800020b0: 0e 06        	slli	a2, a2, 3
800020b2: 2a e4        	sd	a0, 8(sp)
800020b4: 2e 85        	add	a0, zero, a1
800020b6: a2 65        	ld	a1, 8(sp)
800020b8: 97 40 00 00  	auipc	ra, 4
800020bc: e7 80 00 09  	jalr	144(ra)
800020c0: 09 a0        	j	2 <core::intrinsics::copy_nonoverlapping::h0fe838b4201841e9+0x1c>
800020c2: a2 70        	ld	ra, 40(sp)
800020c4: 45 61        	addi	sp, sp, 48
800020c6: 82 80        	ret

00000000800020c8 <core::intrinsics::copy_nonoverlapping::h76936cba3fc1f519>:
800020c8: 79 71        	addi	sp, sp, -48
800020ca: 06 f4        	sd	ra, 40(sp)
800020cc: 2a e8        	sd	a0, 16(sp)
800020ce: 2e ec        	sd	a1, 24(sp)
800020d0: 32 f0        	sd	a2, 32(sp)
800020d2: 0e 06        	slli	a2, a2, 3
800020d4: 2a e4        	sd	a0, 8(sp)
800020d6: 2e 85        	add	a0, zero, a1
800020d8: a2 65        	ld	a1, 8(sp)
800020da: 97 40 00 00  	auipc	ra, 4
800020de: e7 80 e0 06  	jalr	110(ra)
800020e2: 09 a0        	j	2 <core::intrinsics::copy_nonoverlapping::h76936cba3fc1f519+0x1c>
800020e4: a2 70        	ld	ra, 40(sp)
800020e6: 45 61        	addi	sp, sp, 48
800020e8: 82 80        	ret

00000000800020ea <core::sync::atomic::atomic_load::h11eed8df45bf686e>:
800020ea: 79 71        	addi	sp, sp, -48
800020ec: 2e 86        	add	a2, zero, a1
800020ee: a3 0f b1 00  	sb	a1, 31(sp)
800020f2: 2a f4        	sd	a0, 40(sp)
800020f4: 93 f5 f5 0f  	andi	a1, a1, 255
800020f8: 81 46        	mv	a3, zero
800020fa: 2a e8        	sd	a0, 16(sp)
800020fc: 2e e4        	sd	a1, 8(sp)
800020fe: 63 8a d5 04  	beq	a1, a3, 84 <.LBB0_16+0x26>
80002102: 09 a0        	j	2 <core::sync::atomic::atomic_load::h11eed8df45bf686e+0x1a>
80002104: 05 45        	addi	a0, zero, 1
80002106: a2 65        	ld	a1, 8(sp)
80002108: 63 83 a5 06  	beq	a1, a0, 102 <.LBB0_17>
8000210c: 09 a0        	j	2 <core::sync::atomic::atomic_load::h11eed8df45bf686e+0x24>
8000210e: 09 45        	addi	a0, zero, 2
80002110: a2 65        	ld	a1, 8(sp)
80002112: 63 89 a5 02  	beq	a1, a0, 50 <.LBB0_16+0x18>
80002116: 09 a0        	j	2 <core::sync::atomic::atomic_load::h11eed8df45bf686e+0x2e>
80002118: 0d 45        	addi	a0, zero, 3
8000211a: a2 65        	ld	a1, 8(sp)
8000211c: 63 84 a5 00  	beq	a1, a0, 8 <.LBB0_15>
80002120: 09 a0        	j	2 <core::sync::atomic::atomic_load::h11eed8df45bf686e+0x38>
80002122: 2d a8        	j	58 <.LBB0_16+0x30>

0000000080002124 <.LBB0_15>:
80002124: 17 45 00 00  	auipc	a0, 4
80002128: 13 05 45 7b  	addi	a0, a0, 1972

000000008000212c <.LBB0_16>:
8000212c: 17 56 00 00  	auipc	a2, 5
80002130: 13 06 46 86  	addi	a2, a2, -1948
80002134: 93 05 10 03  	addi	a1, zero, 49
80002138: 97 30 00 00  	auipc	ra, 3
8000213c: e7 80 20 1e  	jalr	482(ra)
80002140: 00 00        	unimp	
80002142: 00 00        	unimp	
80002144: 42 65        	ld	a0, 16(sp)
80002146: 0c 61        	ld	a1, 0(a0)
80002148: 0f 00 30 02  	fence	r, rw
8000214c: 2e f0        	sd	a1, 32(sp)
8000214e: 09 a0        	j	2 <.LBB0_16+0x24>
80002150: 35 a8        	j	60 <.LBB0_18+0x16>
80002152: 42 65        	ld	a0, 16(sp)
80002154: 0c 61        	ld	a1, 0(a0)
80002156: 2e f0        	sd	a1, 32(sp)
80002158: 09 a0        	j	2 <.LBB0_16+0x2e>
8000215a: 0d a8        	j	50 <.LBB0_18+0x16>
8000215c: 0f 00 30 03  	fence	rw, rw
80002160: 42 65        	ld	a0, 16(sp)
80002162: 0c 61        	ld	a1, 0(a0)
80002164: 0f 00 30 02  	fence	r, rw
80002168: 2e f0        	sd	a1, 32(sp)
8000216a: 09 a0        	j	2 <.LBB0_16+0x40>
8000216c: 05 a0        	j	32 <.LBB0_18+0x16>

000000008000216e <.LBB0_17>:
8000216e: 17 55 00 00  	auipc	a0, 5
80002172: 13 05 a5 83  	addi	a0, a0, -1990

0000000080002176 <.LBB0_18>:
80002176: 17 56 00 00  	auipc	a2, 5
8000217a: 13 06 a6 85  	addi	a2, a2, -1958
8000217e: 93 05 80 02  	addi	a1, zero, 40
80002182: 97 30 00 00  	auipc	ra, 3
80002186: e7 80 80 19  	jalr	408(ra)
8000218a: 00 00        	unimp	
8000218c: 02 75        	ld	a0, 32(sp)
8000218e: 45 61        	addi	sp, sp, 48
80002190: 82 80        	ret

0000000080002192 <core::sync::atomic::atomic_load::h1402667a8191e186>:
80002192: 01 11        	addi	sp, sp, -32
80002194: 2e 86        	add	a2, zero, a1
80002196: 23 0b b1 00  	sb	a1, 22(sp)
8000219a: 2a ec        	sd	a0, 24(sp)
8000219c: 93 f5 f5 0f  	andi	a1, a1, 255
800021a0: 81 46        	mv	a3, zero
800021a2: 2a e4        	sd	a0, 8(sp)
800021a4: 2e e0        	sd	a1, 0(sp)
800021a6: 63 8c d5 04  	beq	a1, a3, 88 <.LBB1_16+0x2a>
800021aa: 09 a0        	j	2 <core::sync::atomic::atomic_load::h1402667a8191e186+0x1a>
800021ac: 05 45        	addi	a0, zero, 1
800021ae: 82 65        	ld	a1, 0(sp)
800021b0: 63 89 a5 06  	beq	a1, a0, 114 <.LBB1_17>
800021b4: 09 a0        	j	2 <core::sync::atomic::atomic_load::h1402667a8191e186+0x24>
800021b6: 09 45        	addi	a0, zero, 2
800021b8: 82 65        	ld	a1, 0(sp)
800021ba: 63 89 a5 02  	beq	a1, a0, 50 <.LBB1_16+0x18>
800021be: 09 a0        	j	2 <core::sync::atomic::atomic_load::h1402667a8191e186+0x2e>
800021c0: 0d 45        	addi	a0, zero, 3
800021c2: 82 65        	ld	a1, 0(sp)
800021c4: 63 84 a5 00  	beq	a1, a0, 8 <.LBB1_15>
800021c8: 09 a0        	j	2 <core::sync::atomic::atomic_load::h1402667a8191e186+0x38>
800021ca: 89 a0        	j	66 <.LBB1_16+0x38>

00000000800021cc <.LBB1_15>:
800021cc: 17 45 00 00  	auipc	a0, 4
800021d0: 13 05 c5 70  	addi	a0, a0, 1804

00000000800021d4 <.LBB1_16>:
800021d4: 17 46 00 00  	auipc	a2, 4
800021d8: 13 06 c6 7b  	addi	a2, a2, 1980
800021dc: 93 05 10 03  	addi	a1, zero, 49
800021e0: 97 30 00 00  	auipc	ra, 3
800021e4: e7 80 a0 13  	jalr	314(ra)
800021e8: 00 00        	unimp	
800021ea: 00 00        	unimp	
800021ec: 22 65        	ld	a0, 8(sp)
800021ee: 83 05 05 00  	lb	a1, 0(a0)
800021f2: 0f 00 30 02  	fence	r, rw
800021f6: a3 0b b1 00  	sb	a1, 23(sp)
800021fa: 09 a0        	j	2 <.LBB1_16+0x28>
800021fc: 91 a0        	j	68 <.LBB1_18+0x16>
800021fe: 22 65        	ld	a0, 8(sp)
80002200: 83 05 05 00  	lb	a1, 0(a0)
80002204: a3 0b b1 00  	sb	a1, 23(sp)
80002208: 09 a0        	j	2 <.LBB1_16+0x36>
8000220a: 1d a8        	j	54 <.LBB1_18+0x16>
8000220c: 0f 00 30 03  	fence	rw, rw
80002210: 22 65        	ld	a0, 8(sp)
80002212: 83 05 05 00  	lb	a1, 0(a0)
80002216: 0f 00 30 02  	fence	r, rw
8000221a: a3 0b b1 00  	sb	a1, 23(sp)
8000221e: 09 a0        	j	2 <.LBB1_16+0x4c>
80002220: 05 a0        	j	32 <.LBB1_18+0x16>

0000000080002222 <.LBB1_17>:
80002222: 17 45 00 00  	auipc	a0, 4
80002226: 13 05 65 78  	addi	a0, a0, 1926

000000008000222a <.LBB1_18>:
8000222a: 17 46 00 00  	auipc	a2, 4
8000222e: 13 06 66 7a  	addi	a2, a2, 1958
80002232: 93 05 80 02  	addi	a1, zero, 40
80002236: 97 30 00 00  	auipc	ra, 3
8000223a: e7 80 40 0e  	jalr	228(ra)
8000223e: 00 00        	unimp	
80002240: 03 05 71 01  	lb	a0, 23(sp)
80002244: 05 61        	addi	sp, sp, 32
80002246: 82 80        	ret

0000000080002248 <core::sync::atomic::atomic_load::hdf558afb4bbe5834>:
80002248: 79 71        	addi	sp, sp, -48
8000224a: 2e 86        	add	a2, zero, a1
8000224c: a3 0f b1 00  	sb	a1, 31(sp)
80002250: 2a f4        	sd	a0, 40(sp)
80002252: 93 f5 f5 0f  	andi	a1, a1, 255
80002256: 81 46        	mv	a3, zero
80002258: 2a e8        	sd	a0, 16(sp)
8000225a: 2e e4        	sd	a1, 8(sp)
8000225c: 63 8a d5 04  	beq	a1, a3, 84 <.LBB2_16+0x26>
80002260: 09 a0        	j	2 <core::sync::atomic::atomic_load::hdf558afb4bbe5834+0x1a>
80002262: 05 45        	addi	a0, zero, 1
80002264: a2 65        	ld	a1, 8(sp)
80002266: 63 83 a5 06  	beq	a1, a0, 102 <.LBB2_17>
8000226a: 09 a0        	j	2 <core::sync::atomic::atomic_load::hdf558afb4bbe5834+0x24>
8000226c: 09 45        	addi	a0, zero, 2
8000226e: a2 65        	ld	a1, 8(sp)
80002270: 63 89 a5 02  	beq	a1, a0, 50 <.LBB2_16+0x18>
80002274: 09 a0        	j	2 <core::sync::atomic::atomic_load::hdf558afb4bbe5834+0x2e>
80002276: 0d 45        	addi	a0, zero, 3
80002278: a2 65        	ld	a1, 8(sp)
8000227a: 63 84 a5 00  	beq	a1, a0, 8 <.LBB2_15>
8000227e: 09 a0        	j	2 <core::sync::atomic::atomic_load::hdf558afb4bbe5834+0x38>
80002280: 2d a8        	j	58 <.LBB2_16+0x30>

0000000080002282 <.LBB2_15>:
80002282: 17 45 00 00  	auipc	a0, 4
80002286: 13 05 65 65  	addi	a0, a0, 1622

000000008000228a <.LBB2_16>:
8000228a: 17 46 00 00  	auipc	a2, 4
8000228e: 13 06 66 70  	addi	a2, a2, 1798
80002292: 93 05 10 03  	addi	a1, zero, 49
80002296: 97 30 00 00  	auipc	ra, 3
8000229a: e7 80 40 08  	jalr	132(ra)
8000229e: 00 00        	unimp	
800022a0: 00 00        	unimp	
800022a2: 42 65        	ld	a0, 16(sp)
800022a4: 0c 61        	ld	a1, 0(a0)
800022a6: 0f 00 30 02  	fence	r, rw
800022aa: 2e f0        	sd	a1, 32(sp)
800022ac: 09 a0        	j	2 <.LBB2_16+0x24>
800022ae: 35 a8        	j	60 <.LBB2_18+0x16>
800022b0: 42 65        	ld	a0, 16(sp)
800022b2: 0c 61        	ld	a1, 0(a0)
800022b4: 2e f0        	sd	a1, 32(sp)
800022b6: 09 a0        	j	2 <.LBB2_16+0x2e>
800022b8: 0d a8        	j	50 <.LBB2_18+0x16>
800022ba: 0f 00 30 03  	fence	rw, rw
800022be: 42 65        	ld	a0, 16(sp)
800022c0: 0c 61        	ld	a1, 0(a0)
800022c2: 0f 00 30 02  	fence	r, rw
800022c6: 2e f0        	sd	a1, 32(sp)
800022c8: 09 a0        	j	2 <.LBB2_16+0x40>
800022ca: 05 a0        	j	32 <.LBB2_18+0x16>

00000000800022cc <.LBB2_17>:
800022cc: 17 45 00 00  	auipc	a0, 4
800022d0: 13 05 c5 6d  	addi	a0, a0, 1756

00000000800022d4 <.LBB2_18>:
800022d4: 17 46 00 00  	auipc	a2, 4
800022d8: 13 06 c6 6f  	addi	a2, a2, 1788
800022dc: 93 05 80 02  	addi	a1, zero, 40
800022e0: 97 30 00 00  	auipc	ra, 3
800022e4: e7 80 a0 03  	jalr	58(ra)
800022e8: 00 00        	unimp	
800022ea: 02 75        	ld	a0, 32(sp)
800022ec: 45 61        	addi	sp, sp, 48
800022ee: 82 80        	ret

00000000800022f0 <core::sync::atomic::atomic_store::h3235d734681fb3e0>:
800022f0: 39 71        	addi	sp, sp, -64
800022f2: b2 86        	add	a3, zero, a2
800022f4: a3 03 c1 02  	sb	a2, 39(sp)
800022f8: 2a f8        	sd	a0, 48(sp)
800022fa: 2e fc        	sd	a1, 56(sp)
800022fc: 13 76 f6 0f  	andi	a2, a2, 255
80002300: 01 47        	mv	a4, zero
80002302: 2e ec        	sd	a1, 24(sp)
80002304: 2a e8        	sd	a0, 16(sp)
80002306: 32 e4        	sd	a2, 8(sp)
80002308: 63 0a e6 04  	beq	a2, a4, 84 <.LBB3_16+0x26>
8000230c: 09 a0        	j	2 <core::sync::atomic::atomic_store::h3235d734681fb3e0+0x1e>
8000230e: 05 45        	addi	a0, zero, 1
80002310: a2 65        	ld	a1, 8(sp)
80002312: 63 8e a5 02  	beq	a1, a0, 60 <.LBB3_16+0x18>
80002316: 09 a0        	j	2 <core::sync::atomic::atomic_store::h3235d734681fb3e0+0x28>
80002318: 09 45        	addi	a0, zero, 2
8000231a: a2 65        	ld	a1, 8(sp)
8000231c: 63 8c a5 04  	beq	a1, a0, 88 <.LBB3_17>
80002320: 09 a0        	j	2 <core::sync::atomic::atomic_store::h3235d734681fb3e0+0x32>
80002322: 0d 45        	addi	a0, zero, 3
80002324: a2 65        	ld	a1, 8(sp)
80002326: 63 84 a5 00  	beq	a1, a0, 8 <.LBB3_15>
8000232a: 09 a0        	j	2 <core::sync::atomic::atomic_store::h3235d734681fb3e0+0x3c>
8000232c: 2d a8        	j	58 <.LBB3_16+0x30>

000000008000232e <.LBB3_15>:
8000232e: 17 45 00 00  	auipc	a0, 4
80002332: 13 05 a5 6b  	addi	a0, a0, 1722

0000000080002336 <.LBB3_16>:
80002336: 17 46 00 00  	auipc	a2, 4
8000233a: 13 06 a6 6e  	addi	a2, a2, 1770
8000233e: 93 05 20 03  	addi	a1, zero, 50
80002342: 97 30 00 00  	auipc	ra, 3
80002346: e7 80 80 fd  	jalr	-40(ra)
8000234a: 00 00        	unimp	
8000234c: 00 00        	unimp	
8000234e: 0f 00 10 03  	fence	rw, w
80002352: 62 65        	ld	a0, 24(sp)
80002354: c2 65        	ld	a1, 16(sp)
80002356: 88 e1        	sd	a0, 0(a1)
80002358: 09 a0        	j	2 <.LBB3_16+0x24>
8000235a: 25 a8        	j	56 <.LBB3_18+0x16>
8000235c: 62 65        	ld	a0, 24(sp)
8000235e: c2 65        	ld	a1, 16(sp)
80002360: 88 e1        	sd	a0, 0(a1)
80002362: 09 a0        	j	2 <.LBB3_16+0x2e>
80002364: 3d a0        	j	46 <.LBB3_18+0x16>
80002366: 0f 00 10 03  	fence	rw, w
8000236a: 62 65        	ld	a0, 24(sp)
8000236c: c2 65        	ld	a1, 16(sp)
8000236e: 88 e1        	sd	a0, 0(a1)
80002370: 09 a0        	j	2 <.LBB3_16+0x3c>
80002372: 05 a0        	j	32 <.LBB3_18+0x16>

0000000080002374 <.LBB3_17>:
80002374: 17 45 00 00  	auipc	a0, 4
80002378: 13 05 45 6c  	addi	a0, a0, 1732

000000008000237c <.LBB3_18>:
8000237c: 17 46 00 00  	auipc	a2, 4
80002380: 13 06 c6 6e  	addi	a2, a2, 1772
80002384: 93 05 a0 02  	addi	a1, zero, 42
80002388: 97 30 00 00  	auipc	ra, 3
8000238c: e7 80 20 f9  	jalr	-110(ra)
80002390: 00 00        	unimp	
80002392: 21 61        	addi	sp, sp, 64
80002394: 82 80        	ret

0000000080002396 <core::sync::atomic::atomic_store::h520b87b2aeaf07c7>:
80002396: 39 71        	addi	sp, sp, -64
80002398: b2 86        	add	a3, zero, a2
8000239a: 2e 87        	add	a4, zero, a1
8000239c: a3 03 c1 02  	sb	a2, 39(sp)
800023a0: 2a f8        	sd	a0, 48(sp)
800023a2: a3 0f b1 02  	sb	a1, 63(sp)
800023a6: 93 75 f6 0f  	andi	a1, a2, 255
800023aa: 01 46        	mv	a2, zero
800023ac: 2a ec        	sd	a0, 24(sp)
800023ae: 3a e8        	sd	a4, 16(sp)
800023b0: 2e e4        	sd	a1, 8(sp)
800023b2: 63 8b c5 04  	beq	a1, a2, 86 <.LBB4_16+0x28>
800023b6: 09 a0        	j	2 <core::sync::atomic::atomic_store::h520b87b2aeaf07c7+0x22>
800023b8: 05 45        	addi	a0, zero, 1
800023ba: a2 65        	ld	a1, 8(sp)
800023bc: 63 8e a5 02  	beq	a1, a0, 60 <.LBB4_16+0x18>
800023c0: 09 a0        	j	2 <core::sync::atomic::atomic_store::h520b87b2aeaf07c7+0x2c>
800023c2: 09 45        	addi	a0, zero, 2
800023c4: a2 65        	ld	a1, 8(sp)
800023c6: 63 8f a5 04  	beq	a1, a0, 94 <.LBB4_17>
800023ca: 09 a0        	j	2 <core::sync::atomic::atomic_store::h520b87b2aeaf07c7+0x36>
800023cc: 0d 45        	addi	a0, zero, 3
800023ce: a2 65        	ld	a1, 8(sp)
800023d0: 63 84 a5 00  	beq	a1, a0, 8 <.LBB4_15>
800023d4: 09 a0        	j	2 <core::sync::atomic::atomic_store::h520b87b2aeaf07c7+0x40>
800023d6: 3d a8        	j	62 <.LBB4_16+0x34>

00000000800023d8 <.LBB4_15>:
800023d8: 17 45 00 00  	auipc	a0, 4
800023dc: 13 05 05 61  	addi	a0, a0, 1552

00000000800023e0 <.LBB4_16>:
800023e0: 17 46 00 00  	auipc	a2, 4
800023e4: 13 06 06 64  	addi	a2, a2, 1600
800023e8: 93 05 20 03  	addi	a1, zero, 50
800023ec: 97 30 00 00  	auipc	ra, 3
800023f0: e7 80 e0 f2  	jalr	-210(ra)
800023f4: 00 00        	unimp	
800023f6: 00 00        	unimp	
800023f8: 0f 00 10 03  	fence	rw, w
800023fc: 42 65        	ld	a0, 16(sp)
800023fe: e2 65        	ld	a1, 24(sp)
80002400: 23 80 a5 00  	sb	a0, 0(a1)
80002404: 09 a0        	j	2 <.LBB4_16+0x26>
80002406: 35 a8        	j	60 <.LBB4_18+0x16>
80002408: 42 65        	ld	a0, 16(sp)
8000240a: e2 65        	ld	a1, 24(sp)
8000240c: 23 80 a5 00  	sb	a0, 0(a1)
80002410: 09 a0        	j	2 <.LBB4_16+0x32>
80002412: 05 a8        	j	48 <.LBB4_18+0x16>
80002414: 0f 00 10 03  	fence	rw, w
80002418: 42 65        	ld	a0, 16(sp)
8000241a: e2 65        	ld	a1, 24(sp)
8000241c: 23 80 a5 00  	sb	a0, 0(a1)
80002420: 09 a0        	j	2 <.LBB4_16+0x42>
80002422: 05 a0        	j	32 <.LBB4_18+0x16>

0000000080002424 <.LBB4_17>:
80002424: 17 45 00 00  	auipc	a0, 4
80002428: 13 05 45 61  	addi	a0, a0, 1556

000000008000242c <.LBB4_18>:
8000242c: 17 46 00 00  	auipc	a2, 4
80002430: 13 06 c6 63  	addi	a2, a2, 1596
80002434: 93 05 a0 02  	addi	a1, zero, 42
80002438: 97 30 00 00  	auipc	ra, 3
8000243c: e7 80 20 ee  	jalr	-286(ra)
80002440: 00 00        	unimp	
80002442: 21 61        	addi	sp, sp, 64
80002444: 82 80        	ret

0000000080002446 <core::sync::atomic::AtomicPtr<T>::load::ha6fe26be4dd5468a>:
80002446: 79 71        	addi	sp, sp, -48
80002448: 06 f4        	sd	ra, 40(sp)
8000244a: 2e 86        	add	a2, zero, a1
8000244c: 2a ec        	sd	a0, 24(sp)
8000244e: a3 03 b1 02  	sb	a1, 39(sp)
80002452: 32 e8        	sd	a2, 16(sp)
80002454: 97 e0 ff ff  	auipc	ra, 1048574
80002458: e7 80 e0 32  	jalr	814(ra)
8000245c: 2a e4        	sd	a0, 8(sp)
8000245e: 09 a0        	j	2 <core::sync::atomic::AtomicPtr<T>::load::ha6fe26be4dd5468a+0x1a>
80002460: 22 65        	ld	a0, 8(sp)
80002462: c2 65        	ld	a1, 16(sp)
80002464: 97 00 00 00  	auipc	ra, 0
80002468: e7 80 60 c8  	jalr	-890(ra)
8000246c: 2a e0        	sd	a0, 0(sp)
8000246e: 09 a0        	j	2 <core::sync::atomic::AtomicPtr<T>::load::ha6fe26be4dd5468a+0x2a>
80002470: 02 65        	ld	a0, 0(sp)
80002472: a2 70        	ld	ra, 40(sp)
80002474: 45 61        	addi	sp, sp, 48
80002476: 82 80        	ret

0000000080002478 <core::sync::atomic::AtomicPtr<T>::store::hef4b0f261915721c>:
80002478: 39 71        	addi	sp, sp, -64
8000247a: 06 fc        	sd	ra, 56(sp)
8000247c: b2 86        	add	a3, zero, a2
8000247e: 2a f0        	sd	a0, 32(sp)
80002480: 2e f4        	sd	a1, 40(sp)
80002482: a3 0b c1 02  	sb	a2, 55(sp)
80002486: 2e ec        	sd	a1, 24(sp)
80002488: 36 e8        	sd	a3, 16(sp)
8000248a: 97 e0 ff ff  	auipc	ra, 1048574
8000248e: e7 80 80 2f  	jalr	760(ra)
80002492: 2a e4        	sd	a0, 8(sp)
80002494: 09 a0        	j	2 <core::sync::atomic::AtomicPtr<T>::store::hef4b0f261915721c+0x1e>
80002496: 22 65        	ld	a0, 8(sp)
80002498: e2 65        	ld	a1, 24(sp)
8000249a: 42 66        	ld	a2, 16(sp)
8000249c: 97 00 00 00  	auipc	ra, 0
800024a0: e7 80 40 e5  	jalr	-428(ra)
800024a4: 09 a0        	j	2 <core::sync::atomic::AtomicPtr<T>::store::hef4b0f261915721c+0x2e>
800024a6: e2 70        	ld	ra, 56(sp)
800024a8: 21 61        	addi	sp, sp, 64
800024aa: 82 80        	ret

00000000800024ac <core::sync::atomic::atomic_compare_exchange::h72cef5f26457d292>:
800024ac: 35 71        	addi	sp, sp, -160
800024ae: ba 87        	add	a5, zero, a4
800024b0: 36 88        	add	a6, zero, a3
800024b2: aa f8        	sd	a0, 112(sp)
800024b4: ae fc        	sd	a1, 120(sp)
800024b6: 32 e1        	sd	a2, 128(sp)
800024b8: 23 07 d1 08  	sb	a3, 142(sp)
800024bc: a3 07 e1 08  	sb	a4, 143(sp)
800024c0: 23 04 d1 06  	sb	a3, 104(sp)
800024c4: a3 04 e1 06  	sb	a4, 105(sp)
800024c8: 93 f6 f6 0f  	andi	a3, a3, 255
800024cc: 01 47        	mv	a4, zero
800024ce: b2 e0        	sd	a2, 64(sp)
800024d0: 2e fc        	sd	a1, 56(sp)
800024d2: 2a f8        	sd	a0, 48(sp)
800024d4: 36 f4        	sd	a3, 40(sp)
800024d6: 63 87 e6 02  	beq	a3, a4, 46 <core::sync::atomic::atomic_compare_exchange::h72cef5f26457d292+0x58>
800024da: 09 a0        	j	2 <core::sync::atomic::atomic_compare_exchange::h72cef5f26457d292+0x30>
800024dc: 05 45        	addi	a0, zero, 1
800024de: a2 75        	ld	a1, 40(sp)
800024e0: 63 84 a5 04  	beq	a1, a0, 72 <core::sync::atomic::atomic_compare_exchange::h72cef5f26457d292+0x7c>
800024e4: 09 a0        	j	2 <core::sync::atomic::atomic_compare_exchange::h72cef5f26457d292+0x3a>
800024e6: 09 45        	addi	a0, zero, 2
800024e8: a2 75        	ld	a1, 40(sp)
800024ea: 63 85 a5 04  	beq	a1, a0, 74 <core::sync::atomic::atomic_compare_exchange::h72cef5f26457d292+0x88>
800024ee: 09 a0        	j	2 <core::sync::atomic::atomic_compare_exchange::h72cef5f26457d292+0x44>
800024f0: 0d 45        	addi	a0, zero, 3
800024f2: a2 75        	ld	a1, 40(sp)
800024f4: 63 8c a5 04  	beq	a1, a0, 88 <core::sync::atomic::atomic_compare_exchange::h72cef5f26457d292+0xa0>
800024f8: 09 a0        	j	2 <core::sync::atomic::atomic_compare_exchange::h72cef5f26457d292+0x4e>
800024fa: 11 45        	addi	a0, zero, 4
800024fc: a2 75        	ld	a1, 40(sp)
800024fe: 63 83 a5 06  	beq	a1, a0, 102 <core::sync::atomic::atomic_compare_exchange::h72cef5f26457d292+0xb8>
80002502: 39 a0        	j	14 <core::sync::atomic::atomic_compare_exchange::h72cef5f26457d292+0x64>
80002504: 03 45 91 06  	lbu	a0, 105(sp)
80002508: 81 45        	mv	a1, zero
8000250a: 63 06 b5 10  	beq	a0, a1, 268 <.LBB7_42+0x88>
8000250e: 09 a0        	j	2 <core::sync::atomic::atomic_compare_exchange::h72cef5f26457d292+0x64>
80002510: 03 45 91 06  	lbu	a0, 105(sp)
80002514: 85 45        	addi	a1, zero, 1
80002516: 2a f0        	sd	a0, 32(sp)
80002518: 63 00 b5 20  	beq	a0, a1, 512 <.LBB7_45>
8000251c: 09 a0        	j	2 <core::sync::atomic::atomic_compare_exchange::h72cef5f26457d292+0x72>
8000251e: 0d 45        	addi	a0, zero, 3
80002520: 82 75        	ld	a1, 32(sp)
80002522: 63 8c a5 1c  	beq	a1, a0, 472 <.LBB7_43>
80002526: 85 a0        	j	96 <.LBB7_41>
80002528: 03 45 91 06  	lbu	a0, 105(sp)
8000252c: 81 45        	mv	a1, zero
8000252e: 63 0e b5 08  	beq	a0, a1, 156 <.LBB7_42+0x3c>
80002532: f9 bf        	j	-34 <core::sync::atomic::atomic_compare_exchange::h72cef5f26457d292+0x64>
80002534: 03 45 91 06  	lbu	a0, 105(sp)
80002538: 81 45        	mv	a1, zero
8000253a: 2a ec        	sd	a0, 24(sp)
8000253c: 63 03 b5 12  	beq	a0, a1, 294 <.LBB7_42+0xd4>
80002540: 09 a0        	j	2 <core::sync::atomic::atomic_compare_exchange::h72cef5f26457d292+0x96>
80002542: 09 45        	addi	a0, zero, 2
80002544: e2 65        	ld	a1, 24(sp)
80002546: 63 8f a5 04  	beq	a1, a0, 94 <.LBB7_42+0x16>
8000254a: d9 b7        	j	-58 <core::sync::atomic::atomic_compare_exchange::h72cef5f26457d292+0x64>
8000254c: 03 45 91 06  	lbu	a0, 105(sp)
80002550: 81 45        	mv	a1, zero
80002552: 2a e8        	sd	a0, 16(sp)
80002554: 63 0a b5 12  	beq	a0, a1, 308 <.LBB7_42+0xfa>
80002558: 09 a0        	j	2 <core::sync::atomic::atomic_compare_exchange::h72cef5f26457d292+0xae>
8000255a: 09 45        	addi	a0, zero, 2
8000255c: c2 65        	ld	a1, 16(sp)
8000255e: 63 89 a5 08  	beq	a1, a0, 146 <.LBB7_42+0x62>
80002562: 7d b7        	j	-82 <core::sync::atomic::atomic_compare_exchange::h72cef5f26457d292+0x64>
80002564: 03 45 91 06  	lbu	a0, 105(sp)
80002568: 81 45        	mv	a1, zero
8000256a: 2a e4        	sd	a0, 8(sp)
8000256c: 63 01 b5 14  	beq	a0, a1, 322 <.LBB7_42+0x120>
80002570: 09 a0        	j	2 <core::sync::atomic::atomic_compare_exchange::h72cef5f26457d292+0xc6>
80002572: 09 45        	addi	a0, zero, 2
80002574: a2 65        	ld	a1, 8(sp)
80002576: 63 8f a5 14  	beq	a1, a0, 350 <.LBB7_42+0x146>
8000257a: 09 a0        	j	2 <core::sync::atomic::atomic_compare_exchange::h72cef5f26457d292+0xd0>
8000257c: 11 45        	addi	a0, zero, 4
8000257e: a2 65        	ld	a1, 8(sp)
80002580: 63 8e a5 0a  	beq	a1, a0, 188 <.LBB7_42+0xae>
80002584: 71 b7        	j	-116 <core::sync::atomic::atomic_compare_exchange::h72cef5f26457d292+0x64>

0000000080002586 <.LBB7_41>:
80002586: 17 45 00 00  	auipc	a0, 4
8000258a: 13 05 a5 4f  	addi	a0, a0, 1274

000000008000258e <.LBB7_42>:
8000258e: 17 46 00 00  	auipc	a2, 4
80002592: 13 06 26 53  	addi	a2, a2, 1330
80002596: 93 05 c0 03  	addi	a1, zero, 60
8000259a: 97 30 00 00  	auipc	ra, 3
8000259e: e7 80 00 d8  	jalr	-640(ra)
800025a2: 00 00        	unimp	
800025a4: 42 76        	ld	a2, 48(sp)
800025a6: e2 76        	ld	a3, 56(sp)
800025a8: 06 67        	ld	a4, 64(sp)
800025aa: 2f 35 06 14  	<unknown>
800025ae: 63 15 d5 00  	bne	a0, a3, 10 <.LBB7_42+0x2a>
800025b2: af 35 e6 18  	<unknown>
800025b6: f5 f9        	bnez	a1, -12 <.LBB7_42+0x1c>
800025b8: b3 47 d5 00  	xor	a5, a0, a3
800025bc: 93 b7 17 00  	seqz	a5, a5
800025c0: aa ec        	sd	a0, 88(sp)
800025c2: 23 00 f1 06  	sb	a5, 96(sp)
800025c6: 09 a0        	j	2 <.LBB7_42+0x3a>
800025c8: bd a2        	j	366 <.LBB7_46+0x16>
800025ca: 42 76        	ld	a2, 48(sp)
800025cc: e2 76        	ld	a3, 56(sp)
800025ce: 06 67        	ld	a4, 64(sp)
800025d0: 2f 35 06 10  	<unknown>
800025d4: 63 15 d5 00  	bne	a0, a3, 10 <.LBB7_42+0x50>
800025d8: af 35 e6 1a  	<unknown>
800025dc: f5 f9        	bnez	a1, -12 <.LBB7_42+0x42>
800025de: b3 47 d5 00  	xor	a5, a0, a3
800025e2: 93 b7 17 00  	seqz	a5, a5
800025e6: aa ec        	sd	a0, 88(sp)
800025e8: 23 00 f1 06  	sb	a5, 96(sp)
800025ec: 09 a0        	j	2 <.LBB7_42+0x60>
800025ee: a1 a2        	j	328 <.LBB7_46+0x16>
800025f0: 42 76        	ld	a2, 48(sp)
800025f2: e2 76        	ld	a3, 56(sp)
800025f4: 06 67        	ld	a4, 64(sp)
800025f6: 2f 35 06 14  	<unknown>
800025fa: 63 15 d5 00  	bne	a0, a3, 10 <.LBB7_42+0x76>
800025fe: af 35 e6 1a  	<unknown>
80002602: f5 f9        	bnez	a1, -12 <.LBB7_42+0x68>
80002604: b3 47 d5 00  	xor	a5, a0, a3
80002608: 93 b7 17 00  	seqz	a5, a5
8000260c: aa ec        	sd	a0, 88(sp)
8000260e: 23 00 f1 06  	sb	a5, 96(sp)
80002612: 09 a0        	j	2 <.LBB7_42+0x86>
80002614: 0d a2        	j	290 <.LBB7_46+0x16>
80002616: 42 76        	ld	a2, 48(sp)
80002618: e2 76        	ld	a3, 56(sp)
8000261a: 06 67        	ld	a4, 64(sp)
8000261c: 2f 35 06 10  	<unknown>
80002620: 63 15 d5 00  	bne	a0, a3, 10 <.LBB7_42+0x9c>
80002624: af 35 e6 18  	<unknown>
80002628: f5 f9        	bnez	a1, -12 <.LBB7_42+0x8e>
8000262a: b3 47 d5 00  	xor	a5, a0, a3
8000262e: 93 b7 17 00  	seqz	a5, a5
80002632: aa ec        	sd	a0, 88(sp)
80002634: 23 00 f1 06  	sb	a5, 96(sp)
80002638: 09 a0        	j	2 <.LBB7_42+0xac>
8000263a: f5 a8        	j	252 <.LBB7_46+0x16>
8000263c: 42 76        	ld	a2, 48(sp)
8000263e: e2 76        	ld	a3, 56(sp)
80002640: 06 67        	ld	a4, 64(sp)
80002642: 2f 35 06 16  	<unknown>
80002646: 63 15 d5 00  	bne	a0, a3, 10 <.LBB7_42+0xc2>
8000264a: af 35 e6 1e  	<unknown>
8000264e: f5 f9        	bnez	a1, -12 <.LBB7_42+0xb4>
80002650: b3 47 d5 00  	xor	a5, a0, a3
80002654: 93 b7 17 00  	seqz	a5, a5
80002658: aa ec        	sd	a0, 88(sp)
8000265a: 23 00 f1 06  	sb	a5, 96(sp)
8000265e: 09 a0        	j	2 <.LBB7_42+0xd2>
80002660: d9 a8        	j	214 <.LBB7_46+0x16>
80002662: 42 76        	ld	a2, 48(sp)
80002664: e2 76        	ld	a3, 56(sp)
80002666: 06 67        	ld	a4, 64(sp)
80002668: 2f 35 06 14  	<unknown>
8000266c: 63 15 d5 00  	bne	a0, a3, 10 <.LBB7_42+0xe8>
80002670: af 35 e6 18  	<unknown>
80002674: f5 f9        	bnez	a1, -12 <.LBB7_42+0xda>
80002676: b3 47 d5 00  	xor	a5, a0, a3
8000267a: 93 b7 17 00  	seqz	a5, a5
8000267e: aa ec        	sd	a0, 88(sp)
80002680: 23 00 f1 06  	sb	a5, 96(sp)
80002684: 09 a0        	j	2 <.LBB7_42+0xf8>
80002686: 45 a8        	j	176 <.LBB7_46+0x16>
80002688: 42 76        	ld	a2, 48(sp)
8000268a: e2 76        	ld	a3, 56(sp)
8000268c: 06 67        	ld	a4, 64(sp)
8000268e: 2f 35 06 14  	<unknown>
80002692: 63 15 d5 00  	bne	a0, a3, 10 <.LBB7_42+0x10e>
80002696: af 35 e6 1a  	<unknown>
8000269a: f5 f9        	bnez	a1, -12 <.LBB7_42+0x100>
8000269c: b3 47 d5 00  	xor	a5, a0, a3
800026a0: 93 b7 17 00  	seqz	a5, a5
800026a4: aa ec        	sd	a0, 88(sp)
800026a6: 23 00 f1 06  	sb	a5, 96(sp)
800026aa: 09 a0        	j	2 <.LBB7_42+0x11e>
800026ac: 69 a0        	j	138 <.LBB7_46+0x16>
800026ae: 42 76        	ld	a2, 48(sp)
800026b0: e2 76        	ld	a3, 56(sp)
800026b2: 06 67        	ld	a4, 64(sp)
800026b4: 2f 35 06 16  	<unknown>
800026b8: 63 15 d5 00  	bne	a0, a3, 10 <.LBB7_42+0x134>
800026bc: af 35 e6 1e  	<unknown>
800026c0: f5 f9        	bnez	a1, -12 <.LBB7_42+0x126>
800026c2: b3 47 d5 00  	xor	a5, a0, a3
800026c6: 93 b7 17 00  	seqz	a5, a5
800026ca: aa ec        	sd	a0, 88(sp)
800026cc: 23 00 f1 06  	sb	a5, 96(sp)
800026d0: 09 a0        	j	2 <.LBB7_42+0x144>
800026d2: 95 a0        	j	100 <.LBB7_46+0x16>
800026d4: 42 76        	ld	a2, 48(sp)
800026d6: e2 76        	ld	a3, 56(sp)
800026d8: 06 67        	ld	a4, 64(sp)
800026da: 2f 35 06 16  	<unknown>
800026de: 63 15 d5 00  	bne	a0, a3, 10 <.LBB7_42+0x15a>
800026e2: af 35 e6 1e  	<unknown>
800026e6: f5 f9        	bnez	a1, -12 <.LBB7_42+0x14c>
800026e8: b3 47 d5 00  	xor	a5, a0, a3
800026ec: 93 b7 17 00  	seqz	a5, a5
800026f0: aa ec        	sd	a0, 88(sp)
800026f2: 23 00 f1 06  	sb	a5, 96(sp)
800026f6: 09 a0        	j	2 <.LBB7_42+0x16a>
800026f8: 3d a8        	j	62 <.LBB7_46+0x16>

00000000800026fa <.LBB7_43>:
800026fa: 17 45 00 00  	auipc	a0, 4
800026fe: 13 05 e5 3d  	addi	a0, a0, 990

0000000080002702 <.LBB7_44>:
80002702: 17 46 00 00  	auipc	a2, 4
80002706: 13 06 66 41  	addi	a2, a2, 1046
8000270a: 93 05 d0 03  	addi	a1, zero, 61
8000270e: 97 30 00 00  	auipc	ra, 3
80002712: e7 80 c0 c0  	jalr	-1012(ra)
80002716: 00 00        	unimp	

0000000080002718 <.LBB7_45>:
80002718: 17 45 00 00  	auipc	a0, 4
8000271c: 13 05 85 41  	addi	a0, a0, 1048

0000000080002720 <.LBB7_46>:
80002720: 17 46 00 00  	auipc	a2, 4
80002724: 13 06 86 44  	addi	a2, a2, 1096
80002728: 93 05 40 03  	addi	a1, zero, 52
8000272c: 97 30 00 00  	auipc	ra, 3
80002730: e7 80 e0 be  	jalr	-1042(ra)
80002734: 00 00        	unimp	
80002736: 66 65        	ld	a0, 88(sp)
80002738: 2a e9        	sd	a0, 144(sp)
8000273a: 83 45 01 06  	lbu	a1, 96(sp)
8000273e: 13 f6 15 00  	andi	a2, a1, 1
80002742: a3 0f b1 08  	sb	a1, 159(sp)
80002746: 2a e0        	sd	a0, 0(sp)
80002748: 19 e6        	bnez	a2, 14 <.LBB7_46+0x36>
8000274a: 09 a0        	j	2 <.LBB7_46+0x2c>
8000274c: 02 65        	ld	a0, 0(sp)
8000274e: aa e8        	sd	a0, 80(sp)
80002750: 85 45        	addi	a1, zero, 1
80002752: ae e4        	sd	a1, 72(sp)
80002754: 31 a0        	j	12 <.LBB7_46+0x40>
80002756: 02 65        	ld	a0, 0(sp)
80002758: aa e8        	sd	a0, 80(sp)
8000275a: 81 45        	mv	a1, zero
8000275c: ae e4        	sd	a1, 72(sp)
8000275e: 09 a0        	j	2 <.LBB7_46+0x40>
80002760: 26 65        	ld	a0, 72(sp)
80002762: c6 65        	ld	a1, 80(sp)
80002764: 0d 61        	addi	sp, sp, 160
80002766: 82 80        	ret

0000000080002768 <core::option::Option<T>::as_ref::h98ea8360467278d7>:
80002768: 01 11        	addi	sp, sp, -32
8000276a: 2a e8        	sd	a0, 16(sp)
8000276c: 0c 61        	ld	a1, 0(a0)
8000276e: 01 46        	mv	a2, zero
80002770: 2a e0        	sd	a0, 0(sp)
80002772: 63 84 c5 00  	beq	a1, a2, 8 <core::option::Option<T>::as_ref::h98ea8360467278d7+0x12>
80002776: 09 a0        	j	2 <core::option::Option<T>::as_ref::h98ea8360467278d7+0x10>
80002778: 29 a0        	j	10 <core::option::Option<T>::as_ref::h98ea8360467278d7+0x1a>
8000277a: 01 45        	mv	a0, zero
8000277c: 2a e4        	sd	a0, 8(sp)
8000277e: 01 a8        	j	16 <core::option::Option<T>::as_ref::h98ea8360467278d7+0x26>
80002780: 00 00        	unimp	
80002782: 02 65        	ld	a0, 0(sp)
80002784: 93 05 85 00  	addi	a1, a0, 8
80002788: 2e ec        	sd	a1, 24(sp)
8000278a: 2e e4        	sd	a1, 8(sp)
8000278c: 09 a0        	j	2 <core::option::Option<T>::as_ref::h98ea8360467278d7+0x26>
8000278e: 22 65        	ld	a0, 8(sp)
80002790: 05 61        	addi	sp, sp, 32
80002792: 82 80        	ret

0000000080002794 <core::option::Option<T>::as_ref::hc545fa8338cd51c0>:
80002794: 01 11        	addi	sp, sp, -32
80002796: 2a e8        	sd	a0, 16(sp)
80002798: 83 45 05 00  	lbu	a1, 0(a0)
8000279c: 85 89        	andi	a1, a1, 1
8000279e: 01 46        	mv	a2, zero
800027a0: 2a e0        	sd	a0, 0(sp)
800027a2: 63 84 c5 00  	beq	a1, a2, 8 <core::option::Option<T>::as_ref::hc545fa8338cd51c0+0x16>
800027a6: 09 a0        	j	2 <core::option::Option<T>::as_ref::hc545fa8338cd51c0+0x14>
800027a8: 29 a0        	j	10 <core::option::Option<T>::as_ref::hc545fa8338cd51c0+0x1e>
800027aa: 01 45        	mv	a0, zero
800027ac: 2a e4        	sd	a0, 8(sp)
800027ae: 01 a8        	j	16 <core::option::Option<T>::as_ref::hc545fa8338cd51c0+0x2a>
800027b0: 00 00        	unimp	
800027b2: 02 65        	ld	a0, 0(sp)
800027b4: 93 05 15 00  	addi	a1, a0, 1
800027b8: 2e ec        	sd	a1, 24(sp)
800027ba: 2e e4        	sd	a1, 8(sp)
800027bc: 09 a0        	j	2 <core::option::Option<T>::as_ref::hc545fa8338cd51c0+0x2a>
800027be: 22 65        	ld	a0, 8(sp)
800027c0: 05 61        	addi	sp, sp, 32
800027c2: 82 80        	ret

00000000800027c4 <core::option::Option<T>::unwrap::h1f3790b1e60ac0ee>:
800027c4: 01 11        	addi	sp, sp, -32
800027c6: 2a e8        	sd	a0, 16(sp)
800027c8: 33 36 a0 00  	snez	a2, a0
800027cc: 81 46        	mv	a3, zero
800027ce: 2e e4        	sd	a1, 8(sp)
800027d0: 63 04 d5 00  	beq	a0, a3, 8 <.LBB2_5>
800027d4: 09 a0        	j	2 <core::option::Option<T>::unwrap::h1f3790b1e60ac0ee+0x12>
800027d6: 31 a8        	j	28 <.LBB2_5+0x1a>

00000000800027d8 <.LBB2_5>:
800027d8: 17 45 00 00  	auipc	a0, 4
800027dc: 13 05 85 3a  	addi	a0, a0, 936
800027e0: 93 05 b0 02  	addi	a1, zero, 43
800027e4: 22 66        	ld	a2, 8(sp)
800027e6: 97 30 00 00  	auipc	ra, 3
800027ea: e7 80 40 b3  	jalr	-1228(ra)
800027ee: 00 00        	unimp	
800027f0: 00 00        	unimp	
800027f2: 42 65        	ld	a0, 16(sp)
800027f4: 2a ec        	sd	a0, 24(sp)
800027f6: 05 61        	addi	sp, sp, 32
800027f8: 82 80        	ret

00000000800027fa <core::option::Option<T>::unwrap::had6cd0c256f4c48c>:
800027fa: 01 11        	addi	sp, sp, -32
800027fc: 2a e8        	sd	a0, 16(sp)
800027fe: 33 36 a0 00  	snez	a2, a0
80002802: 81 46        	mv	a3, zero
80002804: 2e e4        	sd	a1, 8(sp)
80002806: 63 04 d5 00  	beq	a0, a3, 8 <.LBB3_5>
8000280a: 09 a0        	j	2 <core::option::Option<T>::unwrap::had6cd0c256f4c48c+0x12>
8000280c: 31 a8        	j	28 <.LBB3_5+0x1a>

000000008000280e <.LBB3_5>:
8000280e: 17 45 00 00  	auipc	a0, 4
80002812: 13 05 25 37  	addi	a0, a0, 882
80002816: 93 05 b0 02  	addi	a1, zero, 43
8000281a: 22 66        	ld	a2, 8(sp)
8000281c: 97 30 00 00  	auipc	ra, 3
80002820: e7 80 e0 af  	jalr	-1282(ra)
80002824: 00 00        	unimp	
80002826: 00 00        	unimp	
80002828: 42 65        	ld	a0, 16(sp)
8000282a: 2a ec        	sd	a0, 24(sp)
8000282c: 05 61        	addi	sp, sp, 32
8000282e: 82 80        	ret

0000000080002830 <core::option::Option<T>::unwrap::hb8f24e1059d6d996>:
80002830: 01 11        	addi	sp, sp, -32
80002832: 2a e8        	sd	a0, 16(sp)
80002834: 33 36 a0 00  	snez	a2, a0
80002838: 81 46        	mv	a3, zero
8000283a: 2e e4        	sd	a1, 8(sp)
8000283c: 63 04 d5 00  	beq	a0, a3, 8 <.LBB4_5>
80002840: 09 a0        	j	2 <core::option::Option<T>::unwrap::hb8f24e1059d6d996+0x12>
80002842: 31 a8        	j	28 <.LBB4_5+0x1a>

0000000080002844 <.LBB4_5>:
80002844: 17 45 00 00  	auipc	a0, 4
80002848: 13 05 c5 33  	addi	a0, a0, 828
8000284c: 93 05 b0 02  	addi	a1, zero, 43
80002850: 22 66        	ld	a2, 8(sp)
80002852: 97 30 00 00  	auipc	ra, 3
80002856: e7 80 80 ac  	jalr	-1336(ra)
8000285a: 00 00        	unimp	
8000285c: 00 00        	unimp	
8000285e: 42 65        	ld	a0, 16(sp)
80002860: 2a ec        	sd	a0, 24(sp)
80002862: 05 61        	addi	sp, sp, 32
80002864: 82 80        	ret

0000000080002866 <core::option::Option<T>::unwrap::hc62488e3e77c4525>:
80002866: 01 11        	addi	sp, sp, -32
80002868: 2a e8        	sd	a0, 16(sp)
8000286a: 33 36 a0 00  	snez	a2, a0
8000286e: 81 46        	mv	a3, zero
80002870: 2e e4        	sd	a1, 8(sp)
80002872: 63 04 d5 00  	beq	a0, a3, 8 <.LBB5_5>
80002876: 09 a0        	j	2 <core::option::Option<T>::unwrap::hc62488e3e77c4525+0x12>
80002878: 31 a8        	j	28 <.LBB5_5+0x1a>

000000008000287a <.LBB5_5>:
8000287a: 17 45 00 00  	auipc	a0, 4
8000287e: 13 05 65 30  	addi	a0, a0, 774
80002882: 93 05 b0 02  	addi	a1, zero, 43
80002886: 22 66        	ld	a2, 8(sp)
80002888: 97 30 00 00  	auipc	ra, 3
8000288c: e7 80 20 a9  	jalr	-1390(ra)
80002890: 00 00        	unimp	
80002892: 00 00        	unimp	
80002894: 42 65        	ld	a0, 16(sp)
80002896: 2a ec        	sd	a0, 24(sp)
80002898: 05 61        	addi	sp, sp, 32
8000289a: 82 80        	ret

000000008000289c <core::option::Option<T>::unwrap::hc70d9de38b86aed5>:
8000289c: 01 11        	addi	sp, sp, -32
8000289e: 2a e4        	sd	a0, 8(sp)
800028a0: 2e e8        	sd	a1, 16(sp)
800028a2: aa 85        	add	a1, zero, a0
800028a4: 81 46        	mv	a3, zero
800028a6: 32 e0        	sd	a2, 0(sp)
800028a8: 63 04 d5 00  	beq	a0, a3, 8 <.LBB6_5>
800028ac: 09 a0        	j	2 <core::option::Option<T>::unwrap::hc70d9de38b86aed5+0x12>
800028ae: 31 a8        	j	28 <.LBB6_5+0x1a>

00000000800028b0 <.LBB6_5>:
800028b0: 17 45 00 00  	auipc	a0, 4
800028b4: 13 05 05 2d  	addi	a0, a0, 720
800028b8: 93 05 b0 02  	addi	a1, zero, 43
800028bc: 02 66        	ld	a2, 0(sp)
800028be: 97 30 00 00  	auipc	ra, 3
800028c2: e7 80 c0 a5  	jalr	-1444(ra)
800028c6: 00 00        	unimp	
800028c8: 00 00        	unimp	
800028ca: 42 65        	ld	a0, 16(sp)
800028cc: 2a ec        	sd	a0, 24(sp)
800028ce: 05 61        	addi	sp, sp, 32
800028d0: 82 80        	ret

00000000800028d2 <core::option::Option<T>::unwrap::hde6e1cab7b773ea9>:
800028d2: 01 11        	addi	sp, sp, -32
800028d4: 2a e8        	sd	a0, 16(sp)
800028d6: 33 36 a0 00  	snez	a2, a0
800028da: 81 46        	mv	a3, zero
800028dc: 2e e4        	sd	a1, 8(sp)
800028de: 63 04 d5 00  	beq	a0, a3, 8 <.LBB7_5>
800028e2: 09 a0        	j	2 <core::option::Option<T>::unwrap::hde6e1cab7b773ea9+0x12>
800028e4: 31 a8        	j	28 <.LBB7_5+0x1a>

00000000800028e6 <.LBB7_5>:
800028e6: 17 45 00 00  	auipc	a0, 4
800028ea: 13 05 a5 29  	addi	a0, a0, 666
800028ee: 93 05 b0 02  	addi	a1, zero, 43
800028f2: 22 66        	ld	a2, 8(sp)
800028f4: 97 30 00 00  	auipc	ra, 3
800028f8: e7 80 60 a2  	jalr	-1498(ra)
800028fc: 00 00        	unimp	
800028fe: 00 00        	unimp	
80002900: 42 65        	ld	a0, 16(sp)
80002902: 2a ec        	sd	a0, 24(sp)
80002904: 05 61        	addi	sp, sp, 32
80002906: 82 80        	ret

0000000080002908 <core::ptr::mut_ptr::<impl *mut T>::as_mut::ha0fb80b301efeda6>:
80002908: 79 71        	addi	sp, sp, -48
8000290a: 06 f4        	sd	ra, 40(sp)
8000290c: 2a f0        	sd	a0, 32(sp)
8000290e: 2a e8        	sd	a0, 16(sp)
80002910: 97 00 00 00  	auipc	ra, 0
80002914: e7 80 40 05  	jalr	84(ra)
80002918: 2a e4        	sd	a0, 8(sp)
8000291a: 09 a0        	j	2 <core::ptr::mut_ptr::<impl *mut T>::as_mut::ha0fb80b301efeda6+0x14>
8000291c: 22 65        	ld	a0, 8(sp)
8000291e: 09 e5        	bnez	a0, 10 <core::ptr::mut_ptr::<impl *mut T>::as_mut::ha0fb80b301efeda6+0x20>
80002920: 09 a0        	j	2 <core::ptr::mut_ptr::<impl *mut T>::as_mut::ha0fb80b301efeda6+0x1a>
80002922: 42 65        	ld	a0, 16(sp)
80002924: 2a ec        	sd	a0, 24(sp)
80002926: 21 a0        	j	8 <core::ptr::mut_ptr::<impl *mut T>::as_mut::ha0fb80b301efeda6+0x26>
80002928: 01 45        	mv	a0, zero
8000292a: 2a ec        	sd	a0, 24(sp)
8000292c: 09 a0        	j	2 <core::ptr::mut_ptr::<impl *mut T>::as_mut::ha0fb80b301efeda6+0x26>
8000292e: 62 65        	ld	a0, 24(sp)
80002930: a2 70        	ld	ra, 40(sp)
80002932: 45 61        	addi	sp, sp, 48
80002934: 82 80        	ret

0000000080002936 <core::ptr::mut_ptr::<impl *mut T>::as_ref::h38ae56f743c9893a>:
80002936: 79 71        	addi	sp, sp, -48
80002938: 06 f4        	sd	ra, 40(sp)
8000293a: 2a f0        	sd	a0, 32(sp)
8000293c: 2a e8        	sd	a0, 16(sp)
8000293e: 97 00 00 00  	auipc	ra, 0
80002942: e7 80 60 02  	jalr	38(ra)
80002946: 2a e4        	sd	a0, 8(sp)
80002948: 09 a0        	j	2 <core::ptr::mut_ptr::<impl *mut T>::as_ref::h38ae56f743c9893a+0x14>
8000294a: 22 65        	ld	a0, 8(sp)
8000294c: 09 e5        	bnez	a0, 10 <core::ptr::mut_ptr::<impl *mut T>::as_ref::h38ae56f743c9893a+0x20>
8000294e: 09 a0        	j	2 <core::ptr::mut_ptr::<impl *mut T>::as_ref::h38ae56f743c9893a+0x1a>
80002950: 42 65        	ld	a0, 16(sp)
80002952: 2a ec        	sd	a0, 24(sp)
80002954: 21 a0        	j	8 <core::ptr::mut_ptr::<impl *mut T>::as_ref::h38ae56f743c9893a+0x26>
80002956: 01 45        	mv	a0, zero
80002958: 2a ec        	sd	a0, 24(sp)
8000295a: 09 a0        	j	2 <core::ptr::mut_ptr::<impl *mut T>::as_ref::h38ae56f743c9893a+0x26>
8000295c: 62 65        	ld	a0, 24(sp)
8000295e: a2 70        	ld	ra, 40(sp)
80002960: 45 61        	addi	sp, sp, 48
80002962: 82 80        	ret

0000000080002964 <core::ptr::mut_ptr::<impl *mut T>::is_null::hc8592f748a7217f5>:
80002964: 79 71        	addi	sp, sp, -48
80002966: 06 f4        	sd	ra, 40(sp)
80002968: 2a f0        	sd	a0, 32(sp)
8000296a: 2a ec        	sd	a0, 24(sp)
8000296c: 97 f0 ff ff  	auipc	ra, 1048575
80002970: e7 80 00 65  	jalr	1616(ra)
80002974: 2a e8        	sd	a0, 16(sp)
80002976: 09 a0        	j	2 <core::ptr::mut_ptr::<impl *mut T>::is_null::hc8592f748a7217f5+0x14>
80002978: 62 65        	ld	a0, 24(sp)
8000297a: c2 65        	ld	a1, 16(sp)
8000297c: 97 e0 ff ff  	auipc	ra, 1048574
80002980: e7 80 40 15  	jalr	340(ra)
80002984: 2a e4        	sd	a0, 8(sp)
80002986: 09 a0        	j	2 <core::ptr::mut_ptr::<impl *mut T>::is_null::hc8592f748a7217f5+0x24>
80002988: 22 65        	ld	a0, 8(sp)
8000298a: a2 70        	ld	ra, 40(sp)
8000298c: 45 61        	addi	sp, sp, 48
8000298e: 82 80        	ret

0000000080002990 <core::mem::manually_drop::ManuallyDrop<T>::into_inner::h711152d41f888ae9>:
80002990: 41 11        	addi	sp, sp, -16
80002992: 2a e4        	sd	a0, 8(sp)
80002994: 41 01        	addi	sp, sp, 16
80002996: 82 80        	ret

0000000080002998 <core::mem::manually_drop::ManuallyDrop<T>::into_inner::h9b17ab127679061a>:
80002998: 41 11        	addi	sp, sp, -16
8000299a: 2a e4        	sd	a0, 8(sp)
8000299c: 41 01        	addi	sp, sp, 16
8000299e: 82 80        	ret

00000000800029a0 <core::ops::function::FnOnce::call_once::h6a244ef106fcbaf2>:
800029a0: 01 11        	addi	sp, sp, -32
800029a2: 06 ec        	sd	ra, 24(sp)
800029a4: 97 10 00 00  	auipc	ra, 1
800029a8: e7 80 20 0f  	jalr	242(ra)
800029ac: 2a e0        	sd	a0, 0(sp)
800029ae: 09 a0        	j	2 <core::ops::function::FnOnce::call_once::h6a244ef106fcbaf2+0x10>
800029b0: 02 65        	ld	a0, 0(sp)
800029b2: e2 60        	ld	ra, 24(sp)
800029b4: 05 61        	addi	sp, sp, 32
800029b6: 82 80        	ret

00000000800029b8 <core::ops::function::FnOnce::call_once::hc0458d57e8d45324>:
800029b8: 01 11        	addi	sp, sp, -32
800029ba: 06 ec        	sd	ra, 24(sp)
800029bc: 97 f0 ff ff  	auipc	ra, 1048575
800029c0: e7 80 e0 d3  	jalr	-706(ra)
800029c4: a3 0b a1 00  	sb	a0, 23(sp)
800029c8: 23 04 a1 00  	sb	a0, 8(sp)
800029cc: 09 a0        	j	2 <core::ops::function::FnOnce::call_once::hc0458d57e8d45324+0x16>
800029ce: 03 05 81 00  	lb	a0, 8(sp)
800029d2: e2 60        	ld	ra, 24(sp)
800029d4: 05 61        	addi	sp, sp, 32
800029d6: 82 80        	ret

00000000800029d8 <core::ptr::drop_in_place<spin::once::Finish>::hf627dbf198724309>:
800029d8: 01 11        	addi	sp, sp, -32
800029da: 06 ec        	sd	ra, 24(sp)
800029dc: 2a e8        	sd	a0, 16(sp)
800029de: 97 30 00 00  	auipc	ra, 3
800029e2: e7 80 e0 8c  	jalr	-1842(ra)
800029e6: 09 a0        	j	2 <core::ptr::drop_in_place<spin::once::Finish>::hf627dbf198724309+0x10>
800029e8: e2 60        	ld	ra, 24(sp)
800029ea: 05 61        	addi	sp, sp, 32
800029ec: 82 80        	ret

00000000800029ee <core::ptr::drop_in_place<&mut qor_os::drivers::uart::driver::UartDriver>::h640e4c8789957635>:
800029ee: 41 11        	addi	sp, sp, -16
800029f0: 2a e4        	sd	a0, 8(sp)
800029f2: 41 01        	addi	sp, sp, 16
800029f4: 82 80        	ret

00000000800029f6 <spin::once::Once<T>::call_once::h6c9d52f46a6f7277>:
800029f6: 71 71        	addi	sp, sp, -176
800029f8: 06 f5        	sd	ra, 168(sp)
800029fa: 2a ed        	sd	a0, 152(sp)
800029fc: 85 45        	addi	a1, zero, 1
800029fe: a3 0b b1 08  	sb	a1, 151(sp)
80002a02: 91 45        	addi	a1, zero, 4
80002a04: 23 07 b1 06  	sb	a1, 110(sp)
80002a08: aa e8        	sd	a0, 80(sp)
80002a0a: 97 20 00 00  	auipc	ra, 2
80002a0e: e7 80 00 f8  	jalr	-128(ra)
80002a12: aa f0        	sd	a0, 96(sp)
80002a14: 09 a0        	j	2 <spin::once::Once<T>::call_once::h6c9d52f46a6f7277+0x20>
80002a16: 06 75        	ld	a0, 96(sp)
80002a18: 81 45        	mv	a1, zero
80002a1a: 63 04 b5 00  	beq	a0, a1, 8 <spin::once::Once<T>::call_once::h6c9d52f46a6f7277+0x2c>
80002a1e: 09 a0        	j	2 <spin::once::Once<T>::call_once::h6c9d52f46a6f7277+0x2a>
80002a20: 79 a0        	j	142 <spin::once::Once<T>::call_once::h6c9d52f46a6f7277+0xb8>
80002a22: 11 45        	addi	a0, zero, 4
80002a24: a3 07 a1 06  	sb	a0, 111(sp)
80002a28: 81 45        	mv	a1, zero
80002a2a: 05 46        	addi	a2, zero, 1
80002a2c: c6 66        	ld	a3, 80(sp)
80002a2e: aa e4        	sd	a0, 72(sp)
80002a30: 36 85        	add	a0, zero, a3
80002a32: a6 66        	ld	a3, 72(sp)
80002a34: 97 20 00 00  	auipc	ra, 2
80002a38: e7 80 40 ea  	jalr	-348(ra)
80002a3c: aa e0        	sd	a0, 64(sp)
80002a3e: 09 a0        	j	2 <spin::once::Once<T>::call_once::h6c9d52f46a6f7277+0x4a>
80002a40: 06 65        	ld	a0, 64(sp)
80002a42: aa f0        	sd	a0, 96(sp)
80002a44: 81 45        	mv	a1, zero
80002a46: 63 04 b5 00  	beq	a0, a1, 8 <spin::once::Once<T>::call_once::h6c9d52f46a6f7277+0x58>
80002a4a: 09 a0        	j	2 <spin::once::Once<T>::call_once::h6c9d52f46a6f7277+0x56>
80002a4c: 8d a0        	j	98 <spin::once::Once<T>::call_once::h6c9d52f46a6f7277+0xb8>
80002a4e: 46 65        	ld	a0, 80(sp)
80002a50: aa f8        	sd	a0, 112(sp)
80002a52: 85 45        	addi	a1, zero, 1
80002a54: 23 0c b1 06  	sb	a1, 120(sp)
80002a58: 81 45        	mv	a1, zero
80002a5a: a3 0b b1 08  	sb	a1, 151(sp)
80002a5e: 97 00 00 00  	auipc	ra, 0
80002a62: e7 80 a0 f5  	jalr	-166(ra)
80002a66: a3 03 a1 0a  	sb	a0, 167(sp)
80002a6a: 23 04 a1 08  	sb	a0, 136(sp)
80002a6e: 09 a0        	j	2 <spin::once::Once<T>::call_once::h6c9d52f46a6f7277+0x7a>
80002a70: 03 05 81 08  	lb	a0, 136(sp)
80002a74: a3 00 a1 08  	sb	a0, 129(sp)
80002a78: 05 45        	addi	a0, zero, 1
80002a7a: 23 00 a1 08  	sb	a0, 128(sp)
80002a7e: 46 65        	ld	a0, 80(sp)
80002a80: 21 05        	addi	a0, a0, 8
80002a82: 97 e0 ff ff  	auipc	ra, 1048574
80002a86: e7 80 00 cf  	jalr	-784(ra)
80002a8a: 2a fc        	sd	a0, 56(sp)
80002a8c: 09 a0        	j	2 <spin::once::Once<T>::call_once::h6c9d52f46a6f7277+0x98>
80002a8e: cd a0        	j	226 <.LBB0_32+0x3c>
80002a90: 46 65        	ld	a0, 80(sp)
80002a92: 97 00 00 00  	auipc	ra, 0
80002a96: e7 80 80 2b  	jalr	696(ra)
80002a9a: 2a f8        	sd	a0, 48(sp)
80002a9c: 09 a0        	j	2 <spin::once::Once<T>::call_once::h6c9d52f46a6f7277+0xa8>
80002a9e: 42 75        	ld	a0, 48(sp)
80002aa0: aa ec        	sd	a0, 88(sp)
80002aa2: 88 18        	addi	a0, sp, 112
80002aa4: 97 00 00 00  	auipc	ra, 0
80002aa8: e7 80 40 f3  	jalr	-204(ra)
80002aac: 45 a8        	j	176 <.LBB0_32+0x28>
80002aae: 09 a0        	j	2 <spin::once::Once<T>::call_once::h6c9d52f46a6f7277+0xba>
80002ab0: 06 75        	ld	a0, 96(sp)
80002ab2: 81 45        	mv	a1, zero
80002ab4: 2a f4        	sd	a0, 40(sp)
80002ab6: 63 07 b5 02  	beq	a0, a1, 46 <.LBB0_29>
80002aba: 09 a0        	j	2 <spin::once::Once<T>::call_once::h6c9d52f46a6f7277+0xc6>
80002abc: 05 45        	addi	a0, zero, 1
80002abe: a2 75        	ld	a1, 40(sp)
80002ac0: 63 81 a5 04  	beq	a1, a0, 66 <.LBB0_30+0x16>
80002ac4: 09 a0        	j	2 <spin::once::Once<T>::call_once::h6c9d52f46a6f7277+0xd0>
80002ac6: 09 45        	addi	a0, zero, 2
80002ac8: a2 75        	ld	a1, 40(sp)
80002aca: 63 8f a5 06  	beq	a1, a0, 126 <.LBB0_32+0x14>
80002ace: 09 a0        	j	2 <spin::once::Once<T>::call_once::h6c9d52f46a6f7277+0xda>
80002ad0: 0d 45        	addi	a0, zero, 3
80002ad2: a2 75        	ld	a1, 40(sp)
80002ad4: 63 8c a5 04  	beq	a1, a0, 88 <.LBB0_31>
80002ad8: 09 a0        	j	2 <spin::once::Once<T>::call_once::h6c9d52f46a6f7277+0xe4>
80002ada: 97 f0 ff ff  	auipc	ra, 1048575
80002ade: e7 80 60 4e  	jalr	1254(ra)
80002ae2: 00 00        	unimp	

0000000080002ae4 <.LBB0_29>:
80002ae4: 17 45 00 00  	auipc	a0, 4
80002ae8: 13 05 45 14  	addi	a0, a0, 324

0000000080002aec <.LBB0_30>:
80002aec: 17 46 00 00  	auipc	a2, 4
80002af0: 13 06 46 16  	addi	a2, a2, 356
80002af4: 93 05 80 02  	addi	a1, zero, 40
80002af8: 97 30 00 00  	auipc	ra, 3
80002afc: e7 80 20 82  	jalr	-2014(ra)
80002b00: 00 00        	unimp	
80002b02: 97 20 00 00  	auipc	ra, 2
80002b06: e7 80 e0 ee  	jalr	-274(ra)
80002b0a: 09 a0        	j	2 <.LBB0_30+0x20>
80002b0c: 11 45        	addi	a0, zero, 4
80002b0e: 23 0b a1 08  	sb	a0, 150(sp)
80002b12: c6 65        	ld	a1, 80(sp)
80002b14: 2a f0        	sd	a0, 32(sp)
80002b16: 2e 85        	add	a0, zero, a1
80002b18: 82 75        	ld	a1, 32(sp)
80002b1a: 97 20 00 00  	auipc	ra, 2
80002b1e: e7 80 00 e7  	jalr	-400(ra)
80002b22: 2a ec        	sd	a0, 24(sp)
80002b24: 09 a0        	j	2 <.LBB0_30+0x3a>
80002b26: 62 65        	ld	a0, 24(sp)
80002b28: aa f0        	sd	a0, 96(sp)
80002b2a: 59 b7        	j	-122 <spin::once::Once<T>::call_once::h6c9d52f46a6f7277+0xba>

0000000080002b2c <.LBB0_31>:
80002b2c: 17 45 00 00  	auipc	a0, 4
80002b30: 13 05 f5 07  	addi	a0, a0, 127

0000000080002b34 <.LBB0_32>:
80002b34: 17 46 00 00  	auipc	a2, 4
80002b38: 13 06 c6 0d  	addi	a2, a2, 220
80002b3c: c5 45        	addi	a1, zero, 17
80002b3e: 97 20 00 00  	auipc	ra, 2
80002b42: e7 80 c0 7d  	jalr	2012(ra)
80002b46: 00 00        	unimp	
80002b48: 46 65        	ld	a0, 80(sp)
80002b4a: 97 00 00 00  	auipc	ra, 0
80002b4e: e7 80 00 20  	jalr	512(ra)
80002b52: 2a e8        	sd	a0, 16(sp)
80002b54: 09 a0        	j	2 <.LBB0_32+0x22>
80002b56: 42 65        	ld	a0, 16(sp)
80002b58: aa ec        	sd	a0, 88(sp)
80002b5a: 11 a0        	j	4 <.LBB0_32+0x2a>
80002b5c: 09 a0        	j	2 <.LBB0_32+0x2a>
80002b5e: 03 45 71 09  	lbu	a0, 151(sp)
80002b62: 05 89        	andi	a0, a0, 1
80002b64: 21 e1        	bnez	a0, 64 <.LBB0_32+0x70>
80002b66: 09 a0        	j	2 <.LBB0_32+0x34>
80002b68: 66 65        	ld	a0, 88(sp)
80002b6a: aa 70        	ld	ra, 168(sp)
80002b6c: 4d 61        	addi	sp, sp, 176
80002b6e: 82 80        	ret
80002b70: 03 05 11 08  	lb	a0, 129(sp)
80002b74: e2 75        	ld	a1, 56(sp)
80002b76: a3 80 a5 00  	sb	a0, 1(a1)
80002b7a: 03 05 01 08  	lb	a0, 128(sp)
80002b7e: 23 80 a5 00  	sb	a0, 0(a1)
80002b82: 01 45        	mv	a0, zero
80002b84: 23 0c a1 06  	sb	a0, 120(sp)
80002b88: 09 45        	addi	a0, zero, 2
80002b8a: aa f0        	sd	a0, 96(sp)
80002b8c: 11 46        	addi	a2, zero, 4
80002b8e: a3 0a c1 08  	sb	a2, 149(sp)
80002b92: c6 66        	ld	a3, 80(sp)
80002b94: 2a e4        	sd	a0, 8(sp)
80002b96: 36 85        	add	a0, zero, a3
80002b98: a2 65        	ld	a1, 8(sp)
80002b9a: 97 20 00 00  	auipc	ra, 2
80002b9e: e7 80 20 e2  	jalr	-478(ra)
80002ba2: fd b5        	j	-274 <spin::once::Once<T>::call_once::h6c9d52f46a6f7277+0x9a>
80002ba4: d1 b7        	j	-60 <.LBB0_32+0x34>

0000000080002ba6 <spin::once::Once<T>::call_once::hdc6237b369c37d6c>:
80002ba6: 31 71        	addi	sp, sp, -192
80002ba8: 06 fd        	sd	ra, 184(sp)
80002baa: 2a f5        	sd	a0, 168(sp)
80002bac: 85 45        	addi	a1, zero, 1
80002bae: a3 03 b1 0a  	sb	a1, 167(sp)
80002bb2: 91 45        	addi	a1, zero, 4
80002bb4: 23 0f b1 06  	sb	a1, 126(sp)
80002bb8: aa f0        	sd	a0, 96(sp)
80002bba: 97 20 00 00  	auipc	ra, 2
80002bbe: e7 80 00 dd  	jalr	-560(ra)
80002bc2: aa f8        	sd	a0, 112(sp)
80002bc4: 09 a0        	j	2 <spin::once::Once<T>::call_once::hdc6237b369c37d6c+0x20>
80002bc6: 46 75        	ld	a0, 112(sp)
80002bc8: 81 45        	mv	a1, zero
80002bca: 63 04 b5 00  	beq	a0, a1, 8 <spin::once::Once<T>::call_once::hdc6237b369c37d6c+0x2c>
80002bce: 09 a0        	j	2 <spin::once::Once<T>::call_once::hdc6237b369c37d6c+0x2a>
80002bd0: 51 a0        	j	132 <spin::once::Once<T>::call_once::hdc6237b369c37d6c+0xae>
80002bd2: 11 45        	addi	a0, zero, 4
80002bd4: a3 0f a1 06  	sb	a0, 127(sp)
80002bd8: 81 45        	mv	a1, zero
80002bda: 05 46        	addi	a2, zero, 1
80002bdc: 86 76        	ld	a3, 96(sp)
80002bde: aa ec        	sd	a0, 88(sp)
80002be0: 36 85        	add	a0, zero, a3
80002be2: e6 66        	ld	a3, 88(sp)
80002be4: 97 20 00 00  	auipc	ra, 2
80002be8: e7 80 40 cf  	jalr	-780(ra)
80002bec: aa e8        	sd	a0, 80(sp)
80002bee: 09 a0        	j	2 <spin::once::Once<T>::call_once::hdc6237b369c37d6c+0x4a>
80002bf0: 46 65        	ld	a0, 80(sp)
80002bf2: aa f8        	sd	a0, 112(sp)
80002bf4: 81 45        	mv	a1, zero
80002bf6: 63 04 b5 00  	beq	a0, a1, 8 <spin::once::Once<T>::call_once::hdc6237b369c37d6c+0x58>
80002bfa: 09 a0        	j	2 <spin::once::Once<T>::call_once::hdc6237b369c37d6c+0x56>
80002bfc: a1 a8        	j	88 <spin::once::Once<T>::call_once::hdc6237b369c37d6c+0xae>
80002bfe: 06 75        	ld	a0, 96(sp)
80002c00: 2a e1        	sd	a0, 128(sp)
80002c02: 85 45        	addi	a1, zero, 1
80002c04: 23 04 b1 08  	sb	a1, 136(sp)
80002c08: 81 45        	mv	a1, zero
80002c0a: a3 03 b1 0a  	sb	a1, 167(sp)
80002c0e: 97 00 00 00  	auipc	ra, 0
80002c12: e7 80 20 d9  	jalr	-622(ra)
80002c16: aa e4        	sd	a0, 72(sp)
80002c18: 09 a0        	j	2 <spin::once::Once<T>::call_once::hdc6237b369c37d6c+0x74>
80002c1a: 26 65        	ld	a0, 72(sp)
80002c1c: 2a ed        	sd	a0, 152(sp)
80002c1e: 85 45        	addi	a1, zero, 1
80002c20: 2e e9        	sd	a1, 144(sp)
80002c22: 86 75        	ld	a1, 96(sp)
80002c24: 13 85 85 00  	addi	a0, a1, 8
80002c28: 97 e0 ff ff  	auipc	ra, 1048574
80002c2c: e7 80 20 b5  	jalr	-1198(ra)
80002c30: aa e0        	sd	a0, 64(sp)
80002c32: 09 a0        	j	2 <spin::once::Once<T>::call_once::hdc6237b369c37d6c+0x8e>
80002c34: cd a0        	j	226 <.LBB1_32+0x3c>
80002c36: 06 75        	ld	a0, 96(sp)
80002c38: 97 00 00 00  	auipc	ra, 0
80002c3c: e7 80 80 15  	jalr	344(ra)
80002c40: 2a fc        	sd	a0, 56(sp)
80002c42: 09 a0        	j	2 <spin::once::Once<T>::call_once::hdc6237b369c37d6c+0x9e>
80002c44: 62 75        	ld	a0, 56(sp)
80002c46: aa f4        	sd	a0, 104(sp)
80002c48: 08 01        	addi	a0, sp, 128
80002c4a: 97 00 00 00  	auipc	ra, 0
80002c4e: e7 80 e0 d8  	jalr	-626(ra)
80002c52: 45 a8        	j	176 <.LBB1_32+0x28>
80002c54: 09 a0        	j	2 <spin::once::Once<T>::call_once::hdc6237b369c37d6c+0xb0>
80002c56: 46 75        	ld	a0, 112(sp)
80002c58: 81 45        	mv	a1, zero
80002c5a: 2a f8        	sd	a0, 48(sp)
80002c5c: 63 07 b5 02  	beq	a0, a1, 46 <.LBB1_29>
80002c60: 09 a0        	j	2 <spin::once::Once<T>::call_once::hdc6237b369c37d6c+0xbc>
80002c62: 05 45        	addi	a0, zero, 1
80002c64: c2 75        	ld	a1, 48(sp)
80002c66: 63 81 a5 04  	beq	a1, a0, 66 <.LBB1_30+0x16>
80002c6a: 09 a0        	j	2 <spin::once::Once<T>::call_once::hdc6237b369c37d6c+0xc6>
80002c6c: 09 45        	addi	a0, zero, 2
80002c6e: c2 75        	ld	a1, 48(sp)
80002c70: 63 8f a5 06  	beq	a1, a0, 126 <.LBB1_32+0x14>
80002c74: 09 a0        	j	2 <spin::once::Once<T>::call_once::hdc6237b369c37d6c+0xd0>
80002c76: 0d 45        	addi	a0, zero, 3
80002c78: c2 75        	ld	a1, 48(sp)
80002c7a: 63 8c a5 04  	beq	a1, a0, 88 <.LBB1_31>
80002c7e: 09 a0        	j	2 <spin::once::Once<T>::call_once::hdc6237b369c37d6c+0xda>
80002c80: 97 f0 ff ff  	auipc	ra, 1048575
80002c84: e7 80 00 34  	jalr	832(ra)
80002c88: 00 00        	unimp	

0000000080002c8a <.LBB1_29>:
80002c8a: 17 45 00 00  	auipc	a0, 4
80002c8e: 13 05 e5 f9  	addi	a0, a0, -98

0000000080002c92 <.LBB1_30>:
80002c92: 17 46 00 00  	auipc	a2, 4
80002c96: 13 06 e6 fb  	addi	a2, a2, -66
80002c9a: 93 05 80 02  	addi	a1, zero, 40
80002c9e: 97 20 00 00  	auipc	ra, 2
80002ca2: e7 80 c0 67  	jalr	1660(ra)
80002ca6: 00 00        	unimp	
80002ca8: 97 20 00 00  	auipc	ra, 2
80002cac: e7 80 80 d4  	jalr	-696(ra)
80002cb0: 09 a0        	j	2 <.LBB1_30+0x20>
80002cb2: 11 45        	addi	a0, zero, 4
80002cb4: 23 03 a1 0a  	sb	a0, 166(sp)
80002cb8: 86 75        	ld	a1, 96(sp)
80002cba: 2a f4        	sd	a0, 40(sp)
80002cbc: 2e 85        	add	a0, zero, a1
80002cbe: a2 75        	ld	a1, 40(sp)
80002cc0: 97 20 00 00  	auipc	ra, 2
80002cc4: e7 80 a0 cc  	jalr	-822(ra)
80002cc8: 2a f0        	sd	a0, 32(sp)
80002cca: 09 a0        	j	2 <.LBB1_30+0x3a>
80002ccc: 02 75        	ld	a0, 32(sp)
80002cce: aa f8        	sd	a0, 112(sp)
80002cd0: 59 b7        	j	-122 <spin::once::Once<T>::call_once::hdc6237b369c37d6c+0xb0>

0000000080002cd2 <.LBB1_31>:
80002cd2: 17 45 00 00  	auipc	a0, 4
80002cd6: 13 05 95 ed  	addi	a0, a0, -295

0000000080002cda <.LBB1_32>:
80002cda: 17 46 00 00  	auipc	a2, 4
80002cde: 13 06 66 f3  	addi	a2, a2, -202
80002ce2: c5 45        	addi	a1, zero, 17
80002ce4: 97 20 00 00  	auipc	ra, 2
80002ce8: e7 80 60 63  	jalr	1590(ra)
80002cec: 00 00        	unimp	
80002cee: 06 75        	ld	a0, 96(sp)
80002cf0: 97 00 00 00  	auipc	ra, 0
80002cf4: e7 80 00 0a  	jalr	160(ra)
80002cf8: 2a ec        	sd	a0, 24(sp)
80002cfa: 09 a0        	j	2 <.LBB1_32+0x22>
80002cfc: 62 65        	ld	a0, 24(sp)
80002cfe: aa f4        	sd	a0, 104(sp)
80002d00: 11 a0        	j	4 <.LBB1_32+0x2a>
80002d02: 09 a0        	j	2 <.LBB1_32+0x2a>
80002d04: 03 45 71 0a  	lbu	a0, 167(sp)
80002d08: 05 89        	andi	a0, a0, 1
80002d0a: 1d ed        	bnez	a0, 62 <.LBB1_32+0x6e>
80002d0c: 09 a0        	j	2 <.LBB1_32+0x34>
80002d0e: 26 75        	ld	a0, 104(sp)
80002d10: ea 70        	ld	ra, 184(sp)
80002d12: 29 61        	addi	sp, sp, 192
80002d14: 82 80        	ret
80002d16: 4a 65        	ld	a0, 144(sp)
80002d18: ea 65        	ld	a1, 152(sp)
80002d1a: 06 66        	ld	a2, 64(sp)
80002d1c: 08 e2        	sd	a0, 0(a2)
80002d1e: 0c e6        	sd	a1, 8(a2)
80002d20: 01 45        	mv	a0, zero
80002d22: 23 04 a1 08  	sb	a0, 136(sp)
80002d26: 09 45        	addi	a0, zero, 2
80002d28: aa f8        	sd	a0, 112(sp)
80002d2a: 91 45        	addi	a1, zero, 4
80002d2c: a3 02 b1 0a  	sb	a1, 165(sp)
80002d30: 86 76        	ld	a3, 96(sp)
80002d32: 2a e8        	sd	a0, 16(sp)
80002d34: 36 85        	add	a0, zero, a3
80002d36: 42 67        	ld	a4, 16(sp)
80002d38: 2e e4        	sd	a1, 8(sp)
80002d3a: ba 85        	add	a1, zero, a4
80002d3c: 22 66        	ld	a2, 8(sp)
80002d3e: 97 20 00 00  	auipc	ra, 2
80002d42: e7 80 e0 c7  	jalr	-898(ra)
80002d46: c5 bd        	j	-272 <spin::once::Once<T>::call_once::hdc6237b369c37d6c+0x90>
80002d48: d9 b7        	j	-58 <.LBB1_32+0x34>

0000000080002d4a <spin::once::Once<T>::force_get::hb39ee0e836562b2a>:
80002d4a: 79 71        	addi	sp, sp, -48
80002d4c: 06 f4        	sd	ra, 40(sp)
80002d4e: 2a ec        	sd	a0, 24(sp)
80002d50: 21 05        	addi	a0, a0, 8
80002d52: 97 e0 ff ff  	auipc	ra, 1048574
80002d56: e7 80 00 a2  	jalr	-1504(ra)
80002d5a: 2a e4        	sd	a0, 8(sp)
80002d5c: 09 a0        	j	2 <spin::once::Once<T>::force_get::hb39ee0e836562b2a+0x14>
80002d5e: 22 65        	ld	a0, 8(sp)
80002d60: 97 00 00 00  	auipc	ra, 0
80002d64: e7 80 40 a3  	jalr	-1484(ra)
80002d68: 2a e8        	sd	a0, 16(sp)
80002d6a: 09 a0        	j	2 <spin::once::Once<T>::force_get::hb39ee0e836562b2a+0x22>
80002d6c: 42 65        	ld	a0, 16(sp)
80002d6e: b3 35 a0 00  	snez	a1, a0
80002d72: 01 46        	mv	a2, zero
80002d74: 63 09 c5 00  	beq	a0, a2, 18 <spin::once::Once<T>::force_get::hb39ee0e836562b2a+0x3c>
80002d78: 09 a0        	j	2 <spin::once::Once<T>::force_get::hb39ee0e836562b2a+0x30>
80002d7a: 42 65        	ld	a0, 16(sp)
80002d7c: 2a f0        	sd	a0, 32(sp)
80002d7e: a2 70        	ld	ra, 40(sp)
80002d80: 45 61        	addi	sp, sp, 48
80002d82: 82 80        	ret
80002d84: 00 00        	unimp	
80002d86: 97 f0 ff ff  	auipc	ra, 1048575
80002d8a: e7 80 a0 23  	jalr	570(ra)
80002d8e: 00 00        	unimp	

0000000080002d90 <spin::once::Once<T>::force_get::hd7e0015e1132bdc1>:
80002d90: 79 71        	addi	sp, sp, -48
80002d92: 06 f4        	sd	ra, 40(sp)
80002d94: 2a ec        	sd	a0, 24(sp)
80002d96: 21 05        	addi	a0, a0, 8
80002d98: 97 e0 ff ff  	auipc	ra, 1048574
80002d9c: e7 80 20 9e  	jalr	-1566(ra)
80002da0: 2a e4        	sd	a0, 8(sp)
80002da2: 09 a0        	j	2 <spin::once::Once<T>::force_get::hd7e0015e1132bdc1+0x14>
80002da4: 22 65        	ld	a0, 8(sp)
80002da6: 97 00 00 00  	auipc	ra, 0
80002daa: e7 80 20 9c  	jalr	-1598(ra)
80002dae: 2a e8        	sd	a0, 16(sp)
80002db0: 09 a0        	j	2 <spin::once::Once<T>::force_get::hd7e0015e1132bdc1+0x22>
80002db2: 42 65        	ld	a0, 16(sp)
80002db4: b3 35 a0 00  	snez	a1, a0
80002db8: 01 46        	mv	a2, zero
80002dba: 63 09 c5 00  	beq	a0, a2, 18 <spin::once::Once<T>::force_get::hd7e0015e1132bdc1+0x3c>
80002dbe: 09 a0        	j	2 <spin::once::Once<T>::force_get::hd7e0015e1132bdc1+0x30>
80002dc0: 42 65        	ld	a0, 16(sp)
80002dc2: 2a f0        	sd	a0, 32(sp)
80002dc4: a2 70        	ld	ra, 40(sp)
80002dc6: 45 61        	addi	sp, sp, 48
80002dc8: 82 80        	ret
80002dca: 00 00        	unimp	
80002dcc: 97 f0 ff ff  	auipc	ra, 1048575
80002dd0: e7 80 40 1f  	jalr	500(ra)
80002dd4: 00 00        	unimp	

0000000080002dd6 <core::slice::iter::Iter<T>::new::h97fd547f2abacb17>:
80002dd6: 19 71        	addi	sp, sp, -128
80002dd8: 86 fc        	sd	ra, 120(sp)
80002dda: aa f0        	sd	a0, 96(sp)
80002ddc: ae f4        	sd	a1, 104(sp)
80002dde: aa e0        	sd	a0, 64(sp)
80002de0: 2e fc        	sd	a1, 56(sp)
80002de2: 97 00 00 00  	auipc	ra, 0
80002de6: e7 80 00 72  	jalr	1824(ra)
80002dea: aa 85        	add	a1, zero, a0
80002dec: aa f8        	sd	a0, 112(sp)
80002dee: 2e f8        	sd	a1, 48(sp)
80002df0: 09 a0        	j	2 <core::slice::iter::Iter<T>::new::h97fd547f2abacb17+0x1c>
80002df2: 42 75        	ld	a0, 48(sp)
80002df4: 97 e0 ff ff  	auipc	ra, 1048574
80002df8: e7 80 20 e5  	jalr	-430(ra)
80002dfc: 09 a0        	j	2 <core::slice::iter::Iter<T>::new::h97fd547f2abacb17+0x28>
80002dfe: 09 a0        	j	2 <core::slice::iter::Iter<T>::new::h97fd547f2abacb17+0x2a>
80002e00: 97 f0 ff ff  	auipc	ra, 1048575
80002e04: e7 80 a0 d2  	jalr	-726(ra)
80002e08: 2a f4        	sd	a0, 40(sp)
80002e0a: 09 a0        	j	2 <core::slice::iter::Iter<T>::new::h97fd547f2abacb17+0x36>
80002e0c: 01 45        	mv	a0, zero
80002e0e: a2 75        	ld	a1, 40(sp)
80002e10: 63 8b a5 00  	beq	a1, a0, 22 <core::slice::iter::Iter<T>::new::h97fd547f2abacb17+0x50>
80002e14: 09 a0        	j	2 <core::slice::iter::Iter<T>::new::h97fd547f2abacb17+0x40>
80002e16: 06 65        	ld	a0, 64(sp)
80002e18: e2 75        	ld	a1, 56(sp)
80002e1a: 97 00 00 00  	auipc	ra, 0
80002e1e: e7 80 80 6b  	jalr	1720(ra)
80002e22: 2a f0        	sd	a0, 32(sp)
80002e24: 25 a0        	j	40 <core::slice::iter::Iter<T>::new::h97fd547f2abacb17+0x76>
80002e26: 06 65        	ld	a0, 64(sp)
80002e28: e2 75        	ld	a1, 56(sp)
80002e2a: 97 00 00 00  	auipc	ra, 0
80002e2e: e7 80 80 6a  	jalr	1704(ra)
80002e32: 2a ec        	sd	a0, 24(sp)
80002e34: 09 a0        	j	2 <core::slice::iter::Iter<T>::new::h97fd547f2abacb17+0x60>
80002e36: 42 75        	ld	a0, 48(sp)
80002e38: e2 65        	ld	a1, 24(sp)
80002e3a: 97 e0 ff ff  	auipc	ra, 1048574
80002e3e: e7 80 20 d9  	jalr	-622(ra)
80002e42: 2a e8        	sd	a0, 16(sp)
80002e44: 09 a0        	j	2 <core::slice::iter::Iter<T>::new::h97fd547f2abacb17+0x70>
80002e46: 42 65        	ld	a0, 16(sp)
80002e48: aa ec        	sd	a0, 88(sp)
80002e4a: 11 a8        	j	20 <core::slice::iter::Iter<T>::new::h97fd547f2abacb17+0x88>
80002e4c: 42 75        	ld	a0, 48(sp)
80002e4e: 82 75        	ld	a1, 32(sp)
80002e50: 97 e0 ff ff  	auipc	ra, 1048574
80002e54: e7 80 60 dc  	jalr	-570(ra)
80002e58: aa ec        	sd	a0, 88(sp)
80002e5a: 09 a0        	j	2 <core::slice::iter::Iter<T>::new::h97fd547f2abacb17+0x86>
80002e5c: 09 a0        	j	2 <core::slice::iter::Iter<T>::new::h97fd547f2abacb17+0x88>
80002e5e: 42 75        	ld	a0, 48(sp)
80002e60: 97 f0 ff ff  	auipc	ra, 1048575
80002e64: e7 80 e0 98  	jalr	-1650(ra)
80002e68: 2a e4        	sd	a0, 8(sp)
80002e6a: 09 a0        	j	2 <core::slice::iter::Iter<T>::new::h97fd547f2abacb17+0x96>
80002e6c: 66 65        	ld	a0, 88(sp)
80002e6e: a2 65        	ld	a1, 8(sp)
80002e70: ae e4        	sd	a1, 72(sp)
80002e72: aa e8        	sd	a0, 80(sp)
80002e74: 2a e0        	sd	a0, 0(sp)
80002e76: 2e 85        	add	a0, zero, a1
80002e78: 82 65        	ld	a1, 0(sp)
80002e7a: e6 70        	ld	ra, 120(sp)
80002e7c: 09 61        	addi	sp, sp, 128
80002e7e: 82 80        	ret

0000000080002e80 <core::slice::iter::IterMut<T>::new::hab88c3095ae9184a>:
80002e80: 75 71        	addi	sp, sp, -144
80002e82: 06 e5        	sd	ra, 136(sp)
80002e84: aa f8        	sd	a0, 112(sp)
80002e86: ae fc        	sd	a1, 120(sp)
80002e88: aa e8        	sd	a0, 80(sp)
80002e8a: ae e4        	sd	a1, 72(sp)
80002e8c: 97 f0 ff ff  	auipc	ra, 1048575
80002e90: e7 80 40 e7  	jalr	-396(ra)
80002e94: aa 85        	add	a1, zero, a0
80002e96: 2a e1        	sd	a0, 128(sp)
80002e98: ae e0        	sd	a1, 64(sp)
80002e9a: 09 a0        	j	2 <core::slice::iter::IterMut<T>::new::hab88c3095ae9184a+0x1c>
80002e9c: 06 65        	ld	a0, 64(sp)
80002e9e: 97 f0 ff ff  	auipc	ra, 1048575
80002ea2: e7 80 00 d3  	jalr	-720(ra)
80002ea6: 09 a0        	j	2 <core::slice::iter::IterMut<T>::new::hab88c3095ae9184a+0x28>
80002ea8: 09 a0        	j	2 <core::slice::iter::IterMut<T>::new::hab88c3095ae9184a+0x2a>
80002eaa: 97 f0 ff ff  	auipc	ra, 1048575
80002eae: e7 80 40 c8  	jalr	-892(ra)
80002eb2: 2a fc        	sd	a0, 56(sp)
80002eb4: 09 a0        	j	2 <core::slice::iter::IterMut<T>::new::hab88c3095ae9184a+0x36>
80002eb6: 01 45        	mv	a0, zero
80002eb8: e2 75        	ld	a1, 56(sp)
80002eba: 63 8b a5 00  	beq	a1, a0, 22 <core::slice::iter::IterMut<T>::new::hab88c3095ae9184a+0x50>
80002ebe: 09 a0        	j	2 <core::slice::iter::IterMut<T>::new::hab88c3095ae9184a+0x40>
80002ec0: 46 65        	ld	a0, 80(sp)
80002ec2: a6 65        	ld	a1, 72(sp)
80002ec4: 97 f0 ff ff  	auipc	ra, 1048575
80002ec8: e7 80 60 e4  	jalr	-442(ra)
80002ecc: 2a f8        	sd	a0, 48(sp)
80002ece: 3d a0        	j	46 <core::slice::iter::IterMut<T>::new::hab88c3095ae9184a+0x7c>
80002ed0: 06 65        	ld	a0, 64(sp)
80002ed2: c6 65        	ld	a1, 80(sp)
80002ed4: 2a f4        	sd	a0, 40(sp)
80002ed6: 2e 85        	add	a0, zero, a1
80002ed8: a6 65        	ld	a1, 72(sp)
80002eda: 97 f0 ff ff  	auipc	ra, 1048575
80002ede: e7 80 00 e3  	jalr	-464(ra)
80002ee2: 2a f0        	sd	a0, 32(sp)
80002ee4: 09 a0        	j	2 <core::slice::iter::IterMut<T>::new::hab88c3095ae9184a+0x66>
80002ee6: 22 75        	ld	a0, 40(sp)
80002ee8: 82 75        	ld	a1, 32(sp)
80002eea: 97 e0 ff ff  	auipc	ra, 1048574
80002eee: e7 80 a0 bc  	jalr	-1078(ra)
80002ef2: 2a ec        	sd	a0, 24(sp)
80002ef4: 09 a0        	j	2 <core::slice::iter::IterMut<T>::new::hab88c3095ae9184a+0x76>
80002ef6: 62 65        	ld	a0, 24(sp)
80002ef8: aa f4        	sd	a0, 104(sp)
80002efa: 11 a8        	j	20 <core::slice::iter::IterMut<T>::new::hab88c3095ae9184a+0x8e>
80002efc: 06 65        	ld	a0, 64(sp)
80002efe: c2 75        	ld	a1, 48(sp)
80002f00: 97 f0 ff ff  	auipc	ra, 1048575
80002f04: e7 80 00 c4  	jalr	-960(ra)
80002f08: aa f4        	sd	a0, 104(sp)
80002f0a: 09 a0        	j	2 <core::slice::iter::IterMut<T>::new::hab88c3095ae9184a+0x8c>
80002f0c: 09 a0        	j	2 <core::slice::iter::IterMut<T>::new::hab88c3095ae9184a+0x8e>
80002f0e: 06 65        	ld	a0, 64(sp)
80002f10: 97 f0 ff ff  	auipc	ra, 1048575
80002f14: e7 80 40 8d  	jalr	-1836(ra)
80002f18: 2a e8        	sd	a0, 16(sp)
80002f1a: 09 a0        	j	2 <core::slice::iter::IterMut<T>::new::hab88c3095ae9184a+0x9c>
80002f1c: 26 75        	ld	a0, 104(sp)
80002f1e: c2 65        	ld	a1, 16(sp)
80002f20: ae ec        	sd	a1, 88(sp)
80002f22: aa f0        	sd	a0, 96(sp)
80002f24: 2a e4        	sd	a0, 8(sp)
80002f26: 2e 85        	add	a0, zero, a1
80002f28: a2 65        	ld	a1, 8(sp)
80002f2a: aa 60        	ld	ra, 136(sp)
80002f2c: 49 61        	addi	sp, sp, 144
80002f2e: 82 80        	ret

0000000080002f30 <core::slice::iter::<impl core::iter::traits::collect::IntoIterator for &[T]>::into_iter::haf4391775840e12d>:
80002f30: 79 71        	addi	sp, sp, -48
80002f32: 06 f4        	sd	ra, 40(sp)
80002f34: 2a ec        	sd	a0, 24(sp)
80002f36: 2e f0        	sd	a1, 32(sp)
80002f38: 97 00 00 00  	auipc	ra, 0
80002f3c: e7 80 a0 5a  	jalr	1450(ra)
80002f40: 2a e8        	sd	a0, 16(sp)
80002f42: 2e e4        	sd	a1, 8(sp)
80002f44: 09 a0        	j	2 <core::slice::iter::<impl core::iter::traits::collect::IntoIterator for &[T]>::into_iter::haf4391775840e12d+0x16>
80002f46: 42 65        	ld	a0, 16(sp)
80002f48: a2 65        	ld	a1, 8(sp)
80002f4a: a2 70        	ld	ra, 40(sp)
80002f4c: 45 61        	addi	sp, sp, 48
80002f4e: 82 80        	ret

0000000080002f50 <<core::slice::iter::Iter<T> as core::iter::traits::iterator::Iterator>::next::h2d2f58cd090f2c8a>:
80002f50: 59 71        	addi	sp, sp, -112
80002f52: 86 f4        	sd	ra, 104(sp)
80002f54: aa e0        	sd	a0, 64(sp)
80002f56: 0c 61        	ld	a1, 0(a0)
80002f58: 2a f8        	sd	a0, 48(sp)
80002f5a: 2e 85        	add	a0, zero, a1
80002f5c: 97 f0 ff ff  	auipc	ra, 1048575
80002f60: e7 80 c0 89  	jalr	-1892(ra)
80002f64: 2a f4        	sd	a0, 40(sp)
80002f66: 09 a0        	j	2 <<core::slice::iter::Iter<T> as core::iter::traits::iterator::Iterator>::next::h2d2f58cd090f2c8a+0x18>
80002f68: 22 75        	ld	a0, 40(sp)
80002f6a: 97 e0 ff ff  	auipc	ra, 1048574
80002f6e: e7 80 c0 c2  	jalr	-980(ra)
80002f72: 09 a0        	j	2 <<core::slice::iter::Iter<T> as core::iter::traits::iterator::Iterator>::next::h2d2f58cd090f2c8a+0x24>
80002f74: 09 a0        	j	2 <<core::slice::iter::Iter<T> as core::iter::traits::iterator::Iterator>::next::h2d2f58cd090f2c8a+0x26>
80002f76: 97 f0 ff ff  	auipc	ra, 1048575
80002f7a: e7 80 40 bb  	jalr	-1100(ra)
80002f7e: 2a f0        	sd	a0, 32(sp)
80002f80: 09 a0        	j	2 <<core::slice::iter::Iter<T> as core::iter::traits::iterator::Iterator>::next::h2d2f58cd090f2c8a+0x32>
80002f82: 01 45        	mv	a0, zero
80002f84: 82 75        	ld	a1, 32(sp)
80002f86: 63 94 a5 00  	bne	a1, a0, 8 <<core::slice::iter::Iter<T> as core::iter::traits::iterator::Iterator>::next::h2d2f58cd090f2c8a+0x3e>
80002f8a: 09 a0        	j	2 <<core::slice::iter::Iter<T> as core::iter::traits::iterator::Iterator>::next::h2d2f58cd090f2c8a+0x3c>
80002f8c: 11 a8        	j	20 <<core::slice::iter::Iter<T> as core::iter::traits::iterator::Iterator>::next::h2d2f58cd090f2c8a+0x50>
80002f8e: 42 75        	ld	a0, 48(sp)
80002f90: 08 65        	ld	a0, 8(a0)
80002f92: 97 e0 ff ff  	auipc	ra, 1048574
80002f96: e7 80 40 cb  	jalr	-844(ra)
80002f9a: 09 a0        	j	2 <<core::slice::iter::Iter<T> as core::iter::traits::iterator::Iterator>::next::h2d2f58cd090f2c8a+0x4c>
80002f9c: 09 a0        	j	2 <<core::slice::iter::Iter<T> as core::iter::traits::iterator::Iterator>::next::h2d2f58cd090f2c8a+0x4e>
80002f9e: 09 a0        	j	2 <<core::slice::iter::Iter<T> as core::iter::traits::iterator::Iterator>::next::h2d2f58cd090f2c8a+0x50>
80002fa0: 42 75        	ld	a0, 48(sp)
80002fa2: 08 61        	ld	a0, 0(a0)
80002fa4: 97 f0 ff ff  	auipc	ra, 1048575
80002fa8: e7 80 40 85  	jalr	-1964(ra)
80002fac: 2a ec        	sd	a0, 24(sp)
80002fae: 09 a0        	j	2 <<core::slice::iter::Iter<T> as core::iter::traits::iterator::Iterator>::next::h2d2f58cd090f2c8a+0x60>
80002fb0: 42 75        	ld	a0, 48(sp)
80002fb2: 0c 65        	ld	a1, 8(a0)
80002fb4: 62 66        	ld	a2, 24(sp)
80002fb6: 63 0f b6 06  	beq	a2, a1, 126 <<core::slice::iter::Iter<T> as core::iter::traits::iterator::Iterator>::next::h2d2f58cd090f2c8a+0xe4>
80002fba: 09 a0        	j	2 <<core::slice::iter::Iter<T> as core::iter::traits::iterator::Iterator>::next::h2d2f58cd090f2c8a+0x6c>
80002fbc: 42 75        	ld	a0, 48(sp)
80002fbe: aa e8        	sd	a0, 80(sp)
80002fc0: 85 45        	addi	a1, zero, 1
80002fc2: ae ec        	sd	a1, 88(sp)
80002fc4: 97 f0 ff ff  	auipc	ra, 1048575
80002fc8: e7 80 60 b6  	jalr	-1178(ra)
80002fcc: 81 45        	mv	a1, zero
80002fce: 63 00 b5 04  	beq	a0, a1, 64 <<core::slice::iter::Iter<T> as core::iter::traits::iterator::Iterator>::next::h2d2f58cd090f2c8a+0xbe>
80002fd2: 09 a0        	j	2 <<core::slice::iter::Iter<T> as core::iter::traits::iterator::Iterator>::next::h2d2f58cd090f2c8a+0x84>
80002fd4: 42 75        	ld	a0, 48(sp)
80002fd6: 08 61        	ld	a0, 0(a0)
80002fd8: 97 f0 ff ff  	auipc	ra, 1048575
80002fdc: e7 80 00 82  	jalr	-2016(ra)
80002fe0: aa f0        	sd	a0, 96(sp)
80002fe2: c2 75        	ld	a1, 48(sp)
80002fe4: 90 61        	ld	a2, 0(a1)
80002fe6: 2a e8        	sd	a0, 16(sp)
80002fe8: 32 85        	add	a0, zero, a2
80002fea: 97 f0 ff ff  	auipc	ra, 1048575
80002fee: e7 80 e0 80  	jalr	-2034(ra)
80002ff2: 85 45        	addi	a1, zero, 1
80002ff4: 97 e0 ff ff  	auipc	ra, 1048574
80002ff8: e7 80 80 b7  	jalr	-1160(ra)
80002ffc: 97 e0 ff ff  	auipc	ra, 1048574
80003000: e7 80 20 7f  	jalr	2034(ra)
80003004: c2 75        	ld	a1, 48(sp)
80003006: 88 e1        	sd	a0, 0(a1)
80003008: 42 65        	ld	a0, 16(sp)
8000300a: aa e4        	sd	a0, 72(sp)
8000300c: 0d a0        	j	34 <<core::slice::iter::Iter<T> as core::iter::traits::iterator::Iterator>::next::h2d2f58cd090f2c8a+0xde>
8000300e: 42 75        	ld	a0, 48(sp)
80003010: 08 65        	ld	a0, 8(a0)
80003012: fd 55        	addi	a1, zero, -1
80003014: 97 e0 ff ff  	auipc	ra, 1048574
80003018: e7 80 e0 be  	jalr	-1042(ra)
8000301c: c2 75        	ld	a1, 48(sp)
8000301e: 88 e5        	sd	a0, 8(a1)
80003020: 88 61        	ld	a0, 0(a1)
80003022: 97 e0 ff ff  	auipc	ra, 1048574
80003026: e7 80 60 7d  	jalr	2006(ra)
8000302a: aa e4        	sd	a0, 72(sp)
8000302c: 09 a0        	j	2 <<core::slice::iter::Iter<T> as core::iter::traits::iterator::Iterator>::next::h2d2f58cd090f2c8a+0xde>
8000302e: 26 65        	ld	a0, 72(sp)
80003030: 2a e4        	sd	a0, 8(sp)
80003032: 21 a0        	j	8 <<core::slice::iter::Iter<T> as core::iter::traits::iterator::Iterator>::next::h2d2f58cd090f2c8a+0xea>
80003034: 01 45        	mv	a0, zero
80003036: 2a fc        	sd	a0, 56(sp)
80003038: 21 a0        	j	8 <<core::slice::iter::Iter<T> as core::iter::traits::iterator::Iterator>::next::h2d2f58cd090f2c8a+0xf0>
8000303a: 22 65        	ld	a0, 8(sp)
8000303c: 2a fc        	sd	a0, 56(sp)
8000303e: 09 a0        	j	2 <<core::slice::iter::Iter<T> as core::iter::traits::iterator::Iterator>::next::h2d2f58cd090f2c8a+0xf0>
80003040: 62 75        	ld	a0, 56(sp)
80003042: a6 70        	ld	ra, 104(sp)
80003044: 65 61        	addi	sp, sp, 112
80003046: 82 80        	ret

0000000080003048 <<core::slice::iter::IterMut<T> as core::iter::traits::iterator::Iterator>::next::hc9b2995daba893a9>:
80003048: 59 71        	addi	sp, sp, -112
8000304a: 86 f4        	sd	ra, 104(sp)
8000304c: aa e0        	sd	a0, 64(sp)
8000304e: 0c 61        	ld	a1, 0(a0)
80003050: 2a f8        	sd	a0, 48(sp)
80003052: 2e 85        	add	a0, zero, a1
80003054: 97 e0 ff ff  	auipc	ra, 1048574
80003058: e7 80 c0 7a  	jalr	1964(ra)
8000305c: 2a f4        	sd	a0, 40(sp)
8000305e: 09 a0        	j	2 <<core::slice::iter::IterMut<T> as core::iter::traits::iterator::Iterator>::next::hc9b2995daba893a9+0x18>
80003060: 22 75        	ld	a0, 40(sp)
80003062: 97 f0 ff ff  	auipc	ra, 1048575
80003066: e7 80 c0 b6  	jalr	-1172(ra)
8000306a: 09 a0        	j	2 <<core::slice::iter::IterMut<T> as core::iter::traits::iterator::Iterator>::next::hc9b2995daba893a9+0x24>
8000306c: 09 a0        	j	2 <<core::slice::iter::IterMut<T> as core::iter::traits::iterator::Iterator>::next::hc9b2995daba893a9+0x26>
8000306e: 97 f0 ff ff  	auipc	ra, 1048575
80003072: e7 80 00 ac  	jalr	-1344(ra)
80003076: 2a f0        	sd	a0, 32(sp)
80003078: 09 a0        	j	2 <<core::slice::iter::IterMut<T> as core::iter::traits::iterator::Iterator>::next::hc9b2995daba893a9+0x32>
8000307a: 01 45        	mv	a0, zero
8000307c: 82 75        	ld	a1, 32(sp)
8000307e: 63 94 a5 00  	bne	a1, a0, 8 <<core::slice::iter::IterMut<T> as core::iter::traits::iterator::Iterator>::next::hc9b2995daba893a9+0x3e>
80003082: 09 a0        	j	2 <<core::slice::iter::IterMut<T> as core::iter::traits::iterator::Iterator>::next::hc9b2995daba893a9+0x3c>
80003084: 11 a8        	j	20 <<core::slice::iter::IterMut<T> as core::iter::traits::iterator::Iterator>::next::hc9b2995daba893a9+0x50>
80003086: 42 75        	ld	a0, 48(sp)
80003088: 08 65        	ld	a0, 8(a0)
8000308a: 97 f0 ff ff  	auipc	ra, 1048575
8000308e: e7 80 40 b4  	jalr	-1212(ra)
80003092: 09 a0        	j	2 <<core::slice::iter::IterMut<T> as core::iter::traits::iterator::Iterator>::next::hc9b2995daba893a9+0x4c>
80003094: 09 a0        	j	2 <<core::slice::iter::IterMut<T> as core::iter::traits::iterator::Iterator>::next::hc9b2995daba893a9+0x4e>
80003096: 09 a0        	j	2 <<core::slice::iter::IterMut<T> as core::iter::traits::iterator::Iterator>::next::hc9b2995daba893a9+0x50>
80003098: 42 75        	ld	a0, 48(sp)
8000309a: 08 61        	ld	a0, 0(a0)
8000309c: 97 e0 ff ff  	auipc	ra, 1048574
800030a0: e7 80 40 76  	jalr	1892(ra)
800030a4: 2a ec        	sd	a0, 24(sp)
800030a6: 09 a0        	j	2 <<core::slice::iter::IterMut<T> as core::iter::traits::iterator::Iterator>::next::hc9b2995daba893a9+0x60>
800030a8: 42 75        	ld	a0, 48(sp)
800030aa: 0c 65        	ld	a1, 8(a0)
800030ac: 62 66        	ld	a2, 24(sp)
800030ae: 63 0f b6 06  	beq	a2, a1, 126 <<core::slice::iter::IterMut<T> as core::iter::traits::iterator::Iterator>::next::hc9b2995daba893a9+0xe4>
800030b2: 09 a0        	j	2 <<core::slice::iter::IterMut<T> as core::iter::traits::iterator::Iterator>::next::hc9b2995daba893a9+0x6c>
800030b4: 42 75        	ld	a0, 48(sp)
800030b6: aa e8        	sd	a0, 80(sp)
800030b8: 85 45        	addi	a1, zero, 1
800030ba: ae ec        	sd	a1, 88(sp)
800030bc: 97 f0 ff ff  	auipc	ra, 1048575
800030c0: e7 80 20 a7  	jalr	-1422(ra)
800030c4: 81 45        	mv	a1, zero
800030c6: 63 00 b5 04  	beq	a0, a1, 64 <<core::slice::iter::IterMut<T> as core::iter::traits::iterator::Iterator>::next::hc9b2995daba893a9+0xbe>
800030ca: 09 a0        	j	2 <<core::slice::iter::IterMut<T> as core::iter::traits::iterator::Iterator>::next::hc9b2995daba893a9+0x84>
800030cc: 42 75        	ld	a0, 48(sp)
800030ce: 08 61        	ld	a0, 0(a0)
800030d0: 97 e0 ff ff  	auipc	ra, 1048574
800030d4: e7 80 00 73  	jalr	1840(ra)
800030d8: aa f0        	sd	a0, 96(sp)
800030da: c2 75        	ld	a1, 48(sp)
800030dc: 90 61        	ld	a2, 0(a1)
800030de: 2a e8        	sd	a0, 16(sp)
800030e0: 32 85        	add	a0, zero, a2
800030e2: 97 e0 ff ff  	auipc	ra, 1048574
800030e6: e7 80 e0 71  	jalr	1822(ra)
800030ea: 85 45        	addi	a1, zero, 1
800030ec: 97 f0 ff ff  	auipc	ra, 1048575
800030f0: e7 80 c0 ac  	jalr	-1332(ra)
800030f4: 97 e0 ff ff  	auipc	ra, 1048574
800030f8: e7 80 00 6f  	jalr	1776(ra)
800030fc: c2 75        	ld	a1, 48(sp)
800030fe: 88 e1        	sd	a0, 0(a1)
80003100: 42 65        	ld	a0, 16(sp)
80003102: aa e4        	sd	a0, 72(sp)
80003104: 0d a0        	j	34 <<core::slice::iter::IterMut<T> as core::iter::traits::iterator::Iterator>::next::hc9b2995daba893a9+0xde>
80003106: 42 75        	ld	a0, 48(sp)
80003108: 08 65        	ld	a0, 8(a0)
8000310a: fd 55        	addi	a1, zero, -1
8000310c: 97 e0 ff ff  	auipc	ra, 1048574
80003110: e7 80 c0 9f  	jalr	-1540(ra)
80003114: c2 75        	ld	a1, 48(sp)
80003116: 88 e5        	sd	a0, 8(a1)
80003118: 88 61        	ld	a0, 0(a1)
8000311a: 97 e0 ff ff  	auipc	ra, 1048574
8000311e: e7 80 60 6e  	jalr	1766(ra)
80003122: aa e4        	sd	a0, 72(sp)
80003124: 09 a0        	j	2 <<core::slice::iter::IterMut<T> as core::iter::traits::iterator::Iterator>::next::hc9b2995daba893a9+0xde>
80003126: 26 65        	ld	a0, 72(sp)
80003128: 2a e4        	sd	a0, 8(sp)
8000312a: 21 a0        	j	8 <<core::slice::iter::IterMut<T> as core::iter::traits::iterator::Iterator>::next::hc9b2995daba893a9+0xea>
8000312c: 01 45        	mv	a0, zero
8000312e: 2a fc        	sd	a0, 56(sp)
80003130: 21 a0        	j	8 <<core::slice::iter::IterMut<T> as core::iter::traits::iterator::Iterator>::next::hc9b2995daba893a9+0xf0>
80003132: 22 65        	ld	a0, 8(sp)
80003134: 2a fc        	sd	a0, 56(sp)
80003136: 09 a0        	j	2 <<core::slice::iter::IterMut<T> as core::iter::traits::iterator::Iterator>::next::hc9b2995daba893a9+0xf0>
80003138: 62 75        	ld	a0, 56(sp)
8000313a: a6 70        	ld	ra, 104(sp)
8000313c: 65 61        	addi	sp, sp, 112
8000313e: 82 80        	ret

0000000080003140 <core::cmp::impls::<impl core::cmp::PartialOrd for usize>::le::h02d4ba7498255603>:
80003140: 41 11        	addi	sp, sp, -16
80003142: 2a e0        	sd	a0, 0(sp)
80003144: 2e e4        	sd	a1, 8(sp)
80003146: 08 61        	ld	a0, 0(a0)
80003148: 8c 61        	ld	a1, 0(a1)
8000314a: 33 b5 a5 00  	sltu	a0, a1, a0
8000314e: 13 45 15 00  	xori	a0, a0, 1
80003152: 41 01        	addi	sp, sp, 16
80003154: 82 80        	ret

0000000080003156 <core::cmp::impls::<impl core::cmp::PartialOrd for usize>::lt::hd243d3df148536ee>:
80003156: 41 11        	addi	sp, sp, -16
80003158: 2a e0        	sd	a0, 0(sp)
8000315a: 2e e4        	sd	a1, 8(sp)
8000315c: 08 61        	ld	a0, 0(a0)
8000315e: 8c 61        	ld	a1, 0(a1)
80003160: 33 35 b5 00  	sltu	a0, a0, a1
80003164: 41 01        	addi	sp, sp, 16
80003166: 82 80        	ret

0000000080003168 <core::mem::maybe_uninit::MaybeUninit<T>::as_mut_ptr::h552c162da1398a32>:
80003168: 41 11        	addi	sp, sp, -16
8000316a: 2a e4        	sd	a0, 8(sp)
8000316c: 41 01        	addi	sp, sp, 16
8000316e: 82 80        	ret

0000000080003170 <core::mem::maybe_uninit::MaybeUninit<T>::as_mut_ptr::h85f43197c8433004>:
80003170: 41 11        	addi	sp, sp, -16
80003172: 2a e4        	sd	a0, 8(sp)
80003174: 41 01        	addi	sp, sp, 16
80003176: 82 80        	ret

0000000080003178 <core::mem::maybe_uninit::MaybeUninit<T>::as_mut_ptr::hb8fed78b711d84fb>:
80003178: 41 11        	addi	sp, sp, -16
8000317a: 2a e4        	sd	a0, 8(sp)
8000317c: 41 01        	addi	sp, sp, 16
8000317e: 82 80        	ret

0000000080003180 <core::mem::maybe_uninit::MaybeUninit<T>::as_mut_ptr::hd4293047be1e98ea>:
80003180: 41 11        	addi	sp, sp, -16
80003182: 2a e4        	sd	a0, 8(sp)
80003184: 41 01        	addi	sp, sp, 16
80003186: 82 80        	ret

0000000080003188 <core::mem::maybe_uninit::MaybeUninit<T>::assume_init::hbef6a02aa27b7821>:
80003188: 01 11        	addi	sp, sp, -32
8000318a: 06 ec        	sd	ra, 24(sp)
8000318c: 2a e8        	sd	a0, 16(sp)
8000318e: 2a e4        	sd	a0, 8(sp)
80003190: 09 a0        	j	2 <core::mem::maybe_uninit::MaybeUninit<T>::assume_init::hbef6a02aa27b7821+0xa>
80003192: 22 65        	ld	a0, 8(sp)
80003194: 97 f0 ff ff  	auipc	ra, 1048575
80003198: e7 80 c0 7f  	jalr	2044(ra)
8000319c: 2a e0        	sd	a0, 0(sp)
8000319e: 09 a0        	j	2 <core::mem::maybe_uninit::MaybeUninit<T>::assume_init::hbef6a02aa27b7821+0x18>
800031a0: 02 65        	ld	a0, 0(sp)
800031a2: e2 60        	ld	ra, 24(sp)
800031a4: 05 61        	addi	sp, sp, 32
800031a6: 82 80        	ret

00000000800031a8 <core::mem::maybe_uninit::MaybeUninit<T>::assume_init::hda7cd71beeb83de9>:
800031a8: 01 11        	addi	sp, sp, -32
800031aa: 06 ec        	sd	ra, 24(sp)
800031ac: 2a e8        	sd	a0, 16(sp)
800031ae: 2a e4        	sd	a0, 8(sp)
800031b0: 09 a0        	j	2 <core::mem::maybe_uninit::MaybeUninit<T>::assume_init::hda7cd71beeb83de9+0xa>
800031b2: 22 65        	ld	a0, 8(sp)
800031b4: 97 f0 ff ff  	auipc	ra, 1048575
800031b8: e7 80 40 7e  	jalr	2020(ra)
800031bc: 2a e0        	sd	a0, 0(sp)
800031be: 09 a0        	j	2 <core::mem::maybe_uninit::MaybeUninit<T>::assume_init::hda7cd71beeb83de9+0x18>
800031c0: 02 65        	ld	a0, 0(sp)
800031c2: e2 60        	ld	ra, 24(sp)
800031c4: 05 61        	addi	sp, sp, 32
800031c6: 82 80        	ret

00000000800031c8 <core::mem::maybe_uninit::MaybeUninit<T>::uninit::h1e872b947046a4ba>:
800031c8: 41 11        	addi	sp, sp, -16
800031ca: 41 01        	addi	sp, sp, 16
800031cc: 82 80        	ret

00000000800031ce <core::mem::maybe_uninit::MaybeUninit<T>::uninit::h248c8c5fe206cd6c>:
800031ce: 41 11        	addi	sp, sp, -16
800031d0: 41 01        	addi	sp, sp, 16
800031d2: 82 80        	ret

00000000800031d4 <core::mem::maybe_uninit::MaybeUninit<T>::uninit::h5bb5b1c2bc20754f>:
800031d4: 41 11        	addi	sp, sp, -16
800031d6: 02 65        	ld	a0, 0(sp)
800031d8: 41 01        	addi	sp, sp, 16
800031da: 82 80        	ret

00000000800031dc <core::mem::maybe_uninit::MaybeUninit<T>::uninit::hcdef73989e425058>:
800031dc: 41 11        	addi	sp, sp, -16
800031de: 02 65        	ld	a0, 0(sp)
800031e0: 41 01        	addi	sp, sp, 16
800031e2: 82 80        	ret

00000000800031e4 <qor_os::mem::pagetable::Entry::get_bit::hf007b40659a1b058>:
800031e4: 41 11        	addi	sp, sp, -16
800031e6: 2a e0        	sd	a0, 0(sp)
800031e8: 2e e4        	sd	a1, 8(sp)
800031ea: 08 61        	ld	a0, 0(a0)
800031ec: 6d 8d        	and	a0, a0, a1
800031ee: 33 35 a0 00  	snez	a0, a0
800031f2: 41 01        	addi	sp, sp, 16
800031f4: 82 80        	ret

00000000800031f6 <qor_os::mem::pagetable::Entry::set_bit::h4dc6037ff2e47de7>:
800031f6: 39 71        	addi	sp, sp, -64
800031f8: b2 86        	add	a3, zero, a2
800031fa: 2a f0        	sd	a0, 32(sp)
800031fc: 2e f4        	sd	a1, 40(sp)
800031fe: a3 0b c1 02  	sb	a2, 55(sp)
80003202: 2e fc        	sd	a1, 56(sp)
80003204: 18 61        	ld	a4, 0(a0)
80003206: 93 c7 f5 ff  	not	a5, a1
8000320a: 7d 8f        	and	a4, a4, a5
8000320c: 2e e8        	sd	a1, 16(sp)
8000320e: 2a e4        	sd	a0, 8(sp)
80003210: 3a e0        	sd	a4, 0(sp)
80003212: 09 e6        	bnez	a2, 10 <qor_os::mem::pagetable::Entry::set_bit::h4dc6037ff2e47de7+0x26>
80003214: 09 a0        	j	2 <qor_os::mem::pagetable::Entry::set_bit::h4dc6037ff2e47de7+0x20>
80003216: 01 45        	mv	a0, zero
80003218: 2a ec        	sd	a0, 24(sp)
8000321a: 21 a0        	j	8 <qor_os::mem::pagetable::Entry::set_bit::h4dc6037ff2e47de7+0x2c>
8000321c: 42 65        	ld	a0, 16(sp)
8000321e: 2a ec        	sd	a0, 24(sp)
80003220: 09 a0        	j	2 <qor_os::mem::pagetable::Entry::set_bit::h4dc6037ff2e47de7+0x2c>
80003222: 62 65        	ld	a0, 24(sp)
80003224: 82 65        	ld	a1, 0(sp)
80003226: 4d 8d        	or	a0, a0, a1
80003228: 22 66        	ld	a2, 8(sp)
8000322a: 08 e2        	sd	a0, 0(a2)
8000322c: 21 61        	addi	sp, sp, 64
8000322e: 82 80        	ret

0000000080003230 <qor_os::mem::pagetable::Entry::get_ppn::hc6fb620a77a531e5>:
80003230: 41 11        	addi	sp, sp, -16
80003232: 2a e4        	sd	a0, 8(sp)
80003234: 08 61        	ld	a0, 0(a0)
80003236: 29 81        	srli	a0, a0, 10
80003238: 2a e0        	sd	a0, 0(sp)
8000323a: 09 a0        	j	2 <qor_os::mem::pagetable::Entry::get_ppn::hc6fb620a77a531e5+0xc>
8000323c: 05 45        	addi	a0, zero, 1
8000323e: 32 15        	slli	a0, a0, 44
80003240: 7d 15        	addi	a0, a0, -1
80003242: 82 65        	ld	a1, 0(sp)
80003244: 6d 8d        	and	a0, a0, a1
80003246: 41 01        	addi	sp, sp, 16
80003248: 82 80        	ret

000000008000324a <qor_os::mem::pagetable::Entry::is_valid::hbac65eef6d90a170>:
8000324a: 01 11        	addi	sp, sp, -32
8000324c: 06 ec        	sd	ra, 24(sp)
8000324e: 2a e8        	sd	a0, 16(sp)
80003250: 85 45        	addi	a1, zero, 1
80003252: 2e e4        	sd	a1, 8(sp)
80003254: 97 00 00 00  	auipc	ra, 0
80003258: e7 80 00 f9  	jalr	-112(ra)
8000325c: 2a e0        	sd	a0, 0(sp)
8000325e: 09 a0        	j	2 <qor_os::mem::pagetable::Entry::is_valid::hbac65eef6d90a170+0x16>
80003260: 02 65        	ld	a0, 0(sp)
80003262: e2 60        	ld	ra, 24(sp)
80003264: 05 61        	addi	sp, sp, 32
80003266: 82 80        	ret

0000000080003268 <qor_os::mem::pagetable::Entry::is_leaf::hc85fbff1321067e5>:
80003268: 1d 71        	addi	sp, sp, -96
8000326a: 86 ec        	sd	ra, 88(sp)
8000326c: aa e8        	sd	a0, 80(sp)
8000326e: a1 45        	addi	a1, zero, 8
80003270: 2e fc        	sd	a1, 56(sp)
80003272: 2a f8        	sd	a0, 48(sp)
80003274: 97 00 00 00  	auipc	ra, 0
80003278: e7 80 00 f7  	jalr	-144(ra)
8000327c: 2a f4        	sd	a0, 40(sp)
8000327e: 09 a0        	j	2 <qor_os::mem::pagetable::Entry::is_leaf::hc85fbff1321067e5+0x18>
80003280: 09 45        	addi	a0, zero, 2
80003282: aa e0        	sd	a0, 64(sp)
80003284: c2 75        	ld	a1, 48(sp)
80003286: 2a f0        	sd	a0, 32(sp)
80003288: 2e 85        	add	a0, zero, a1
8000328a: 82 75        	ld	a1, 32(sp)
8000328c: 97 00 00 00  	auipc	ra, 0
80003290: e7 80 80 f5  	jalr	-168(ra)
80003294: 2a ec        	sd	a0, 24(sp)
80003296: 09 a0        	j	2 <qor_os::mem::pagetable::Entry::is_leaf::hc85fbff1321067e5+0x30>
80003298: 22 75        	ld	a0, 40(sp)
8000329a: e2 65        	ld	a1, 24(sp)
8000329c: 33 66 b5 00  	or	a2, a0, a1
800032a0: 91 46        	addi	a3, zero, 4
800032a2: b6 e4        	sd	a3, 72(sp)
800032a4: 42 75        	ld	a0, 48(sp)
800032a6: b6 85        	add	a1, zero, a3
800032a8: 32 e8        	sd	a2, 16(sp)
800032aa: 97 00 00 00  	auipc	ra, 0
800032ae: e7 80 a0 f3  	jalr	-198(ra)
800032b2: 2a e4        	sd	a0, 8(sp)
800032b4: 09 a0        	j	2 <qor_os::mem::pagetable::Entry::is_leaf::hc85fbff1321067e5+0x4e>
800032b6: 42 65        	ld	a0, 16(sp)
800032b8: a2 65        	ld	a1, 8(sp)
800032ba: 4d 8d        	or	a0, a0, a1
800032bc: e6 60        	ld	ra, 88(sp)
800032be: 25 61        	addi	sp, sp, 96
800032c0: 82 80        	ret

00000000800032c2 <qor_os::mem::pagetable::Entry::get_data::hf5895b927f4ba7ca>:
800032c2: 41 11        	addi	sp, sp, -16
800032c4: 2a e4        	sd	a0, 8(sp)
800032c6: 08 61        	ld	a0, 0(a0)
800032c8: 41 01        	addi	sp, sp, 16
800032ca: 82 80        	ret

00000000800032cc <qor_os::mem::pagetable::Entry::set_data::hee2c0c520bf098e0>:
800032cc: 41 11        	addi	sp, sp, -16
800032ce: 2a e0        	sd	a0, 0(sp)
800032d0: 2e e4        	sd	a1, 8(sp)
800032d2: 0c e1        	sd	a1, 0(a0)
800032d4: 41 01        	addi	sp, sp, 16
800032d6: 82 80        	ret

00000000800032d8 <qor_os::mem::pagetable::Table::new::heed9341120052cd1>:
800032d8: 13 01 01 81  	addi	sp, sp, -2032
800032dc: 23 34 11 7e  	sd	ra, 2024(sp)
800032e0: 85 65        	lui	a1, 1
800032e2: 9b 85 05 8c  	addiw	a1, a1, -1856
800032e6: 33 01 b1 40  	sub	sp, sp, a1
800032ea: 85 65        	lui	a1, 1
800032ec: 9b 85 05 08  	addiw	a1, a1, 128
800032f0: 8a 95        	add	a1, a1, sp
800032f2: 88 e1        	sd	a0, 0(a1)
800032f4: 85 45        	addi	a1, zero, 1
800032f6: d2 15        	slli	a1, a1, 52
800032f8: fd 15        	addi	a1, a1, -1
800032fa: e9 8d        	and	a1, a1, a0
800032fc: 13 16 c5 00  	slli	a2, a0, 12
80003300: b2 ec        	sd	a2, 88(sp)
80003302: 63 9d a5 10  	bne	a1, a0, 282 <.LBB7_15>
80003306: 09 a0        	j	2 <qor_os::mem::pagetable::Table::new::heed9341120052cd1+0x30>
80003308: 66 65        	ld	a0, 88(sp)
8000330a: e6 65        	ld	a1, 88(sp)
8000330c: 05 66        	lui	a2, 1
8000330e: 1b 06 86 08  	addiw	a2, a2, 136
80003312: 0a 96        	add	a2, a2, sp
80003314: 0c e2        	sd	a1, 0(a2)
80003316: 90 10        	addi	a2, sp, 96
80003318: 85 66        	lui	a3, 1
8000331a: aa e8        	sd	a0, 80(sp)
8000331c: 32 85        	add	a0, zero, a2
8000331e: b2 e4        	sd	a2, 72(sp)
80003320: 36 86        	add	a2, zero, a3
80003322: 97 30 00 00  	auipc	ra, 3
80003326: e7 80 60 e2  	jalr	-474(ra)
8000332a: a6 65        	ld	a1, 72(sp)
8000332c: aa e0        	sd	a0, 64(sp)
8000332e: 2e 85        	add	a0, zero, a1
80003330: 97 f0 ff ff  	auipc	ra, 1048575
80003334: e7 80 a0 9a  	jalr	-1622(ra)
80003338: 2a fc        	sd	a0, 56(sp)
8000333a: 2e f8        	sd	a1, 48(sp)
8000333c: 09 a0        	j	2 <qor_os::mem::pagetable::Table::new::heed9341120052cd1+0x66>
8000333e: 62 75        	ld	a0, 56(sp)
80003340: c2 75        	ld	a1, 48(sp)
80003342: 97 f0 ff ff  	auipc	ra, 1048575
80003346: e7 80 80 9f  	jalr	-1544(ra)
8000334a: 2a f4        	sd	a0, 40(sp)
8000334c: 2e f0        	sd	a1, 32(sp)
8000334e: 09 a0        	j	2 <qor_os::mem::pagetable::Table::new::heed9341120052cd1+0x78>
80003350: 22 75        	ld	a0, 40(sp)
80003352: 85 65        	lui	a1, 1
80003354: 9b 85 05 06  	addiw	a1, a1, 96
80003358: 8a 95        	add	a1, a1, sp
8000335a: 88 e1        	sd	a0, 0(a1)
8000335c: 82 75        	ld	a1, 32(sp)
8000335e: 05 65        	lui	a0, 1
80003360: 1b 05 85 06  	addiw	a0, a0, 104
80003364: 0a 95        	add	a0, a0, sp
80003366: 0c e1        	sd	a1, 0(a0)
80003368: 09 a0        	j	2 <qor_os::mem::pagetable::Table::new::heed9341120052cd1+0x92>
8000336a: 05 65        	lui	a0, 1
8000336c: 1b 05 05 06  	addiw	a0, a0, 96
80003370: 0a 95        	add	a0, a0, sp
80003372: 2a 85        	add	a0, zero, a0
80003374: 97 00 00 00  	auipc	ra, 0
80003378: e7 80 40 cd  	jalr	-812(ra)
8000337c: 85 65        	lui	a1, 1
8000337e: 9b 85 05 07  	addiw	a1, a1, 112
80003382: 8a 95        	add	a1, a1, sp
80003384: 88 e1        	sd	a0, 0(a1)
80003386: 09 a0        	j	2 <qor_os::mem::pagetable::Table::new::heed9341120052cd1+0xb0>
80003388: 05 65        	lui	a0, 1
8000338a: 1b 05 05 07  	addiw	a0, a0, 112
8000338e: 0a 95        	add	a0, a0, sp
80003390: 08 61        	ld	a0, 0(a0)
80003392: b3 35 a0 00  	snez	a1, a0
80003396: 01 46        	mv	a2, zero
80003398: 63 04 c5 00  	beq	a0, a2, 8 <qor_os::mem::pagetable::Table::new::heed9341120052cd1+0xc8>
8000339c: 09 a0        	j	2 <qor_os::mem::pagetable::Table::new::heed9341120052cd1+0xc6>
8000339e: 09 a8        	j	18 <qor_os::mem::pagetable::Table::new::heed9341120052cd1+0xd8>
800033a0: 46 65        	ld	a0, 80(sp)
800033a2: 97 e0 ff ff  	auipc	ra, 1048574
800033a6: e7 80 80 7e  	jalr	2024(ra)
800033aa: 2a ec        	sd	a0, 24(sp)
800033ac: 99 a0        	j	70 <.LBB7_14>
800033ae: 00 00        	unimp	
800033b0: 05 65        	lui	a0, 1
800033b2: 1b 05 05 07  	addiw	a0, a0, 112
800033b6: 0a 95        	add	a0, a0, sp
800033b8: 08 61        	ld	a0, 0(a0)
800033ba: 85 65        	lui	a1, 1
800033bc: 9b 85 05 09  	addiw	a1, a1, 144
800033c0: 8a 95        	add	a1, a1, sp
800033c2: 88 e1        	sd	a0, 0(a1)
800033c4: 85 65        	lui	a1, 1
800033c6: 9b 85 85 09  	addiw	a1, a1, 152
800033ca: 8a 95        	add	a1, a1, sp
800033cc: 88 e1        	sd	a0, 0(a1)
800033ce: 85 65        	lui	a1, 1
800033d0: 9b 85 05 0a  	addiw	a1, a1, 160
800033d4: 8a 95        	add	a1, a1, sp
800033d6: 88 e1        	sd	a0, 0(a1)
800033d8: 85 45        	addi	a1, zero, 1
800033da: 05 66        	lui	a2, 1
800033dc: 1b 06 86 07  	addiw	a2, a2, 120
800033e0: 0a 96        	add	a2, a2, sp
800033e2: 0c e2        	sd	a1, 0(a2)
800033e4: 01 46        	mv	a2, zero
800033e6: 97 00 00 00  	auipc	ra, 0
800033ea: e7 80 00 e1  	jalr	-496(ra)
800033ee: 09 a0        	j	2 <qor_os::mem::pagetable::Table::new::heed9341120052cd1+0x118>
800033f0: ad bf        	j	-134 <qor_os::mem::pagetable::Table::new::heed9341120052cd1+0x92>

00000000800033f2 <.LBB7_14>:
800033f2: 97 45 00 00  	auipc	a1, 4
800033f6: 93 85 65 8d  	addi	a1, a1, -1834
800033fa: 62 65        	ld	a0, 24(sp)
800033fc: 97 f0 ff ff  	auipc	ra, 1048575
80003400: e7 80 40 43  	jalr	1076(ra)
80003404: 2a e8        	sd	a0, 16(sp)
80003406: 09 a0        	j	2 <.LBB7_14+0x16>
80003408: 42 65        	ld	a0, 16(sp)
8000340a: 85 65        	lui	a1, 1
8000340c: 9b 85 05 8c  	addiw	a1, a1, -1856
80003410: 2e 91        	add	sp, sp, a1
80003412: 83 30 81 7e  	ld	ra, 2024(sp)
80003416: 13 01 01 7f  	addi	sp, sp, 2032
8000341a: 82 80        	ret

000000008000341c <.LBB7_15>:
8000341c: 17 45 00 00  	auipc	a0, 4
80003420: 13 05 45 88  	addi	a0, a0, -1916

0000000080003424 <.LBB7_16>:
80003424: 17 46 00 00  	auipc	a2, 4
80003428: 13 06 c6 85  	addi	a2, a2, -1956
8000342c: 93 05 10 02  	addi	a1, zero, 33
80003430: 97 20 00 00  	auipc	ra, 2
80003434: e7 80 a0 ee  	jalr	-278(ra)
80003438: 00 00        	unimp	

000000008000343a <<qor_os::mem::pagetable::Table as core::ops::index::Index<usize>>::index::h02ca350646e9a1c8>:
8000343a: 79 71        	addi	sp, sp, -48
8000343c: 2a f0        	sd	a0, 32(sp)
8000343e: 2e f4        	sd	a1, 40(sp)
80003440: 93 06 f0 1f  	addi	a3, zero, 511
80003444: 32 ec        	sd	a2, 24(sp)
80003446: 2e e8        	sd	a1, 16(sp)
80003448: 2a e4        	sd	a0, 8(sp)
8000344a: 63 eb b6 00  	bltu	a3, a1, 22 <<qor_os::mem::pagetable::Table as core::ops::index::Index<usize>>::index::h02ca350646e9a1c8+0x26>
8000344e: 09 a0        	j	2 <<qor_os::mem::pagetable::Table as core::ops::index::Index<usize>>::index::h02ca350646e9a1c8+0x16>
80003450: 42 65        	ld	a0, 16(sp)
80003452: 93 15 35 00  	slli	a1, a0, 3
80003456: 22 66        	ld	a2, 8(sp)
80003458: 33 05 b6 00  	add	a0, a2, a1
8000345c: 45 61        	addi	sp, sp, 48
8000345e: 82 80        	ret
80003460: 93 05 00 20  	addi	a1, zero, 512
80003464: 42 65        	ld	a0, 16(sp)
80003466: 62 66        	ld	a2, 24(sp)
80003468: 97 20 00 00  	auipc	ra, 2
8000346c: e7 80 e0 ed  	jalr	-290(ra)
80003470: 00 00        	unimp	

0000000080003472 <<qor_os::mem::pagetable::Table as core::ops::index::IndexMut<usize>>::index_mut::h06e8a19f4b89c4a0>:
80003472: 79 71        	addi	sp, sp, -48
80003474: 2a f0        	sd	a0, 32(sp)
80003476: 2e f4        	sd	a1, 40(sp)
80003478: 93 06 f0 1f  	addi	a3, zero, 511
8000347c: 32 ec        	sd	a2, 24(sp)
8000347e: 2e e8        	sd	a1, 16(sp)
80003480: 2a e4        	sd	a0, 8(sp)
80003482: 63 eb b6 00  	bltu	a3, a1, 22 <<qor_os::mem::pagetable::Table as core::ops::index::IndexMut<usize>>::index_mut::h06e8a19f4b89c4a0+0x26>
80003486: 09 a0        	j	2 <<qor_os::mem::pagetable::Table as core::ops::index::IndexMut<usize>>::index_mut::h06e8a19f4b89c4a0+0x16>
80003488: 42 65        	ld	a0, 16(sp)
8000348a: 93 15 35 00  	slli	a1, a0, 3
8000348e: 22 66        	ld	a2, 8(sp)
80003490: 33 05 b6 00  	add	a0, a2, a1
80003494: 45 61        	addi	sp, sp, 48
80003496: 82 80        	ret
80003498: 93 05 00 20  	addi	a1, zero, 512
8000349c: 42 65        	ld	a0, 16(sp)
8000349e: 62 66        	ld	a2, 24(sp)
800034a0: 97 20 00 00  	auipc	ra, 2
800034a4: e7 80 60 ea  	jalr	-346(ra)
800034a8: 00 00        	unimp	

00000000800034aa <core::num::<impl usize>::unchecked_add::hffaa20e1fee74604>:
800034aa: 01 11        	addi	sp, sp, -32
800034ac: 2a e4        	sd	a0, 8(sp)
800034ae: 2e e8        	sd	a1, 16(sp)
800034b0: 2e 95        	add	a0, a0, a1
800034b2: 2a ec        	sd	a0, 24(sp)
800034b4: 2a e0        	sd	a0, 0(sp)
800034b6: 09 a0        	j	2 <core::num::<impl usize>::unchecked_add::hffaa20e1fee74604+0xe>
800034b8: 02 65        	ld	a0, 0(sp)
800034ba: 05 61        	addi	sp, sp, 32
800034bc: 82 80        	ret

00000000800034be <core::num::<impl usize>::unchecked_sub::hd0bccaf7b3f7da54>:
800034be: 01 11        	addi	sp, sp, -32
800034c0: 2a e4        	sd	a0, 8(sp)
800034c2: 2e e8        	sd	a1, 16(sp)
800034c4: 0d 8d        	sub	a0, a0, a1
800034c6: 2a ec        	sd	a0, 24(sp)
800034c8: 2a e0        	sd	a0, 0(sp)
800034ca: 09 a0        	j	2 <core::num::<impl usize>::unchecked_sub::hd0bccaf7b3f7da54+0xe>
800034cc: 02 65        	ld	a0, 0(sp)
800034ce: 05 61        	addi	sp, sp, 32
800034d0: 82 80        	ret

00000000800034d2 <core::slice::<impl [T]>::len::hf205b65ce56a94b9>:
800034d2: 01 11        	addi	sp, sp, -32
800034d4: 2a e8        	sd	a0, 16(sp)
800034d6: 2e ec        	sd	a1, 24(sp)
800034d8: 2a e0        	sd	a0, 0(sp)
800034da: 2e e4        	sd	a1, 8(sp)
800034dc: 2e 85        	add	a0, zero, a1
800034de: 05 61        	addi	sp, sp, 32
800034e0: 82 80        	ret

00000000800034e2 <core::slice::<impl [T]>::iter::h1cb32f1a4d47b722>:
800034e2: 79 71        	addi	sp, sp, -48
800034e4: 06 f4        	sd	ra, 40(sp)
800034e6: 2a ec        	sd	a0, 24(sp)
800034e8: 2e f0        	sd	a1, 32(sp)
800034ea: 97 00 00 00  	auipc	ra, 0
800034ee: e7 80 c0 8e  	jalr	-1812(ra)
800034f2: 2a e8        	sd	a0, 16(sp)
800034f4: 2e e4        	sd	a1, 8(sp)
800034f6: 09 a0        	j	2 <core::slice::<impl [T]>::iter::h1cb32f1a4d47b722+0x16>
800034f8: 42 65        	ld	a0, 16(sp)
800034fa: a2 65        	ld	a1, 8(sp)
800034fc: a2 70        	ld	ra, 40(sp)
800034fe: 45 61        	addi	sp, sp, 48
80003500: 82 80        	ret

0000000080003502 <core::slice::<impl [T]>::as_ptr::h7e3e4e4b7dbe1da6>:
80003502: 41 11        	addi	sp, sp, -16
80003504: 2a e0        	sd	a0, 0(sp)
80003506: 2e e4        	sd	a1, 8(sp)
80003508: 41 01        	addi	sp, sp, 16
8000350a: 82 80        	ret

000000008000350c <kinit>:
8000350c: 55 71        	addi	sp, sp, -208
8000350e: 86 e5        	sd	ra, 200(sp)
80003510: 97 00 00 00  	auipc	ra, 0
80003514: e7 80 00 50  	jalr	1280(ra)
80003518: 09 a0        	j	2 <kinit+0xe>
8000351a: 97 e0 ff ff  	auipc	ra, 1048574
8000351e: e7 80 00 b4  	jalr	-1216(ra)
80003522: 09 a0        	j	2 <kinit+0x18>
80003524: 97 00 00 00  	auipc	ra, 0
80003528: e7 80 a0 71  	jalr	1818(ra)
8000352c: 09 a0        	j	2 <kinit+0x22>
8000352e: 97 10 00 00  	auipc	ra, 1
80003532: e7 80 e0 53  	jalr	1342(ra)
80003536: 09 a0        	j	2 <kinit+0x2c>
80003538: 97 00 00 00  	auipc	ra, 0
8000353c: e7 80 c0 4b  	jalr	1212(ra)
80003540: aa e4        	sd	a0, 72(sp)
80003542: 09 a0        	j	2 <kinit+0x38>
80003544: 37 05 08 00  	lui	a0, 128
80003548: 0d 25        	addiw	a0, a0, 3
8000354a: 32 05        	slli	a0, a0, 12
8000354c: 13 05 65 5e  	addi	a0, a0, 1510
80003550: 97 10 00 00  	auipc	ra, 1
80003554: e7 80 20 1e  	jalr	482(ra)
80003558: aa e0        	sd	a0, 64(sp)
8000355a: 2e fc        	sd	a1, 56(sp)
8000355c: 09 a0        	j	2 <.LBB0_13>

000000008000355e <.LBB0_13>:
8000355e: 17 36 00 00  	auipc	a2, 3
80003562: 13 06 a6 7d  	addi	a2, a2, 2010
80003566: 06 65        	ld	a0, 64(sp)
80003568: e2 75        	ld	a1, 56(sp)
8000356a: 97 f0 ff ff  	auipc	ra, 1048575
8000356e: e7 80 20 33  	jalr	818(ra)
80003572: 2a f9        	sd	a0, 176(sp)
80003574: 09 a0        	j	2 <.LBB0_14>

0000000080003576 <.LBB0_14>:
80003576: 17 35 00 00  	auipc	a0, 3
8000357a: 13 05 a5 7a  	addi	a0, a0, 1962
8000357e: 2a f1        	sd	a0, 160(sp)
80003580: 0c 19        	addi	a1, sp, 176
80003582: 2e f5        	sd	a1, 168(sp)
80003584: 2a fd        	sd	a0, 184(sp)
80003586: ae e1        	sd	a1, 192(sp)

0000000080003588 <.LBB0_15>:
80003588: 17 26 00 00  	auipc	a2, 2
8000358c: 13 06 86 7c  	addi	a2, a2, 1992
80003590: 2e f8        	sd	a1, 48(sp)
80003592: b2 85        	add	a1, zero, a2
80003594: 97 d0 ff ff  	auipc	ra, 1048573
80003598: e7 80 00 4b  	jalr	1200(ra)
8000359c: 2a f4        	sd	a0, 40(sp)
8000359e: 2e f0        	sd	a1, 32(sp)
800035a0: 09 a0        	j	2 <.LBB0_16>

00000000800035a2 <.LBB0_16>:
800035a2: 97 25 00 00  	auipc	a1, 2
800035a6: 93 85 e5 7a  	addi	a1, a1, 1966
800035aa: 42 75        	ld	a0, 48(sp)
800035ac: 97 d0 ff ff  	auipc	ra, 1048573
800035b0: e7 80 80 49  	jalr	1176(ra)
800035b4: 2a ec        	sd	a0, 24(sp)
800035b6: 2e e8        	sd	a1, 16(sp)
800035b8: 09 a0        	j	2 <.LBB0_16+0x18>
800035ba: 22 75        	ld	a0, 40(sp)
800035bc: 2a e1        	sd	a0, 128(sp)
800035be: 82 75        	ld	a1, 32(sp)
800035c0: 2e e5        	sd	a1, 136(sp)
800035c2: 62 66        	ld	a2, 24(sp)
800035c4: 32 e9        	sd	a2, 144(sp)
800035c6: c2 66        	ld	a3, 16(sp)
800035c8: 36 ed        	sd	a3, 152(sp)

00000000800035ca <.LBB0_17>:
800035ca: 97 35 00 00  	auipc	a1, 3
800035ce: 93 85 65 72  	addi	a1, a1, 1830
800035d2: 88 08        	addi	a0, sp, 80
800035d4: 0d 46        	addi	a2, zero, 3
800035d6: 14 01        	addi	a3, sp, 128
800035d8: 09 47        	addi	a4, zero, 2
800035da: 97 00 00 00  	auipc	ra, 0
800035de: e7 80 80 57  	jalr	1400(ra)
800035e2: 09 a0        	j	2 <.LBB0_17+0x1a>
800035e4: a8 00        	addi	a0, sp, 72
800035e6: 8c 08        	addi	a1, sp, 80
800035e8: 97 d0 ff ff  	auipc	ra, 1048573
800035ec: e7 80 c0 0c  	jalr	204(ra)
800035f0: 09 a0        	j	2 <.LBB0_17+0x28>
800035f2: 97 20 00 00  	auipc	ra, 2
800035f6: e7 80 e0 b0  	jalr	-1266(ra)
800035fa: 2a e4        	sd	a0, 8(sp)
800035fc: 09 a0        	j	2 <.LBB0_17+0x34>
800035fe: 22 65        	ld	a0, 8(sp)
80003600: ae 60        	ld	ra, 200(sp)
80003602: 69 61        	addi	sp, sp, 208
80003604: 82 80        	ret

0000000080003606 <kmain>:
80003606: 39 71        	addi	sp, sp, -64
80003608: 06 fc        	sd	ra, 56(sp)
8000360a: 97 00 00 00  	auipc	ra, 0
8000360e: e7 80 a0 3e  	jalr	1002(ra)
80003612: 2a e0        	sd	a0, 0(sp)
80003614: 09 a0        	j	2 <.LBB1_4>

0000000080003616 <.LBB1_4>:
80003616: 97 35 00 00  	auipc	a1, 3
8000361a: 93 85 a5 74  	addi	a1, a1, 1866

000000008000361e <.LBB1_5>:
8000361e: 97 36 00 00  	auipc	a3, 3
80003622: 93 86 26 75  	addi	a3, a3, 1874
80003626: 28 00        	addi	a0, sp, 8
80003628: 05 46        	addi	a2, zero, 1
8000362a: 01 47        	mv	a4, zero
8000362c: 97 00 00 00  	auipc	ra, 0
80003630: e7 80 60 52  	jalr	1318(ra)
80003634: 09 a0        	j	2 <.LBB1_5+0x18>
80003636: 0a 85        	add	a0, zero, sp
80003638: 2c 00        	addi	a1, sp, 8
8000363a: 97 d0 ff ff  	auipc	ra, 1048573
8000363e: e7 80 a0 07  	jalr	122(ra)
80003642: 09 a0        	j	2 <.LBB1_5+0x26>
80003644: e2 70        	ld	ra, 56(sp)
80003646: 21 61        	addi	sp, sp, 64
80003648: 82 80        	ret

000000008000364a <core::char::methods::encode_utf8_raw::ha97f08951e0b3022>:
8000364a: 45 71        	addi	sp, sp, -464
8000364c: 86 e7        	sd	ra, 456(sp)
8000364e: aa 86        	add	a3, zero, a0
80003650: 2a cf        	sw	a0, 156(sp)
80003652: ae ea        	sd	a1, 336(sp)
80003654: b2 ee        	sd	a2, 344(sp)
80003656: 32 e9        	sd	a2, 144(sp)
80003658: 2e e5        	sd	a1, 136(sp)
8000365a: 36 e1        	sd	a3, 128(sp)
8000365c: 97 00 00 00  	auipc	ra, 0
80003660: e7 80 40 27  	jalr	628(ra)
80003664: 2a f1        	sd	a0, 160(sp)
80003666: 09 a0        	j	2 <core::char::methods::encode_utf8_raw::ha97f08951e0b3022+0x1e>
80003668: 0a 75        	ld	a0, 160(sp)

000000008000366a <.LBB0_22>:
8000366a: 17 36 00 00  	auipc	a2, 3
8000366e: 13 06 e6 78  	addi	a2, a2, 1934
80003672: aa 65        	ld	a1, 136(sp)
80003674: aa fc        	sd	a0, 120(sp)
80003676: 2e 85        	add	a0, zero, a1
80003678: ca 65        	ld	a1, 144(sp)
8000367a: 97 d0 ff ff  	auipc	ra, 1048573
8000367e: e7 80 a0 41  	jalr	1050(ra)
80003682: aa f8        	sd	a0, 112(sp)
80003684: ae f4        	sd	a1, 104(sp)
80003686: 09 a0        	j	2 <.LBB0_22+0x1e>
80003688: 66 75        	ld	a0, 120(sp)
8000368a: 2a f5        	sd	a0, 168(sp)
8000368c: c6 75        	ld	a1, 112(sp)
8000368e: 2e f9        	sd	a1, 176(sp)
80003690: 26 76        	ld	a2, 104(sp)
80003692: 32 fd        	sd	a2, 184(sp)
80003694: 85 46        	addi	a3, zero, 1
80003696: 66 77        	ld	a4, 120(sp)
80003698: aa f0        	sd	a0, 96(sp)
8000369a: 63 02 d7 02  	beq	a4, a3, 36 <.LBB0_22+0x54>
8000369e: 09 a0        	j	2 <.LBB0_22+0x36>
800036a0: 09 45        	addi	a0, zero, 2
800036a2: 86 75        	ld	a1, 96(sp)
800036a4: 63 8a a5 02  	beq	a1, a0, 52 <.LBB0_22+0x6e>
800036a8: 09 a0        	j	2 <.LBB0_22+0x40>
800036aa: 0d 45        	addi	a0, zero, 3
800036ac: 86 75        	ld	a1, 96(sp)
800036ae: 63 8a a5 02  	beq	a1, a0, 52 <.LBB0_22+0x78>
800036b2: 09 a0        	j	2 <.LBB0_22+0x4a>
800036b4: 11 45        	addi	a0, zero, 4
800036b6: 86 75        	ld	a1, 96(sp)
800036b8: 63 8a a5 02  	beq	a1, a0, 52 <.LBB0_22+0x82>
800036bc: 31 a0        	j	12 <.LBB0_22+0x5e>
800036be: 6a 75        	ld	a0, 184(sp)
800036c0: 81 45        	mv	a1, zero
800036c2: 63 1a b5 02  	bne	a0, a1, 52 <.LBB0_22+0x8c>
800036c6: 09 a0        	j	2 <.LBB0_22+0x5e>
800036c8: 2a 65        	ld	a0, 136(sp)
800036ca: ca 65        	ld	a1, 144(sp)
800036cc: 97 00 00 00  	auipc	ra, 0
800036d0: e7 80 60 e0  	jalr	-506(ra)
800036d4: aa e2        	sd	a0, 320(sp)
800036d6: fd a0        	j	238 <.LBB0_22+0x15a>
800036d8: 6a 75        	ld	a0, 184(sp)
800036da: 85 45        	addi	a1, zero, 1
800036dc: 63 e4 a5 02  	bltu	a1, a0, 40 <.LBB0_22+0x9a>
800036e0: e5 b7        	j	-24 <.LBB0_22+0x5e>
800036e2: 6a 75        	ld	a0, 184(sp)
800036e4: 89 45        	addi	a1, zero, 2
800036e6: 63 e4 a5 04  	bltu	a1, a0, 72 <.LBB0_22+0xc4>
800036ea: f9 bf        	j	-34 <.LBB0_22+0x5e>
800036ec: 6a 75        	ld	a0, 184(sp)
800036ee: 8d 45        	addi	a1, zero, 3
800036f0: 63 ef a5 06  	bltu	a1, a0, 126 <.LBB0_22+0x104>
800036f4: d1 bf        	j	-44 <.LBB0_22+0x5e>
800036f6: 4a 75        	ld	a0, 176(sp)
800036f8: 2a f7        	sd	a0, 424(sp)
800036fa: 83 05 c1 09  	lb	a1, 156(sp)
800036fe: 23 00 b5 00  	sb	a1, 0(a0)
80003702: a5 a2        	j	360 <.LBB0_27+0x14>
80003704: 4a 75        	ld	a0, 176(sp)
80003706: 2a ef        	sd	a0, 408(sp)
80003708: 93 05 15 00  	addi	a1, a0, 1
8000370c: 2e f3        	sd	a1, 416(sp)
8000370e: fa 45        	lw	a1, 156(sp)
80003710: 99 81        	srli	a1, a1, 6
80003712: fd 89        	andi	a1, a1, 31
80003714: 93 e5 05 0c  	ori	a1, a1, 192
80003718: 23 00 b5 00  	sb	a1, 0(a0)
8000371c: 83 45 c1 09  	lbu	a1, 156(sp)
80003720: 93 f5 f5 03  	andi	a1, a1, 63
80003724: 93 e5 05 08  	ori	a1, a1, 128
80003728: a3 00 b5 00  	sb	a1, 1(a0)
8000372c: 3d aa        	j	318 <.LBB0_27+0x14>
8000372e: 4a 75        	ld	a0, 176(sp)
80003730: 2a e3        	sd	a0, 384(sp)
80003732: 93 05 15 00  	addi	a1, a0, 1
80003736: 2e e7        	sd	a1, 392(sp)
80003738: 93 05 25 00  	addi	a1, a0, 2
8000373c: 2e eb        	sd	a1, 400(sp)
8000373e: fa 45        	lw	a1, 156(sp)
80003740: b1 81        	srli	a1, a1, 12
80003742: bd 89        	andi	a1, a1, 15
80003744: 93 e5 05 0e  	ori	a1, a1, 224
80003748: 23 00 b5 00  	sb	a1, 0(a0)
8000374c: fa 45        	lw	a1, 156(sp)
8000374e: 99 81        	srli	a1, a1, 6
80003750: 93 f5 f5 03  	andi	a1, a1, 63
80003754: 93 e5 05 08  	ori	a1, a1, 128
80003758: a3 00 b5 00  	sb	a1, 1(a0)
8000375c: 83 45 c1 09  	lbu	a1, 156(sp)
80003760: 93 f5 f5 03  	andi	a1, a1, 63
80003764: 93 e5 05 08  	ori	a1, a1, 128
80003768: 23 01 b5 00  	sb	a1, 2(a0)
8000376c: fd a8        	j	254 <.LBB0_27+0x14>
8000376e: 4a 75        	ld	a0, 176(sp)
80003770: aa f2        	sd	a0, 352(sp)
80003772: 93 05 15 00  	addi	a1, a0, 1
80003776: ae f6        	sd	a1, 360(sp)
80003778: 93 05 25 00  	addi	a1, a0, 2
8000377c: ae fa        	sd	a1, 368(sp)
8000377e: 93 05 35 00  	addi	a1, a0, 3
80003782: ae fe        	sd	a1, 376(sp)
80003784: fa 45        	lw	a1, 156(sp)
80003786: c9 81        	srli	a1, a1, 18
80003788: 9d 89        	andi	a1, a1, 7
8000378a: 93 e5 05 0f  	ori	a1, a1, 240
8000378e: 23 00 b5 00  	sb	a1, 0(a0)
80003792: fa 45        	lw	a1, 156(sp)
80003794: b1 81        	srli	a1, a1, 12
80003796: 93 f5 f5 03  	andi	a1, a1, 63
8000379a: 93 e5 05 08  	ori	a1, a1, 128
8000379e: a3 00 b5 00  	sb	a1, 1(a0)
800037a2: fa 45        	lw	a1, 156(sp)
800037a4: 99 81        	srli	a1, a1, 6
800037a6: 93 f5 f5 03  	andi	a1, a1, 63
800037aa: 93 e5 05 08  	ori	a1, a1, 128
800037ae: 23 01 b5 00  	sb	a1, 2(a0)
800037b2: 83 45 c1 09  	lbu	a1, 156(sp)
800037b6: 93 f5 f5 03  	andi	a1, a1, 63
800037ba: 93 e5 05 08  	ori	a1, a1, 128
800037be: a3 01 b5 00  	sb	a1, 3(a0)
800037c2: 65 a0        	j	168 <.LBB0_27+0x14>
800037c4: 08 11        	addi	a0, sp, 160
800037c6: 2a f6        	sd	a0, 296(sp)
800037c8: 6c 09        	addi	a1, sp, 156
800037ca: 2e fa        	sd	a1, 304(sp)
800037cc: 90 02        	addi	a2, sp, 320
800037ce: 32 fe        	sd	a2, 312(sp)
800037d0: 2a fb        	sd	a0, 432(sp)
800037d2: 2e ff        	sd	a1, 440(sp)
800037d4: b2 e3        	sd	a2, 448(sp)

00000000800037d6 <.LBB0_23>:
800037d6: 97 26 00 00  	auipc	a3, 2
800037da: 93 86 66 7b  	addi	a3, a3, 1974
800037de: ae ec        	sd	a1, 88(sp)
800037e0: b6 85        	add	a1, zero, a3
800037e2: b2 e8        	sd	a2, 80(sp)
800037e4: 97 d0 ff ff  	auipc	ra, 1048573
800037e8: e7 80 00 26  	jalr	608(ra)
800037ec: aa e4        	sd	a0, 72(sp)
800037ee: ae e0        	sd	a1, 64(sp)
800037f0: 09 a0        	j	2 <.LBB0_24>

00000000800037f2 <.LBB0_24>:
800037f2: 97 25 00 00  	auipc	a1, 2
800037f6: 93 85 25 46  	addi	a1, a1, 1122
800037fa: 66 65        	ld	a0, 88(sp)
800037fc: 97 d0 ff ff  	auipc	ra, 1048573
80003800: e7 80 40 20  	jalr	516(ra)
80003804: 2a fc        	sd	a0, 56(sp)
80003806: 2e f8        	sd	a1, 48(sp)
80003808: 09 a0        	j	2 <.LBB0_25>

000000008000380a <.LBB0_25>:
8000380a: 97 25 00 00  	auipc	a1, 2
8000380e: 93 85 25 78  	addi	a1, a1, 1922
80003812: 46 65        	ld	a0, 80(sp)
80003814: 97 d0 ff ff  	auipc	ra, 1048573
80003818: e7 80 00 23  	jalr	560(ra)
8000381c: 2a f4        	sd	a0, 40(sp)
8000381e: 2e f0        	sd	a1, 32(sp)
80003820: 09 a0        	j	2 <.LBB0_25+0x18>
80003822: 26 65        	ld	a0, 72(sp)
80003824: aa fd        	sd	a0, 248(sp)
80003826: 86 65        	ld	a1, 64(sp)
80003828: 2e e2        	sd	a1, 256(sp)
8000382a: 62 76        	ld	a2, 56(sp)
8000382c: 32 e6        	sd	a2, 264(sp)
8000382e: c2 76        	ld	a3, 48(sp)
80003830: 36 ea        	sd	a3, 272(sp)
80003832: 22 77        	ld	a4, 40(sp)
80003834: 3a ee        	sd	a4, 280(sp)
80003836: 82 77        	ld	a5, 32(sp)
80003838: 3e f2        	sd	a5, 288(sp)

000000008000383a <.LBB0_26>:
8000383a: 97 35 00 00  	auipc	a1, 3
8000383e: 93 85 e5 62  	addi	a1, a1, 1582
80003842: a8 01        	addi	a0, sp, 200
80003844: b4 19        	addi	a3, sp, 248
80003846: 0d 48        	addi	a6, zero, 3
80003848: 42 86        	add	a2, zero, a6
8000384a: 42 87        	add	a4, zero, a6
8000384c: 97 00 00 00  	auipc	ra, 0
80003850: e7 80 60 30  	jalr	774(ra)
80003854: 09 a0        	j	2 <.LBB0_27>

0000000080003856 <.LBB0_27>:
80003856: 97 35 00 00  	auipc	a1, 3
8000385a: 93 85 25 64  	addi	a1, a1, 1602
8000385e: a8 01        	addi	a0, sp, 200
80003860: 97 20 00 00  	auipc	ra, 2
80003864: e7 80 60 b2  	jalr	-1242(ra)
80003868: 00 00        	unimp	
8000386a: 0a 75        	ld	a0, 160(sp)
8000386c: aa e6        	sd	a0, 328(sp)

000000008000386e <.LBB0_28>:
8000386e: 97 36 00 00  	auipc	a3, 3
80003872: 93 86 26 5a  	addi	a3, a3, 1442
80003876: aa 65        	ld	a1, 136(sp)
80003878: 2a ec        	sd	a0, 24(sp)
8000387a: 2e 85        	add	a0, zero, a1
8000387c: ca 65        	ld	a1, 144(sp)
8000387e: 62 66        	ld	a2, 24(sp)
80003880: 97 d0 ff ff  	auipc	ra, 1048573
80003884: e7 80 60 1e  	jalr	486(ra)
80003888: 2a e8        	sd	a0, 16(sp)
8000388a: 2e e4        	sd	a1, 8(sp)
8000388c: 09 a0        	j	2 <.LBB0_28+0x20>
8000388e: 42 65        	ld	a0, 16(sp)
80003890: a2 65        	ld	a1, 8(sp)
80003892: be 60        	ld	ra, 456(sp)
80003894: 79 61        	addi	sp, sp, 464
80003896: 82 80        	ret

0000000080003898 <core::char::methods::<impl char>::encode_utf8::hf121252b767b95e2>:
80003898: 5d 71        	addi	sp, sp, -80
8000389a: 86 e4        	sd	ra, 72(sp)
8000389c: aa 86        	add	a3, zero, a0
8000389e: 2a da        	sw	a0, 52(sp)
800038a0: 2e fc        	sd	a1, 56(sp)
800038a2: b2 e0        	sd	a2, 64(sp)
800038a4: 36 f4        	sd	a3, 40(sp)
800038a6: 97 00 00 00  	auipc	ra, 0
800038aa: e7 80 40 da  	jalr	-604(ra)
800038ae: 2a f0        	sd	a0, 32(sp)
800038b0: 2e ec        	sd	a1, 24(sp)
800038b2: 09 a0        	j	2 <core::char::methods::<impl char>::encode_utf8::hf121252b767b95e2+0x1c>
800038b4: 02 75        	ld	a0, 32(sp)
800038b6: e2 65        	ld	a1, 24(sp)
800038b8: 97 e0 ff ff  	auipc	ra, 1048574
800038bc: e7 80 c0 21  	jalr	540(ra)
800038c0: 2a e8        	sd	a0, 16(sp)
800038c2: 2e e4        	sd	a1, 8(sp)
800038c4: 09 a0        	j	2 <core::char::methods::<impl char>::encode_utf8::hf121252b767b95e2+0x2e>
800038c6: 42 65        	ld	a0, 16(sp)
800038c8: a2 65        	ld	a1, 8(sp)
800038ca: a6 60        	ld	ra, 72(sp)
800038cc: 61 61        	addi	sp, sp, 80
800038ce: 82 80        	ret

00000000800038d0 <core::char::methods::len_utf8::h79960954f6f1ae68>:
800038d0: 01 11        	addi	sp, sp, -32
800038d2: 9b 05 05 00  	sext.w	a1, a0
800038d6: 2a 86        	add	a2, zero, a0
800038d8: 2a ce        	sw	a0, 28(sp)
800038da: 13 05 00 08  	addi	a0, zero, 128
800038de: 32 e4        	sd	a2, 8(sp)
800038e0: 63 ea a5 00  	bltu	a1, a0, 20 <core::char::methods::len_utf8::h79960954f6f1ae68+0x24>
800038e4: 09 a0        	j	2 <core::char::methods::len_utf8::h79960954f6f1ae68+0x16>
800038e6: 22 65        	ld	a0, 8(sp)
800038e8: 9b 55 b5 00  	srliw	a1, a0, 11
800038ec: 01 46        	mv	a2, zero
800038ee: 63 8d c5 00  	beq	a1, a2, 26 <core::char::methods::len_utf8::h79960954f6f1ae68+0x38>
800038f2: 21 a0        	j	8 <core::char::methods::len_utf8::h79960954f6f1ae68+0x2a>
800038f4: 05 45        	addi	a0, zero, 1
800038f6: 2a e8        	sd	a0, 16(sp)
800038f8: 1d a0        	j	38 <core::char::methods::len_utf8::h79960954f6f1ae68+0x4e>
800038fa: 22 65        	ld	a0, 8(sp)
800038fc: 9b 55 05 01  	srliw	a1, a0, 16
80003900: 01 46        	mv	a2, zero
80003902: 63 89 c5 00  	beq	a1, a2, 18 <core::char::methods::len_utf8::h79960954f6f1ae68+0x44>
80003906: 21 a0        	j	8 <core::char::methods::len_utf8::h79960954f6f1ae68+0x3e>
80003908: 09 45        	addi	a0, zero, 2
8000390a: 2a e8        	sd	a0, 16(sp)
8000390c: 01 a8        	j	16 <core::char::methods::len_utf8::h79960954f6f1ae68+0x4c>
8000390e: 11 45        	addi	a0, zero, 4
80003910: 2a e8        	sd	a0, 16(sp)
80003912: 21 a0        	j	8 <core::char::methods::len_utf8::h79960954f6f1ae68+0x4a>
80003914: 0d 45        	addi	a0, zero, 3
80003916: 2a e8        	sd	a0, 16(sp)
80003918: 09 a0        	j	2 <core::char::methods::len_utf8::h79960954f6f1ae68+0x4a>
8000391a: 09 a0        	j	2 <core::char::methods::len_utf8::h79960954f6f1ae68+0x4c>
8000391c: 09 a0        	j	2 <core::char::methods::len_utf8::h79960954f6f1ae68+0x4e>
8000391e: 42 65        	ld	a0, 16(sp)
80003920: 05 61        	addi	sp, sp, 32
80003922: 82 80        	ret

0000000080003924 <core::clone::impls::<impl core::clone::Clone for usize>::clone::he495a1975e29b1a1>:
80003924: 41 11        	addi	sp, sp, -16
80003926: 2a e4        	sd	a0, 8(sp)
80003928: 08 61        	ld	a0, 0(a0)
8000392a: 41 01        	addi	sp, sp, 16
8000392c: 82 80        	ret

000000008000392e <qor_os::drivers::uart::ops::uart_init::hb59eb842d025281b>:
8000392e: 39 71        	addi	sp, sp, -64
80003930: 06 fc        	sd	ra, 56(sp)
80003932: 2a f4        	sd	a0, 40(sp)
80003934: 8d 45        	addi	a1, zero, 3
80003936: a3 08 b1 02  	sb	a1, 49(sp)
8000393a: 2a f0        	sd	a0, 32(sp)
8000393c: 2e ec        	sd	a1, 24(sp)
8000393e: 62 66        	ld	a2, 24(sp)
80003940: 97 20 00 00  	auipc	ra, 2
80003944: e7 80 a0 85  	jalr	-1958(ra)
80003948: 09 a0        	j	2 <qor_os::drivers::uart::ops::uart_init::hb59eb842d025281b+0x1c>
8000394a: 05 45        	addi	a0, zero, 1
8000394c: 82 75        	ld	a1, 32(sp)
8000394e: 2a e8        	sd	a0, 16(sp)
80003950: 2e 85        	add	a0, zero, a1
80003952: c2 65        	ld	a1, 16(sp)
80003954: 42 66        	ld	a2, 16(sp)
80003956: 97 20 00 00  	auipc	ra, 2
8000395a: e7 80 40 84  	jalr	-1980(ra)
8000395e: 09 a0        	j	2 <qor_os::drivers::uart::ops::uart_init::hb59eb842d025281b+0x32>
80003960: 13 05 00 25  	addi	a0, zero, 592
80003964: 23 19 a1 02  	sh	a0, 50(sp)
80003968: 13 05 00 05  	addi	a0, zero, 80
8000396c: 23 1a a1 02  	sh	a0, 52(sp)
80003970: 09 45        	addi	a0, zero, 2
80003972: 23 1b a1 02  	sh	a0, 54(sp)
80003976: 8d 45        	addi	a1, zero, 3
80003978: 13 06 30 08  	addi	a2, zero, 131
8000397c: 02 75        	ld	a0, 32(sp)
8000397e: 97 20 00 00  	auipc	ra, 2
80003982: e7 80 c0 81  	jalr	-2020(ra)
80003986: 09 a0        	j	2 <qor_os::drivers::uart::ops::uart_init::hb59eb842d025281b+0x5a>
80003988: 01 45        	mv	a0, zero
8000398a: 13 06 00 05  	addi	a2, zero, 80
8000398e: 82 75        	ld	a1, 32(sp)
80003990: 2a e4        	sd	a0, 8(sp)
80003992: 2e 85        	add	a0, zero, a1
80003994: a2 65        	ld	a1, 8(sp)
80003996: 97 20 00 00  	auipc	ra, 2
8000399a: e7 80 40 80  	jalr	-2044(ra)
8000399e: 09 a0        	j	2 <qor_os::drivers::uart::ops::uart_init::hb59eb842d025281b+0x72>
800039a0: 85 45        	addi	a1, zero, 1
800039a2: 09 46        	addi	a2, zero, 2
800039a4: 02 75        	ld	a0, 32(sp)
800039a6: 97 10 00 00  	auipc	ra, 1
800039aa: e7 80 40 7f  	jalr	2036(ra)
800039ae: 09 a0        	j	2 <qor_os::drivers::uart::ops::uart_init::hb59eb842d025281b+0x82>
800039b0: 0d 45        	addi	a0, zero, 3
800039b2: 82 75        	ld	a1, 32(sp)
800039b4: 2a e0        	sd	a0, 0(sp)
800039b6: 2e 85        	add	a0, zero, a1
800039b8: 82 65        	ld	a1, 0(sp)
800039ba: 02 66        	ld	a2, 0(sp)
800039bc: 97 10 00 00  	auipc	ra, 1
800039c0: e7 80 e0 7d  	jalr	2014(ra)
800039c4: 09 a0        	j	2 <qor_os::drivers::uart::ops::uart_init::hb59eb842d025281b+0x98>
800039c6: e2 70        	ld	ra, 56(sp)
800039c8: 21 61        	addi	sp, sp, 64
800039ca: 82 80        	ret

00000000800039cc <qor_os::drivers::uart::ops::uart_write::h2d83f45a5ab897bb>:
800039cc: 79 71        	addi	sp, sp, -48
800039ce: 06 f4        	sd	ra, 40(sp)
800039d0: 2e 86        	add	a2, zero, a1
800039d2: 2a ec        	sd	a0, 24(sp)
800039d4: a3 03 b1 02  	sb	a1, 39(sp)
800039d8: 81 46        	mv	a3, zero
800039da: 2e e8        	sd	a1, 16(sp)
800039dc: b6 85        	add	a1, zero, a3
800039de: c2 66        	ld	a3, 16(sp)
800039e0: 32 e4        	sd	a2, 8(sp)
800039e2: 36 86        	add	a2, zero, a3
800039e4: 97 10 00 00  	auipc	ra, 1
800039e8: e7 80 60 7b  	jalr	1974(ra)
800039ec: 09 a0        	j	2 <qor_os::drivers::uart::ops::uart_write::h2d83f45a5ab897bb+0x22>
800039ee: a2 70        	ld	ra, 40(sp)
800039f0: 45 61        	addi	sp, sp, 48
800039f2: 82 80        	ret

00000000800039f4 <qor_os::drivers::get_uart_driver::h45c1b3e192a44c35>:
800039f4: 41 11        	addi	sp, sp, -16
800039f6: 06 e4        	sd	ra, 8(sp)
800039f8: 37 05 00 10  	lui	a0, 65536
800039fc: 97 e0 ff ff  	auipc	ra, 1048574
80003a00: e7 80 80 5c  	jalr	1480(ra)
80003a04: 2a e0        	sd	a0, 0(sp)
80003a06: 09 a0        	j	2 <qor_os::drivers::get_uart_driver::h45c1b3e192a44c35+0x14>
80003a08: 02 65        	ld	a0, 0(sp)
80003a0a: a2 60        	ld	ra, 8(sp)
80003a0c: 41 01        	addi	sp, sp, 16
80003a0e: 82 80        	ret

0000000080003a10 <qor_os::drivers::init_uart_driver::haaed5a119d57e47c>:
80003a10: 5d 71        	addi	sp, sp, -80
80003a12: 86 e4        	sd	ra, 72(sp)

0000000080003a14 <.LBB1_6>:
80003a14: 17 35 00 00  	auipc	a0, 3
80003a18: 13 05 c5 4c  	addi	a0, a0, 1228
80003a1c: 97 00 00 00  	auipc	ra, 0
80003a20: e7 80 80 05  	jalr	88(ra)
80003a24: 2a e4        	sd	a0, 8(sp)
80003a26: 09 a0        	j	2 <.LBB1_6+0x14>
80003a28: 22 65        	ld	a0, 8(sp)
80003a2a: 97 e0 ff ff  	auipc	ra, 1048574
80003a2e: e7 80 40 5a  	jalr	1444(ra)
80003a32: 09 a0        	j	2 <.LBB1_6+0x20>
80003a34: 97 00 00 00  	auipc	ra, 0
80003a38: e7 80 00 fc  	jalr	-64(ra)
80003a3c: 2a e8        	sd	a0, 16(sp)
80003a3e: 09 a0        	j	2 <.LBB1_7>

0000000080003a40 <.LBB1_7>:
80003a40: 97 35 00 00  	auipc	a1, 3
80003a44: 93 85 05 49  	addi	a1, a1, 1168

0000000080003a48 <.LBB1_8>:
80003a48: 97 36 00 00  	auipc	a3, 3
80003a4c: 93 86 86 49  	addi	a3, a3, 1176
80003a50: 28 08        	addi	a0, sp, 24
80003a52: 05 46        	addi	a2, zero, 1
80003a54: 01 47        	mv	a4, zero
80003a56: 97 00 00 00  	auipc	ra, 0
80003a5a: e7 80 c0 0f  	jalr	252(ra)
80003a5e: 09 a0        	j	2 <.LBB1_8+0x18>
80003a60: 08 08        	addi	a0, sp, 16
80003a62: 2c 08        	addi	a1, sp, 24
80003a64: 97 d0 ff ff  	auipc	ra, 1048573
80003a68: e7 80 00 c5  	jalr	-944(ra)
80003a6c: 09 a0        	j	2 <.LBB1_8+0x26>
80003a6e: a6 60        	ld	ra, 72(sp)
80003a70: 61 61        	addi	sp, sp, 80
80003a72: 82 80        	ret

0000000080003a74 <<qor_os::drivers::UART_DRIVER as core::ops::deref::Deref>::deref::h971476e5b5812918>:
80003a74: 01 11        	addi	sp, sp, -32
80003a76: 06 ec        	sd	ra, 24(sp)
80003a78: 2a e8        	sd	a0, 16(sp)

0000000080003a7a <.LBB2_2>:
80003a7a: 17 45 00 00  	auipc	a0, 4
80003a7e: 13 05 65 5b  	addi	a0, a0, 1462
80003a82: 97 e0 ff ff  	auipc	ra, 1048574
80003a86: e7 80 80 03  	jalr	56(ra)
80003a8a: 2a e4        	sd	a0, 8(sp)
80003a8c: 09 a0        	j	2 <.LBB2_2+0x14>
80003a8e: 22 65        	ld	a0, 8(sp)
80003a90: e2 60        	ld	ra, 24(sp)
80003a92: 05 61        	addi	sp, sp, 32
80003a94: 82 80        	ret

0000000080003a96 <<qor_os::drivers::UART_DRIVER as core::ops::deref::Deref>::deref::__static_ref_initialize::h5c87bad55a7d6b20>:
80003a96: 41 11        	addi	sp, sp, -16
80003a98: 06 e4        	sd	ra, 8(sp)
80003a9a: 37 05 00 10  	lui	a0, 65536
80003a9e: 97 e0 ff ff  	auipc	ra, 1048574
80003aa2: e7 80 60 52  	jalr	1318(ra)
80003aa6: 2a e0        	sd	a0, 0(sp)
80003aa8: 09 a0        	j	2 <<qor_os::drivers::UART_DRIVER as core::ops::deref::Deref>::deref::__static_ref_initialize::h5c87bad55a7d6b20+0x14>
80003aaa: 02 65        	ld	a0, 0(sp)
80003aac: a2 60        	ld	ra, 8(sp)
80003aae: 41 01        	addi	sp, sp, 16
80003ab0: 82 80        	ret

0000000080003ab2 <core::iter::adapters::rev::Rev<T>::new::h3c295fddf27a08cb>:
80003ab2: 01 11        	addi	sp, sp, -32
80003ab4: 90 69        	ld	a2, 16(a1)
80003ab6: 32 ec        	sd	a2, 24(sp)
80003ab8: 94 65        	ld	a3, 8(a1)
80003aba: 36 e8        	sd	a3, 16(sp)
80003abc: 8c 61        	ld	a1, 0(a1)
80003abe: 2e e4        	sd	a1, 8(sp)
80003ac0: 10 e9        	sd	a2, 16(a0)
80003ac2: 14 e5        	sd	a3, 8(a0)
80003ac4: 0c e1        	sd	a1, 0(a0)
80003ac6: 05 61        	addi	sp, sp, 32
80003ac8: 82 80        	ret

0000000080003aca <core::iter::adapters::rev::Rev<T>::new::hfbd6d00bb5c3e425>:
80003aca: 01 11        	addi	sp, sp, -32
80003acc: 2a e8        	sd	a0, 16(sp)
80003ace: 2e ec        	sd	a1, 24(sp)
80003ad0: 2a e0        	sd	a0, 0(sp)
80003ad2: 2e e4        	sd	a1, 8(sp)
80003ad4: 05 61        	addi	sp, sp, 32
80003ad6: 82 80        	ret

0000000080003ad8 <<I as core::iter::traits::collect::IntoIterator>::into_iter::h26f72b5e525309fd>:
80003ad8: 90 69        	ld	a2, 16(a1)
80003ada: 10 e9        	sd	a2, 16(a0)
80003adc: 90 65        	ld	a2, 8(a1)
80003ade: 10 e5        	sd	a2, 8(a0)
80003ae0: 8c 61        	ld	a1, 0(a1)
80003ae2: 0c e1        	sd	a1, 0(a0)
80003ae4: 82 80        	ret

0000000080003ae6 <<I as core::iter::traits::collect::IntoIterator>::into_iter::he64cbc37805969a8>:
80003ae6: 41 11        	addi	sp, sp, -16
80003ae8: 2a e0        	sd	a0, 0(sp)
80003aea: 2e e4        	sd	a1, 8(sp)
80003aec: 41 01        	addi	sp, sp, 16
80003aee: 82 80        	ret

0000000080003af0 <<core::iter::adapters::rev::Rev<I> as core::iter::traits::iterator::Iterator>::next::h3751d80f8cab2ebe>:
80003af0: 01 11        	addi	sp, sp, -32
80003af2: 06 ec        	sd	ra, 24(sp)
80003af4: 2a e8        	sd	a0, 16(sp)
80003af6: 97 d0 ff ff  	auipc	ra, 1048573
80003afa: e7 80 e0 3c  	jalr	974(ra)
80003afe: 2a e4        	sd	a0, 8(sp)
80003b00: 2e e0        	sd	a1, 0(sp)
80003b02: 09 a0        	j	2 <<core::iter::adapters::rev::Rev<I> as core::iter::traits::iterator::Iterator>::next::h3751d80f8cab2ebe+0x14>
80003b04: 22 65        	ld	a0, 8(sp)
80003b06: 82 65        	ld	a1, 0(sp)
80003b08: e2 60        	ld	ra, 24(sp)
80003b0a: 05 61        	addi	sp, sp, 32
80003b0c: 82 80        	ret

0000000080003b0e <<core::iter::adapters::rev::Rev<I> as core::iter::traits::iterator::Iterator>::next::h84fb7a1830394388>:
80003b0e: 01 11        	addi	sp, sp, -32
80003b10: 06 ec        	sd	ra, 24(sp)
80003b12: 2a e8        	sd	a0, 16(sp)
80003b14: 97 d0 ff ff  	auipc	ra, 1048573
80003b18: e7 80 00 34  	jalr	832(ra)
80003b1c: 2a e4        	sd	a0, 8(sp)
80003b1e: 2e e0        	sd	a1, 0(sp)
80003b20: 09 a0        	j	2 <<core::iter::adapters::rev::Rev<I> as core::iter::traits::iterator::Iterator>::next::h84fb7a1830394388+0x14>
80003b22: 22 65        	ld	a0, 8(sp)
80003b24: 82 65        	ld	a1, 0(sp)
80003b26: e2 60        	ld	ra, 24(sp)
80003b28: 05 61        	addi	sp, sp, 32
80003b2a: 82 80        	ret

0000000080003b2c <core::fmt::Arguments::new_v1_formatted::h3940c1e3611dcb36>:
80003b2c: 39 71        	addi	sp, sp, -64
80003b2e: 2e e8        	sd	a1, 16(sp)
80003b30: 32 ec        	sd	a2, 24(sp)
80003b32: 36 f0        	sd	a3, 32(sp)
80003b34: 3a f4        	sd	a4, 40(sp)
80003b36: 3e f8        	sd	a5, 48(sp)
80003b38: 42 fc        	sd	a6, 56(sp)
80003b3a: 3e e0        	sd	a5, 0(sp)
80003b3c: 42 e4        	sd	a6, 8(sp)
80003b3e: 0c e1        	sd	a1, 0(a0)
80003b40: 10 e5        	sd	a2, 8(a0)
80003b42: 82 65        	ld	a1, 0(sp)
80003b44: 22 66        	ld	a2, 8(sp)
80003b46: 0c e9        	sd	a1, 16(a0)
80003b48: 10 ed        	sd	a2, 24(a0)
80003b4a: 14 f1        	sd	a3, 32(a0)
80003b4c: 18 f5        	sd	a4, 40(a0)
80003b4e: 21 61        	addi	sp, sp, 64
80003b50: 82 80        	ret

0000000080003b52 <core::fmt::Arguments::new_v1::h3a9a052e146918b3>:
80003b52: 79 71        	addi	sp, sp, -48
80003b54: 2e e8        	sd	a1, 16(sp)
80003b56: 32 ec        	sd	a2, 24(sp)
80003b58: 36 f0        	sd	a3, 32(sp)
80003b5a: 3a f4        	sd	a4, 40(sp)
80003b5c: 81 47        	mv	a5, zero
80003b5e: 3e e0        	sd	a5, 0(sp)
80003b60: 0c e1        	sd	a1, 0(a0)
80003b62: 10 e5        	sd	a2, 8(a0)
80003b64: 82 65        	ld	a1, 0(sp)
80003b66: 22 66        	ld	a2, 8(sp)
80003b68: 0c e9        	sd	a1, 16(a0)
80003b6a: 10 ed        	sd	a2, 24(a0)
80003b6c: 14 f1        	sd	a3, 32(a0)
80003b6e: 18 f5        	sd	a4, 40(a0)
80003b70: 45 61        	addi	sp, sp, 48
80003b72: 82 80        	ret

0000000080003b74 <qor_os::mem::mmu::global_page_table::h874afc94bbc61f3d>:
80003b74: 39 71        	addi	sp, sp, -64
80003b76: 06 fc        	sd	ra, 56(sp)
80003b78: 01 45        	mv	a0, zero
80003b7a: 23 0b a1 02  	sb	a0, 54(sp)

0000000080003b7e <.LBB0_7>:
80003b7e: 97 45 00 00  	auipc	a1, 4
80003b82: 93 85 a5 49  	addi	a1, a1, 1178
80003b86: 2a f4        	sd	a0, 40(sp)
80003b88: 2e 85        	add	a0, zero, a1
80003b8a: a2 75        	ld	a1, 40(sp)
80003b8c: 97 10 00 00  	auipc	ra, 1
80003b90: e7 80 a0 cd  	jalr	-806(ra)
80003b94: 2a f0        	sd	a0, 32(sp)
80003b96: 09 a0        	j	2 <.LBB0_7+0x1a>
80003b98: 01 45        	mv	a0, zero
80003b9a: 82 75        	ld	a1, 32(sp)
80003b9c: 63 83 a5 02  	beq	a1, a0, 38 <.LBB0_9>
80003ba0: 09 a0        	j	2 <.LBB0_7+0x24>
80003ba2: 11 45        	addi	a0, zero, 4
80003ba4: a3 0b a1 02  	sb	a0, 55(sp)

0000000080003ba8 <.LBB0_8>:
80003ba8: 97 45 00 00  	auipc	a1, 4
80003bac: 93 85 85 46  	addi	a1, a1, 1128
80003bb0: 2a ec        	sd	a0, 24(sp)
80003bb2: 2e 85        	add	a0, zero, a1
80003bb4: e2 65        	ld	a1, 24(sp)
80003bb6: 97 f0 ff ff  	auipc	ra, 1048575
80003bba: e7 80 00 89  	jalr	-1904(ra)
80003bbe: 2a e8        	sd	a0, 16(sp)
80003bc0: 05 a0        	j	32 <.LBB0_10+0x16>

0000000080003bc2 <.LBB0_9>:
80003bc2: 17 35 00 00  	auipc	a0, 3
80003bc6: 13 05 e5 31  	addi	a0, a0, 798

0000000080003bca <.LBB0_10>:
80003bca: 17 36 00 00  	auipc	a2, 3
80003bce: 13 06 66 35  	addi	a2, a2, 854
80003bd2: 93 05 e0 02  	addi	a1, zero, 46
80003bd6: 97 10 00 00  	auipc	ra, 1
80003bda: e7 80 40 74  	jalr	1860(ra)
80003bde: 00 00        	unimp	
80003be0: 42 65        	ld	a0, 16(sp)
80003be2: 97 e0 ff ff  	auipc	ra, 1048574
80003be6: e7 80 80 fa  	jalr	-88(ra)
80003bea: 2a e4        	sd	a0, 8(sp)
80003bec: 09 a0        	j	2 <.LBB0_11>

0000000080003bee <.LBB0_11>:
80003bee: 97 35 00 00  	auipc	a1, 3
80003bf2: 93 85 a5 34  	addi	a1, a1, 842
80003bf6: 22 65        	ld	a0, 8(sp)
80003bf8: 97 f0 ff ff  	auipc	ra, 1048575
80003bfc: e7 80 80 c3  	jalr	-968(ra)
80003c00: 2a e0        	sd	a0, 0(sp)
80003c02: 09 a0        	j	2 <.LBB0_11+0x16>
80003c04: 02 65        	ld	a0, 0(sp)
80003c06: e2 70        	ld	ra, 56(sp)
80003c08: 21 61        	addi	sp, sp, 64
80003c0a: 82 80        	ret

0000000080003c0c <qor_os::mem::mmu::alloc_table::h3e6ceb92b6878afa>:
80003c0c: 79 71        	addi	sp, sp, -48
80003c0e: 06 f4        	sd	ra, 40(sp)
80003c10: 05 45        	addi	a0, zero, 1
80003c12: 97 e0 ff ff  	auipc	ra, 1048574
80003c16: e7 80 80 9f  	jalr	-1544(ra)
80003c1a: 2a e8        	sd	a0, 16(sp)
80003c1c: 09 a0        	j	2 <qor_os::mem::mmu::alloc_table::h3e6ceb92b6878afa+0x12>
80003c1e: 42 65        	ld	a0, 16(sp)
80003c20: 2a ec        	sd	a0, 24(sp)
80003c22: 93 55 c5 00  	srli	a1, a0, 12
80003c26: 2e f0        	sd	a1, 32(sp)
80003c28: 2e 85        	add	a0, zero, a1
80003c2a: 97 f0 ff ff  	auipc	ra, 1048575
80003c2e: e7 80 e0 6a  	jalr	1710(ra)
80003c32: 2a e4        	sd	a0, 8(sp)
80003c34: 09 a0        	j	2 <qor_os::mem::mmu::alloc_table::h3e6ceb92b6878afa+0x2a>
80003c36: 22 65        	ld	a0, 8(sp)
80003c38: a2 70        	ld	ra, 40(sp)
80003c3a: 45 61        	addi	sp, sp, 48
80003c3c: 82 80        	ret

0000000080003c3e <qor_os::mem::mmu::init_global_page_table::head7c85ae7bb590e>:
80003c3e: 15 71        	addi	sp, sp, -224
80003c40: 86 ed        	sd	ra, 216(sp)
80003c42: 97 00 00 00  	auipc	ra, 0
80003c46: e7 80 a0 fc  	jalr	-54(ra)
80003c4a: aa 85        	add	a1, zero, a0
80003c4c: aa e1        	sd	a0, 192(sp)
80003c4e: 2e f0        	sd	a1, 32(sp)
80003c50: 09 a0        	j	2 <qor_os::mem::mmu::init_global_page_table::head7c85ae7bb590e+0x14>
80003c52: 02 75        	ld	a0, 32(sp)
80003c54: aa e5        	sd	a0, 200(sp)
80003c56: 97 00 00 00  	auipc	ra, 0
80003c5a: e7 80 e0 d9  	jalr	-610(ra)
80003c5e: 2a f4        	sd	a0, 40(sp)
80003c60: 09 a0        	j	2 <qor_os::mem::mmu::init_global_page_table::head7c85ae7bb590e+0x24>
80003c62: 02 75        	ld	a0, 32(sp)
80003c64: aa fc        	sd	a0, 120(sp)
80003c66: ac 18        	addi	a1, sp, 120
80003c68: ae f8        	sd	a1, 112(sp)
80003c6a: ae e9        	sd	a1, 208(sp)

0000000080003c6c <.LBB2_11>:
80003c6c: 17 26 00 00  	auipc	a2, 2
80003c70: 13 06 46 0e  	addi	a2, a2, 228
80003c74: 2e 85        	add	a0, zero, a1
80003c76: b2 85        	add	a1, zero, a2
80003c78: 97 d0 ff ff  	auipc	ra, 1048573
80003c7c: e7 80 c0 dc  	jalr	-564(ra)
80003c80: 2a ec        	sd	a0, 24(sp)
80003c82: 2e e8        	sd	a1, 16(sp)
80003c84: 09 a0        	j	2 <.LBB2_11+0x1a>
80003c86: 62 65        	ld	a0, 24(sp)
80003c88: aa f0        	sd	a0, 96(sp)
80003c8a: c2 65        	ld	a1, 16(sp)
80003c8c: ae f4        	sd	a1, 104(sp)

0000000080003c8e <.LBB2_12>:
80003c8e: 97 35 00 00  	auipc	a1, 3
80003c92: 93 85 25 2d  	addi	a1, a1, 722
80003c96: 08 18        	addi	a0, sp, 48
80003c98: 09 46        	addi	a2, zero, 2
80003c9a: 94 10        	addi	a3, sp, 96
80003c9c: 05 47        	addi	a4, zero, 1
80003c9e: 97 00 00 00  	auipc	ra, 0
80003ca2: e7 80 40 eb  	jalr	-332(ra)
80003ca6: 09 a0        	j	2 <.LBB2_12+0x1a>
80003ca8: 28 10        	addi	a0, sp, 40
80003caa: 0c 18        	addi	a1, sp, 48
80003cac: 97 d0 ff ff  	auipc	ra, 1048573
80003cb0: e7 80 80 a0  	jalr	-1528(ra)
80003cb4: 09 a0        	j	2 <.LBB2_12+0x28>
80003cb6: 11 45        	addi	a0, zero, 4
80003cb8: 23 03 a1 08  	sb	a0, 134(sp)

0000000080003cbc <.LBB2_13>:
80003cbc: 97 45 00 00  	auipc	a1, 4
80003cc0: 93 85 45 35  	addi	a1, a1, 852
80003cc4: 2a e4        	sd	a0, 8(sp)
80003cc6: 2e 85        	add	a0, zero, a1
80003cc8: 82 75        	ld	a1, 32(sp)
80003cca: 22 66        	ld	a2, 8(sp)
80003ccc: 97 e0 ff ff  	auipc	ra, 1048574
80003cd0: e7 80 c0 7a  	jalr	1964(ra)
80003cd4: 09 a0        	j	2 <.LBB2_13+0x1a>
80003cd6: 11 45        	addi	a0, zero, 4
80003cd8: a3 03 a1 08  	sb	a0, 135(sp)

0000000080003cdc <.LBB2_14>:
80003cdc: 97 45 00 00  	auipc	a1, 4
80003ce0: 93 85 c5 33  	addi	a1, a1, 828
80003ce4: 05 46        	addi	a2, zero, 1
80003ce6: 2a e0        	sd	a0, 0(sp)
80003ce8: 2e 85        	add	a0, zero, a1
80003cea: b2 85        	add	a1, zero, a2
80003cec: 02 66        	ld	a2, 0(sp)
80003cee: 97 10 00 00  	auipc	ra, 1
80003cf2: e7 80 20 bb  	jalr	-1102(ra)
80003cf6: 09 a0        	j	2 <.LBB2_14+0x1c>
80003cf8: 97 00 00 00  	auipc	ra, 0
80003cfc: e7 80 c0 cf  	jalr	-772(ra)
80003d00: 2a e5        	sd	a0, 136(sp)
80003d02: 09 a0        	j	2 <.LBB2_15>

0000000080003d04 <.LBB2_15>:
80003d04: 97 35 00 00  	auipc	a1, 3
80003d08: 93 85 c5 29  	addi	a1, a1, 668

0000000080003d0c <.LBB2_16>:
80003d0c: 97 36 00 00  	auipc	a3, 3
80003d10: 93 86 46 2a  	addi	a3, a3, 676
80003d14: 08 09        	addi	a0, sp, 144
80003d16: 05 46        	addi	a2, zero, 1
80003d18: 01 47        	mv	a4, zero
80003d1a: 97 00 00 00  	auipc	ra, 0
80003d1e: e7 80 80 e3  	jalr	-456(ra)
80003d22: 09 a0        	j	2 <.LBB2_16+0x18>
80003d24: 28 01        	addi	a0, sp, 136
80003d26: 0c 09        	addi	a1, sp, 144
80003d28: 97 d0 ff ff  	auipc	ra, 1048573
80003d2c: e7 80 c0 98  	jalr	-1652(ra)
80003d30: 09 a0        	j	2 <.LBB2_16+0x26>
80003d32: ee 60        	ld	ra, 216(sp)
80003d34: 2d 61        	addi	sp, sp, 224
80003d36: 82 80        	ret

0000000080003d38 <qor_os::mem::mmu::inner_map::hcced2f33beaffd9b>:
80003d38: 13 01 01 c7  	addi	sp, sp, -912
80003d3c: 23 34 11 38  	sd	ra, 904(sp)
80003d40: 2e eb        	sd	a1, 400(sp)
80003d42: 32 ef        	sd	a2, 408(sp)
80003d44: 36 f3        	sd	a3, 416(sp)
80003d46: 3a f7        	sd	a4, 424(sp)
80003d48: 23 3c a1 30  	sd	a0, 792(sp)
80003d4c: 85 45        	addi	a1, zero, 1
80003d4e: a3 0b b1 1a  	sb	a1, 439(sp)
80003d52: 2a e7        	sd	a0, 392(sp)
80003d54: 2e 85        	add	a0, zero, a1
80003d56: 97 c0 ff ff  	auipc	ra, 1048572
80003d5a: e7 80 e0 67  	jalr	1662(ra)
80003d5e: 2a e3        	sd	a0, 384(sp)
80003d60: 09 a0        	j	2 <qor_os::mem::mmu::inner_map::hcced2f33beaffd9b+0x2a>
80003d62: 1a 65        	ld	a0, 384(sp)
80003d64: 19 e1        	bnez	a0, 6 <qor_os::mem::mmu::inner_map::hcced2f33beaffd9b+0x32>
80003d66: 09 a0        	j	2 <qor_os::mem::mmu::inner_map::hcced2f33beaffd9b+0x30>
80003d68: fd a8        	j	254 <.LBB3_55+0x2e>
80003d6a: 97 00 00 00  	auipc	ra, 0
80003d6e: e7 80 a0 c8  	jalr	-886(ra)
80003d72: 2a ff        	sd	a0, 440(sp)
80003d74: 09 a0        	j	2 <qor_os::mem::mmu::inner_map::hcced2f33beaffd9b+0x3e>
80003d76: 08 0b        	addi	a0, sp, 400
80003d78: 23 38 a1 22  	sd	a0, 560(sp)
80003d7c: 2c 0b        	addi	a1, sp, 408
80003d7e: 23 3c b1 22  	sd	a1, 568(sp)
80003d82: 10 13        	addi	a2, sp, 416
80003d84: 23 30 c1 24  	sd	a2, 576(sp)
80003d88: 34 13        	addi	a3, sp, 424
80003d8a: 23 34 d1 24  	sd	a3, 584(sp)
80003d8e: 23 30 a1 32  	sd	a0, 800(sp)
80003d92: 23 34 b1 32  	sd	a1, 808(sp)
80003d96: 23 38 c1 32  	sd	a2, 816(sp)
80003d9a: 23 3c d1 32  	sd	a3, 824(sp)

0000000080003d9e <.LBB3_50>:
80003d9e: 17 27 00 00  	auipc	a4, 2
80003da2: 13 07 27 fb  	addi	a4, a4, -78
80003da6: ae fe        	sd	a1, 376(sp)
80003da8: ba 85        	add	a1, zero, a4
80003daa: b2 fa        	sd	a2, 368(sp)
80003dac: b6 f6        	sd	a3, 360(sp)
80003dae: 97 d0 ff ff  	auipc	ra, 1048573
80003db2: e7 80 60 c9  	jalr	-874(ra)
80003db6: aa f2        	sd	a0, 352(sp)
80003db8: ae ee        	sd	a1, 344(sp)
80003dba: 09 a0        	j	2 <.LBB3_51>

0000000080003dbc <.LBB3_51>:
80003dbc: 97 25 00 00  	auipc	a1, 2
80003dc0: 93 85 45 f9  	addi	a1, a1, -108
80003dc4: 76 75        	ld	a0, 376(sp)
80003dc6: 97 d0 ff ff  	auipc	ra, 1048573
80003dca: e7 80 e0 c7  	jalr	-898(ra)
80003dce: aa ea        	sd	a0, 336(sp)
80003dd0: ae e6        	sd	a1, 328(sp)
80003dd2: 09 a0        	j	2 <.LBB3_52>

0000000080003dd4 <.LBB3_52>:
80003dd4: 97 25 00 00  	auipc	a1, 2
80003dd8: 93 85 05 f1  	addi	a1, a1, -240
80003ddc: 56 75        	ld	a0, 368(sp)
80003dde: 97 d0 ff ff  	auipc	ra, 1048573
80003de2: e7 80 60 c6  	jalr	-922(ra)
80003de6: aa e2        	sd	a0, 320(sp)
80003de8: 2e fe        	sd	a1, 312(sp)
80003dea: 09 a0        	j	2 <.LBB3_53>

0000000080003dec <.LBB3_53>:
80003dec: 97 15 00 00  	auipc	a1, 1
80003df0: 93 85 a5 9a  	addi	a1, a1, -1622
80003df4: 36 75        	ld	a0, 360(sp)
80003df6: 97 d0 ff ff  	auipc	ra, 1048573
80003dfa: e7 80 60 bc  	jalr	-1082(ra)
80003dfe: 2a fa        	sd	a0, 304(sp)
80003e00: 2e f6        	sd	a1, 296(sp)
80003e02: 09 a0        	j	2 <.LBB3_53+0x18>
80003e04: 16 75        	ld	a0, 352(sp)
80003e06: aa fb        	sd	a0, 496(sp)
80003e08: f6 65        	ld	a1, 344(sp)
80003e0a: ae ff        	sd	a1, 504(sp)
80003e0c: 56 66        	ld	a2, 336(sp)
80003e0e: 23 30 c1 20  	sd	a2, 512(sp)
80003e12: b6 66        	ld	a3, 328(sp)
80003e14: 23 34 d1 20  	sd	a3, 520(sp)
80003e18: 16 67        	ld	a4, 320(sp)
80003e1a: 23 38 e1 20  	sd	a4, 528(sp)
80003e1e: f2 77        	ld	a5, 312(sp)
80003e20: 23 3c f1 20  	sd	a5, 536(sp)
80003e24: 52 78        	ld	a6, 304(sp)
80003e26: 23 30 01 23  	sd	a6, 544(sp)
80003e2a: b2 78        	ld	a7, 296(sp)
80003e2c: 23 34 11 23  	sd	a7, 552(sp)

0000000080003e30 <.LBB3_54>:
80003e30: 97 35 00 00  	auipc	a1, 3
80003e34: 93 85 05 1b  	addi	a1, a1, 432

0000000080003e38 <.LBB3_55>:
80003e38: 97 37 00 00  	auipc	a5, 3
80003e3c: 93 87 87 1f  	addi	a5, a5, 504
80003e40: 88 03        	addi	a0, sp, 448
80003e42: 15 46        	addi	a2, zero, 5
80003e44: 94 1b        	addi	a3, sp, 496
80003e46: 91 42        	addi	t0, zero, 4
80003e48: 16 87        	add	a4, zero, t0
80003e4a: 16 88        	add	a6, zero, t0
80003e4c: 97 00 00 00  	auipc	ra, 0
80003e50: e7 80 00 ce  	jalr	-800(ra)
80003e54: 09 a0        	j	2 <.LBB3_55+0x1e>
80003e56: 28 1b        	addi	a0, sp, 440
80003e58: 8c 03        	addi	a1, sp, 448
80003e5a: 97 d0 ff ff  	auipc	ra, 1048573
80003e5e: e7 80 a0 85  	jalr	-1958(ra)
80003e62: 09 a0        	j	2 <.LBB3_55+0x2c>
80003e64: 09 a0        	j	2 <.LBB3_55+0x2e>
80003e66: 3a 75        	ld	a0, 424(sp)
80003e68: 23 30 a1 34  	sd	a0, 832(sp)
80003e6c: 83 45 01 1a  	lbu	a1, 416(sp)
80003e70: b9 89        	andi	a1, a1, 14
80003e72: 01 46        	mv	a2, zero
80003e74: 2a f2        	sd	a0, 288(sp)
80003e76: 63 87 c5 00  	beq	a1, a2, 14 <.LBB3_55+0x4c>
80003e7a: 09 a0        	j	2 <.LBB3_55+0x44>
80003e7c: 5a 65        	ld	a0, 400(sp)
80003e7e: 31 81        	srli	a0, a0, 12
80003e80: 2a ee        	sd	a0, 280(sp)
80003e82: 79 a0        	j	142 <.LBB3_59+0x14>
80003e84: 08 0b        	addi	a0, sp, 400
80003e86: 23 30 a1 2a  	sd	a0, 672(sp)
80003e8a: 2c 0b        	addi	a1, sp, 408
80003e8c: 23 34 b1 2a  	sd	a1, 680(sp)
80003e90: 23 3c a1 36  	sd	a0, 888(sp)
80003e94: 23 30 b1 38  	sd	a1, 896(sp)

0000000080003e98 <.LBB3_56>:
80003e98: 17 26 00 00  	auipc	a2, 2
80003e9c: 13 06 86 eb  	addi	a2, a2, -328
80003ea0: 2e ea        	sd	a1, 272(sp)
80003ea2: b2 85        	add	a1, zero, a2
80003ea4: 97 d0 ff ff  	auipc	ra, 1048573
80003ea8: e7 80 00 ba  	jalr	-1120(ra)
80003eac: 2a e6        	sd	a0, 264(sp)
80003eae: 2e e2        	sd	a1, 256(sp)
80003eb0: 09 a0        	j	2 <.LBB3_57>

0000000080003eb2 <.LBB3_57>:
80003eb2: 97 25 00 00  	auipc	a1, 2
80003eb6: 93 85 e5 e9  	addi	a1, a1, -354
80003eba: 52 65        	ld	a0, 272(sp)
80003ebc: 97 d0 ff ff  	auipc	ra, 1048573
80003ec0: e7 80 80 b8  	jalr	-1144(ra)
80003ec4: aa fd        	sd	a0, 248(sp)
80003ec6: ae f9        	sd	a1, 240(sp)
80003ec8: 09 a0        	j	2 <.LBB3_57+0x18>
80003eca: 32 65        	ld	a0, 264(sp)
80003ecc: 23 30 a1 28  	sd	a0, 640(sp)
80003ed0: 92 65        	ld	a1, 256(sp)
80003ed2: 23 34 b1 28  	sd	a1, 648(sp)
80003ed6: 6e 76        	ld	a2, 248(sp)
80003ed8: 23 38 c1 28  	sd	a2, 656(sp)
80003edc: ce 76        	ld	a3, 240(sp)
80003ede: 23 3c d1 28  	sd	a3, 664(sp)

0000000080003ee2 <.LBB3_58>:
80003ee2: 97 35 00 00  	auipc	a1, 3
80003ee6: 93 85 e5 29  	addi	a1, a1, 670
80003eea: 88 0c        	addi	a0, sp, 592
80003eec: 0d 46        	addi	a2, zero, 3
80003eee: 14 05        	addi	a3, sp, 640
80003ef0: 09 47        	addi	a4, zero, 2
80003ef2: 97 00 00 00  	auipc	ra, 0
80003ef6: e7 80 00 c6  	jalr	-928(ra)
80003efa: 09 a0        	j	2 <.LBB3_59>

0000000080003efc <.LBB3_59>:
80003efc: 97 35 00 00  	auipc	a1, 3
80003f00: 93 85 45 2b  	addi	a1, a1, 692
80003f04: 88 0c        	addi	a0, sp, 592
80003f06: 97 10 00 00  	auipc	ra, 1
80003f0a: e7 80 00 48  	jalr	1152(ra)
80003f0e: 00 00        	unimp	
80003f10: 72 65        	ld	a0, 280(sp)
80003f12: 93 75 f5 1f  	andi	a1, a0, 511
80003f16: 5a 66        	ld	a2, 400(sp)
80003f18: 55 82        	srli	a2, a2, 21
80003f1a: ae f5        	sd	a1, 232(sp)
80003f1c: b2 f1        	sd	a2, 224(sp)
80003f1e: 09 a0        	j	2 <.LBB3_59+0x24>
80003f20: 0e 75        	ld	a0, 224(sp)
80003f22: 93 75 f5 1f  	andi	a1, a0, 511
80003f26: 5a 66        	ld	a2, 400(sp)
80003f28: 79 82        	srli	a2, a2, 30
80003f2a: ae ed        	sd	a1, 216(sp)
80003f2c: b2 e9        	sd	a2, 208(sp)
80003f2e: 09 a0        	j	2 <.LBB3_59+0x34>
80003f30: 4e 65        	ld	a0, 208(sp)
80003f32: 93 75 f5 1f  	andi	a1, a0, 511
80003f36: 2e 76        	ld	a2, 232(sp)
80003f38: 23 38 c1 2a  	sd	a2, 688(sp)
80003f3c: ee 66        	ld	a3, 216(sp)
80003f3e: 23 3c d1 2a  	sd	a3, 696(sp)
80003f42: 23 30 b1 2c  	sd	a1, 704(sp)
80003f46: fa 65        	ld	a1, 408(sp)
80003f48: b1 81        	srli	a1, a1, 12
80003f4a: ae e5        	sd	a1, 200(sp)
80003f4c: 09 a0        	j	2 <.LBB3_59+0x52>
80003f4e: 2e 65        	ld	a0, 200(sp)
80003f50: 93 75 f5 1f  	andi	a1, a0, 511
80003f54: 7a 66        	ld	a2, 408(sp)
80003f56: 55 82        	srli	a2, a2, 21
80003f58: ae e1        	sd	a1, 192(sp)
80003f5a: 32 fd        	sd	a2, 184(sp)
80003f5c: 09 a0        	j	2 <.LBB3_59+0x62>
80003f5e: 6a 75        	ld	a0, 184(sp)
80003f60: 93 75 f5 1f  	andi	a1, a0, 511
80003f64: 7a 66        	ld	a2, 408(sp)
80003f66: 79 82        	srli	a2, a2, 30
80003f68: 2e f9        	sd	a1, 176(sp)
80003f6a: 32 f5        	sd	a2, 168(sp)
80003f6c: 09 a0        	j	2 <.LBB3_59+0x72>
80003f6e: 37 05 00 04  	lui	a0, 16384
80003f72: 7d 35        	addiw	a0, a0, -1
80003f74: aa 75        	ld	a1, 168(sp)
80003f76: 6d 8d        	and	a0, a0, a1
80003f78: 0e 66        	ld	a2, 192(sp)
80003f7a: 23 34 c1 2c  	sd	a2, 712(sp)
80003f7e: ca 76        	ld	a3, 176(sp)
80003f80: 23 38 d1 2c  	sd	a3, 720(sp)
80003f84: 23 3c a1 2c  	sd	a0, 728(sp)
80003f88: 83 35 01 2c  	ld	a1, 704(sp)

0000000080003f8c <.LBB3_60>:
80003f8c: 17 36 00 00  	auipc	a2, 3
80003f90: 13 06 46 18  	addi	a2, a2, 388
80003f94: 3a 65        	ld	a0, 392(sp)
80003f96: 97 f0 ff ff  	auipc	ra, 1048575
80003f9a: e7 80 c0 4d  	jalr	1244(ra)
80003f9e: 2a f1        	sd	a0, 160(sp)
80003fa0: 09 a0        	j	2 <.LBB3_60+0x16>
80003fa2: 0a 75        	ld	a0, 160(sp)
80003fa4: 23 30 a1 2e  	sd	a0, 736(sp)
80003fa8: 92 75        	ld	a1, 288(sp)
80003faa: 23 34 b1 2e  	sd	a1, 744(sp)
80003fae: 09 46        	addi	a2, zero, 2
80003fb0: 23 38 c1 2e  	sd	a2, 752(sp)
80003fb4: 2e 85        	add	a0, zero, a1
80003fb6: b2 85        	add	a1, zero, a2
80003fb8: 97 d0 ff ff  	auipc	ra, 1048573
80003fbc: e7 80 00 fb  	jalr	-80(ra)
80003fc0: 2a ed        	sd	a0, 152(sp)
80003fc2: 2e e9        	sd	a1, 144(sp)
80003fc4: 09 a0        	j	2 <.LBB3_60+0x3a>
80003fc6: 6a 65        	ld	a0, 152(sp)
80003fc8: ca 65        	ld	a1, 144(sp)
80003fca: 97 00 00 00  	auipc	ra, 0
80003fce: e7 80 c0 b1  	jalr	-1252(ra)
80003fd2: 2a e5        	sd	a0, 136(sp)
80003fd4: 2e e1        	sd	a1, 128(sp)
80003fd6: 09 a0        	j	2 <.LBB3_60+0x4c>
80003fd8: 2a 65        	ld	a0, 136(sp)
80003fda: 23 3c a1 2e  	sd	a0, 760(sp)
80003fde: 8a 65        	ld	a1, 128(sp)
80003fe0: 23 30 b1 30  	sd	a1, 768(sp)
80003fe4: 09 a0        	j	2 <.LBB3_60+0x5a>
80003fe6: a8 1d        	addi	a0, sp, 760
80003fe8: 97 00 00 00  	auipc	ra, 0
80003fec: e7 80 60 b2  	jalr	-1242(ra)
80003ff0: 23 34 a1 30  	sd	a0, 776(sp)
80003ff4: 23 38 b1 30  	sd	a1, 784(sp)
80003ff8: 09 a0        	j	2 <.LBB3_60+0x6e>
80003ffa: 03 35 81 30  	ld	a0, 776(sp)
80003ffe: 81 45        	mv	a1, zero
80004000: 63 04 b5 00  	beq	a0, a1, 8 <.LBB3_60+0x7c>
80004004: 09 a0        	j	2 <.LBB3_60+0x7a>
80004006: 39 a0        	j	14 <.LBB3_60+0x88>
80004008: 03 35 81 2d  	ld	a0, 728(sp)
8000400c: 72 05        	slli	a0, a0, 28
8000400e: aa fc        	sd	a0, 120(sp)
80004010: e5 a0        	j	232 <.LBB3_61+0x1e>
80004012: 00 00        	unimp	
80004014: 03 35 01 31  	ld	a0, 784(sp)
80004018: 23 34 a1 34  	sd	a0, 840(sp)
8000401c: 23 38 a1 34  	sd	a0, 848(sp)
80004020: 23 3c a1 34  	sd	a0, 856(sp)
80004024: 83 35 01 2e  	ld	a1, 736(sp)
80004028: aa f8        	sd	a0, 112(sp)
8000402a: 2e 85        	add	a0, zero, a1
8000402c: 97 f0 ff ff  	auipc	ra, 1048575
80004030: e7 80 e0 21  	jalr	542(ra)
80004034: aa f4        	sd	a0, 104(sp)
80004036: 09 a0        	j	2 <.LBB3_60+0xac>
80004038: 01 45        	mv	a0, zero
8000403a: a6 75        	ld	a1, 104(sp)
8000403c: 63 84 a5 00  	beq	a1, a0, 8 <.LBB3_60+0xb8>
80004040: 09 a0        	j	2 <.LBB3_60+0xb6>
80004042: 2d a8        	j	58 <.LBB3_60+0xf0>
80004044: 05 45        	addi	a0, zero, 1
80004046: 97 d0 ff ff  	auipc	ra, 1048573
8000404a: e7 80 40 5c  	jalr	1476(ra)
8000404e: aa 85        	add	a1, zero, a0
80004050: 23 30 a1 36  	sd	a0, 864(sp)
80004054: ae f0        	sd	a1, 96(sp)
80004056: 09 a0        	j	2 <.LBB3_60+0xcc>
80004058: 03 35 01 2e  	ld	a0, 736(sp)
8000405c: 86 75        	ld	a1, 96(sp)
8000405e: 13 d6 25 00  	srli	a2, a1, 2
80004062: aa ec        	sd	a0, 88(sp)
80004064: b2 e8        	sd	a2, 80(sp)
80004066: 09 a0        	j	2 <.LBB3_60+0xdc>
80004068: 46 65        	ld	a0, 80(sp)
8000406a: 93 65 15 00  	ori	a1, a0, 1
8000406e: 66 65        	ld	a0, 88(sp)
80004070: 97 f0 ff ff  	auipc	ra, 1048575
80004074: e7 80 c0 25  	jalr	604(ra)
80004078: 09 a0        	j	2 <.LBB3_60+0xee>
8000407a: 09 a0        	j	2 <.LBB3_60+0xf0>
8000407c: 03 35 01 2e  	ld	a0, 736(sp)
80004080: 97 f0 ff ff  	auipc	ra, 1048575
80004084: e7 80 20 24  	jalr	578(ra)
80004088: aa e4        	sd	a0, 72(sp)
8000408a: 09 a0        	j	2 <.LBB3_60+0x100>
8000408c: 05 45        	addi	a0, zero, 1
8000408e: 7a 15        	slli	a0, a0, 62
80004090: 13 05 05 c0  	addi	a0, a0, -1024
80004094: a6 65        	ld	a1, 72(sp)
80004096: 6d 8d        	and	a0, a0, a1
80004098: 0a 05        	slli	a0, a0, 2
8000409a: aa e0        	sd	a0, 64(sp)
8000409c: 09 a0        	j	2 <.LBB3_60+0x112>
8000409e: 06 65        	ld	a0, 64(sp)
800040a0: 86 65        	ld	a1, 64(sp)
800040a2: 23 34 b1 36  	sd	a1, 872(sp)
800040a6: 09 46        	addi	a2, zero, 2
800040a8: c6 76        	ld	a3, 112(sp)
800040aa: 2a fc        	sd	a0, 56(sp)
800040ac: 63 6c d6 08  	bltu	a2, a3, 152 <.LBB3_62>
800040b0: 09 a0        	j	2 <.LBB3_60+0x126>
800040b2: 46 75        	ld	a0, 112(sp)
800040b4: 93 15 35 00  	slli	a1, a0, 3
800040b8: 10 1d        	addi	a2, sp, 688
800040ba: b2 95        	add	a1, a1, a2
800040bc: 8c 61        	ld	a1, 0(a1)
800040be: 62 75        	ld	a0, 56(sp)
800040c0: 97 e0 ff ff  	auipc	ra, 1048574
800040c4: e7 80 00 a8  	jalr	-1408(ra)
800040c8: 2a f8        	sd	a0, 48(sp)
800040ca: 09 a0        	j	2 <.LBB3_60+0x140>
800040cc: 42 75        	ld	a0, 48(sp)
800040ce: 97 e0 ff ff  	auipc	ra, 1048574
800040d2: e7 80 e0 a8  	jalr	-1394(ra)
800040d6: 2a f4        	sd	a0, 40(sp)
800040d8: 09 a0        	j	2 <.LBB3_61>

00000000800040da <.LBB3_61>:
800040da: 97 35 00 00  	auipc	a1, 3
800040de: 93 85 65 06  	addi	a1, a1, 102
800040e2: 22 75        	ld	a0, 40(sp)
800040e4: 97 e0 ff ff  	auipc	ra, 1048574
800040e8: e7 80 00 6e  	jalr	1760(ra)
800040ec: 2a f0        	sd	a0, 32(sp)
800040ee: 09 a0        	j	2 <.LBB3_61+0x16>
800040f0: 02 75        	ld	a0, 32(sp)
800040f2: 23 30 a1 2e  	sd	a0, 736(sp)
800040f6: c5 bd        	j	-272 <.LBB3_60+0x5a>
800040f8: 03 35 01 2d  	ld	a0, 720(sp)
800040fc: 4e 05        	slli	a0, a0, 19
800040fe: 2a ec        	sd	a0, 24(sp)
80004100: 09 a0        	j	2 <.LBB3_61+0x28>
80004102: 66 75        	ld	a0, 120(sp)
80004104: e2 65        	ld	a1, 24(sp)
80004106: 33 66 b5 00  	or	a2, a0, a1
8000410a: 83 36 81 2c  	ld	a3, 712(sp)
8000410e: aa 06        	slli	a3, a3, 10
80004110: 32 e8        	sd	a2, 16(sp)
80004112: 36 e4        	sd	a3, 8(sp)
80004114: 09 a0        	j	2 <.LBB3_61+0x3c>
80004116: 42 65        	ld	a0, 16(sp)
80004118: a2 65        	ld	a1, 8(sp)
8000411a: 33 66 b5 00  	or	a2, a0, a1
8000411e: 9a 76        	ld	a3, 416(sp)
80004120: 55 8e        	or	a2, a2, a3
80004122: 13 66 16 00  	ori	a2, a2, 1
80004126: 23 38 c1 36  	sd	a2, 880(sp)
8000412a: 03 35 01 2e  	ld	a0, 736(sp)
8000412e: b2 85        	add	a1, zero, a2
80004130: 97 f0 ff ff  	auipc	ra, 1048575
80004134: e7 80 c0 19  	jalr	412(ra)
80004138: 09 a0        	j	2 <.LBB3_61+0x60>
8000413a: 83 30 81 38  	ld	ra, 904(sp)
8000413e: 13 01 01 39  	addi	sp, sp, 912
80004142: 82 80        	ret

0000000080004144 <.LBB3_62>:
80004144: 17 36 00 00  	auipc	a2, 3
80004148: 13 06 46 fe  	addi	a2, a2, -28
8000414c: 8d 45        	addi	a1, zero, 3
8000414e: 46 75        	ld	a0, 112(sp)
80004150: 97 10 00 00  	auipc	ra, 1
80004154: e7 80 60 1f  	jalr	502(ra)
80004158: 00 00        	unimp	

000000008000415a <qor_os::mem::mmu::inner_virt_to_phys::h71393e883e672afc>:
8000415a: 13 01 01 cb  	addi	sp, sp, -848
8000415e: 23 34 11 34  	sd	ra, 840(sp)
80004162: 23 3c a1 2c  	sd	a0, 728(sp)
80004166: 23 30 b1 2e  	sd	a1, 736(sp)
8000416a: 13 d6 c5 00  	srli	a2, a1, 12
8000416e: ae e2        	sd	a1, 320(sp)
80004170: 2a fe        	sd	a0, 312(sp)
80004172: 32 fa        	sd	a2, 304(sp)
80004174: 09 a0        	j	2 <qor_os::mem::mmu::inner_virt_to_phys::h71393e883e672afc+0x1c>
80004176: 52 75        	ld	a0, 304(sp)
80004178: 93 75 f5 1f  	andi	a1, a0, 511
8000417c: 16 66        	ld	a2, 320(sp)
8000417e: 93 56 56 01  	srli	a3, a2, 21
80004182: 2e f6        	sd	a1, 296(sp)
80004184: 36 f2        	sd	a3, 288(sp)
80004186: 09 a0        	j	2 <qor_os::mem::mmu::inner_virt_to_phys::h71393e883e672afc+0x2e>
80004188: 12 75        	ld	a0, 288(sp)
8000418a: 93 75 f5 1f  	andi	a1, a0, 511
8000418e: 16 66        	ld	a2, 320(sp)
80004190: 93 56 e6 01  	srli	a3, a2, 30
80004194: 2e ee        	sd	a1, 280(sp)
80004196: 36 ea        	sd	a3, 272(sp)
80004198: 09 a0        	j	2 <qor_os::mem::mmu::inner_virt_to_phys::h71393e883e672afc+0x40>
8000419a: 52 65        	ld	a0, 272(sp)
8000419c: 93 75 f5 1f  	andi	a1, a0, 511
800041a0: 32 76        	ld	a2, 296(sp)
800041a2: b2 ee        	sd	a2, 344(sp)
800041a4: f2 66        	ld	a3, 280(sp)
800041a6: b6 f2        	sd	a3, 352(sp)
800041a8: ae f6        	sd	a1, 360(sp)

00000000800041aa <.LBB4_67>:
800041aa: 17 36 00 00  	auipc	a2, 3
800041ae: 13 06 e6 01  	addi	a2, a2, 30
800041b2: 72 75        	ld	a0, 312(sp)
800041b4: 97 f0 ff ff  	auipc	ra, 1048575
800041b8: e7 80 60 28  	jalr	646(ra)
800041bc: 2a e6        	sd	a0, 264(sp)
800041be: 09 a0        	j	2 <.LBB4_67+0x16>
800041c0: 32 65        	ld	a0, 264(sp)
800041c2: aa fa        	sd	a0, 368(sp)
800041c4: 28 13        	addi	a0, sp, 424
800041c6: 81 45        	mv	a1, zero
800041c8: 09 46        	addi	a2, zero, 2
800041ca: 97 d0 ff ff  	auipc	ra, 1048573
800041ce: e7 80 00 bc  	jalr	-1088(ra)
800041d2: 09 a0        	j	2 <.LBB4_67+0x2a>
800041d4: 08 0b        	addi	a0, sp, 400
800041d6: 2c 13        	addi	a1, sp, 424
800041d8: 97 d0 ff ff  	auipc	ra, 1048573
800041dc: e7 80 00 db  	jalr	-592(ra)
800041e0: 09 a0        	j	2 <.LBB4_67+0x38>
800041e2: a8 1a        	addi	a0, sp, 376
800041e4: 0c 0b        	addi	a1, sp, 400
800041e6: 97 00 00 00  	auipc	ra, 0
800041ea: e7 80 20 8f  	jalr	-1806(ra)
800041ee: 09 a0        	j	2 <.LBB4_67+0x46>
800041f0: 3a 65        	ld	a0, 392(sp)
800041f2: aa eb        	sd	a0, 464(sp)
800041f4: 1a 65        	ld	a0, 384(sp)
800041f6: aa e7        	sd	a0, 456(sp)
800041f8: 76 75        	ld	a0, 376(sp)
800041fa: aa e3        	sd	a0, 448(sp)
800041fc: 09 a0        	j	2 <.LBB4_67+0x54>
800041fe: 88 03        	addi	a0, sp, 448
80004200: 97 00 00 00  	auipc	ra, 0
80004204: e7 80 00 8f  	jalr	-1808(ra)
80004208: aa ef        	sd	a0, 472(sp)
8000420a: ae f3        	sd	a1, 480(sp)
8000420c: 09 a0        	j	2 <.LBB4_67+0x64>
8000420e: 7e 65        	ld	a0, 472(sp)
80004210: 81 45        	mv	a1, zero
80004212: 63 04 b5 00  	beq	a0, a1, 8 <.LBB4_67+0x70>
80004216: 09 a0        	j	2 <.LBB4_67+0x6e>
80004218: 19 a0        	j	6 <.LBB4_67+0x74>
8000421a: 1d a6        	j	806 <.LBB4_74+0x1c>
8000421c: 00 00        	unimp	
8000421e: 1e 75        	ld	a0, 480(sp)
80004220: 23 34 a1 2e  	sd	a0, 744(sp)
80004224: 23 38 a1 2e  	sd	a0, 752(sp)
80004228: aa f7        	sd	a0, 488(sp)
8000422a: 11 45        	addi	a0, zero, 4
8000422c: a3 0b a1 1e  	sb	a0, 503(sp)
80004230: 97 c0 ff ff  	auipc	ra, 1048572
80004234: e7 80 40 1a  	jalr	420(ra)
80004238: 2a e2        	sd	a0, 256(sp)
8000423a: 09 a0        	j	2 <.LBB4_67+0x92>
8000423c: 12 65        	ld	a0, 256(sp)
8000423e: 19 e1        	bnez	a0, 6 <.LBB4_67+0x9a>
80004240: 09 a0        	j	2 <.LBB4_67+0x98>
80004242: e9 a8        	j	218 <.LBB4_71+0x2a>
80004244: 97 f0 ff ff  	auipc	ra, 1048575
80004248: e7 80 00 7b  	jalr	1968(ra)
8000424c: aa ff        	sd	a0, 504(sp)
8000424e: 09 a0        	j	2 <.LBB4_67+0xa6>
80004250: 56 75        	ld	a0, 368(sp)
80004252: 23 3c a1 26  	sd	a0, 632(sp)
80004256: 97 f0 ff ff  	auipc	ra, 1048575
8000425a: e7 80 a0 fd  	jalr	-38(ra)
8000425e: 23 30 a1 28  	sd	a0, 640(sp)
80004262: 09 a0        	j	2 <.LBB4_67+0xba>
80004264: a8 13        	addi	a0, sp, 488
80004266: 23 30 a1 26  	sd	a0, 608(sp)
8000426a: ac 1c        	addi	a1, sp, 632
8000426c: 23 34 b1 26  	sd	a1, 616(sp)
80004270: 10 05        	addi	a2, sp, 640
80004272: 23 38 c1 26  	sd	a2, 624(sp)
80004276: 23 3c a1 2e  	sd	a0, 760(sp)
8000427a: 23 30 b1 30  	sd	a1, 768(sp)
8000427e: 23 34 c1 30  	sd	a2, 776(sp)

0000000080004282 <.LBB4_68>:
80004282: 97 26 00 00  	auipc	a3, 2
80004286: 93 86 a6 d0  	addi	a3, a3, -758
8000428a: ae fd        	sd	a1, 248(sp)
8000428c: b6 85        	add	a1, zero, a3
8000428e: b2 f9        	sd	a2, 240(sp)
80004290: 97 c0 ff ff  	auipc	ra, 1048572
80004294: e7 80 40 7b  	jalr	1972(ra)
80004298: aa f5        	sd	a0, 232(sp)
8000429a: ae f1        	sd	a1, 224(sp)
8000429c: 09 a0        	j	2 <.LBB4_69>

000000008000429e <.LBB4_69>:
8000429e: 97 25 00 00  	auipc	a1, 2
800042a2: 93 85 25 ab  	addi	a1, a1, -1358
800042a6: 6e 75        	ld	a0, 248(sp)
800042a8: 97 c0 ff ff  	auipc	ra, 1048572
800042ac: e7 80 c0 79  	jalr	1948(ra)
800042b0: aa ed        	sd	a0, 216(sp)
800042b2: ae e9        	sd	a1, 208(sp)
800042b4: 09 a0        	j	2 <.LBB4_70>

00000000800042b6 <.LBB4_70>:
800042b6: 97 25 00 00  	auipc	a1, 2
800042ba: 93 85 a5 a9  	addi	a1, a1, -1382
800042be: 4e 75        	ld	a0, 240(sp)
800042c0: 97 c0 ff ff  	auipc	ra, 1048572
800042c4: e7 80 40 78  	jalr	1924(ra)
800042c8: aa e5        	sd	a0, 200(sp)
800042ca: ae e1        	sd	a1, 192(sp)
800042cc: 09 a0        	j	2 <.LBB4_70+0x18>
800042ce: 2e 75        	ld	a0, 232(sp)
800042d0: 23 38 a1 22  	sd	a0, 560(sp)
800042d4: 8e 75        	ld	a1, 224(sp)
800042d6: 23 3c b1 22  	sd	a1, 568(sp)
800042da: 6e 66        	ld	a2, 216(sp)
800042dc: 23 30 c1 24  	sd	a2, 576(sp)
800042e0: ce 66        	ld	a3, 208(sp)
800042e2: 23 34 d1 24  	sd	a3, 584(sp)
800042e6: 2e 67        	ld	a4, 200(sp)
800042e8: 23 38 e1 24  	sd	a4, 592(sp)
800042ec: 8e 67        	ld	a5, 192(sp)
800042ee: 23 3c f1 24  	sd	a5, 600(sp)

00000000800042f2 <.LBB4_71>:
800042f2: 97 35 00 00  	auipc	a1, 3
800042f6: 93 85 e5 f0  	addi	a1, a1, -242
800042fa: 08 04        	addi	a0, sp, 512
800042fc: 11 46        	addi	a2, zero, 4
800042fe: 14 1c        	addi	a3, sp, 560
80004300: 0d 47        	addi	a4, zero, 3
80004302: 97 00 00 00  	auipc	ra, 0
80004306: e7 80 00 85  	jalr	-1968(ra)
8000430a: 09 a0        	j	2 <.LBB4_71+0x1a>
8000430c: a8 1b        	addi	a0, sp, 504
8000430e: 0c 04        	addi	a1, sp, 512
80004310: 97 c0 ff ff  	auipc	ra, 1048572
80004314: e7 80 40 3a  	jalr	932(ra)
80004318: 09 a0        	j	2 <.LBB4_71+0x28>
8000431a: 09 a0        	j	2 <.LBB4_71+0x2a>
8000431c: 56 75        	ld	a0, 368(sp)
8000431e: 97 f0 ff ff  	auipc	ra, 1048575
80004322: e7 80 c0 f2  	jalr	-212(ra)
80004326: 2a fd        	sd	a0, 184(sp)
80004328: 09 a0        	j	2 <.LBB4_71+0x38>
8000432a: 01 45        	mv	a0, zero
8000432c: ea 75        	ld	a1, 184(sp)
8000432e: 63 8a a5 00  	beq	a1, a0, 20 <.LBB4_71+0x50>
80004332: 09 a0        	j	2 <.LBB4_71+0x42>
80004334: 56 75        	ld	a0, 368(sp)
80004336: 97 f0 ff ff  	auipc	ra, 1048575
8000433a: e7 80 20 f3  	jalr	-206(ra)
8000433e: 2a f9        	sd	a0, 176(sp)
80004340: 11 a0        	j	4 <.LBB4_71+0x52>
80004342: fd aa        	j	510 <.LBB4_74+0x1c>
80004344: 4a 75        	ld	a0, 176(sp)
80004346: 09 e9        	bnez	a0, 18 <.LBB4_71+0x66>
80004348: 09 a0        	j	2 <.LBB4_71+0x58>
8000434a: 56 75        	ld	a0, 368(sp)
8000434c: 97 f0 ff ff  	auipc	ra, 1048575
80004350: e7 80 60 f7  	jalr	-138(ra)
80004354: 2a f5        	sd	a0, 168(sp)
80004356: 8d aa        	j	370 <.LBB4_73+0x136>
80004358: 97 f0 ff ff  	auipc	ra, 1048575
8000435c: e7 80 c0 69  	jalr	1692(ra)
80004360: 23 34 a1 28  	sd	a0, 648(sp)
80004364: 09 a0        	j	2 <.LBB4_71+0x74>
80004366: a8 13        	addi	a0, sp, 488
80004368: 23 38 a1 2c  	sd	a0, 720(sp)
8000436c: 23 38 a1 30  	sd	a0, 784(sp)

0000000080004370 <.LBB4_72>:
80004370: 97 25 00 00  	auipc	a1, 2
80004374: 93 85 c5 c1  	addi	a1, a1, -996
80004378: 97 c0 ff ff  	auipc	ra, 1048572
8000437c: e7 80 c0 6c  	jalr	1740(ra)
80004380: 2a f1        	sd	a0, 160(sp)
80004382: 2e ed        	sd	a1, 152(sp)
80004384: 09 a0        	j	2 <.LBB4_72+0x16>
80004386: 0a 75        	ld	a0, 160(sp)
80004388: 23 30 a1 2c  	sd	a0, 704(sp)
8000438c: ea 65        	ld	a1, 152(sp)
8000438e: 23 34 b1 2c  	sd	a1, 712(sp)

0000000080004392 <.LBB4_73>:
80004392: 97 35 00 00  	auipc	a1, 3
80004396: 93 85 e5 eb  	addi	a1, a1, -322
8000439a: 08 0d        	addi	a0, sp, 656
8000439c: 09 46        	addi	a2, zero, 2
8000439e: 94 05        	addi	a3, sp, 704
800043a0: 05 47        	addi	a4, zero, 1
800043a2: 97 f0 ff ff  	auipc	ra, 1048575
800043a6: e7 80 00 7b  	jalr	1968(ra)
800043aa: 09 a0        	j	2 <.LBB4_73+0x1a>
800043ac: 28 05        	addi	a0, sp, 648
800043ae: 0c 0d        	addi	a1, sp, 656
800043b0: 97 c0 ff ff  	auipc	ra, 1048572
800043b4: e7 80 40 30  	jalr	772(ra)
800043b8: 09 a0        	j	2 <.LBB4_73+0x28>
800043ba: 56 75        	ld	a0, 368(sp)
800043bc: 97 f0 ff ff  	auipc	ra, 1048575
800043c0: e7 80 40 e7  	jalr	-396(ra)
800043c4: aa 85        	add	a1, zero, a0
800043c6: 23 3c a1 30  	sd	a0, 792(sp)
800043ca: 2e e9        	sd	a1, 144(sp)
800043cc: 09 a0        	j	2 <.LBB4_73+0x3c>
800043ce: 3e 75        	ld	a0, 488(sp)
800043d0: 93 15 35 00  	slli	a1, a0, 3
800043d4: aa 95        	add	a1, a1, a0
800043d6: 25 46        	addi	a2, zero, 9
800043d8: 33 35 c5 02  	<unknown>
800043dc: 01 46        	mv	a2, zero
800043de: 2e e5        	sd	a1, 136(sp)
800043e0: 63 1a c5 16  	bne	a0, a2, 372 <.LBB4_75>
800043e4: 09 a0        	j	2 <.LBB4_73+0x54>
800043e6: 2a 65        	ld	a0, 136(sp)
800043e8: 93 05 c5 00  	addi	a1, a0, 12
800043ec: 2e e1        	sd	a1, 128(sp)
800043ee: 63 e2 a5 18  	bltu	a1, a0, 388 <.LBB4_77>
800043f2: 09 a0        	j	2 <.LBB4_73+0x62>
800043f4: 0a 65        	ld	a0, 128(sp)
800043f6: 93 75 05 fc  	andi	a1, a0, -64
800043fa: 05 46        	addi	a2, zero, 1
800043fc: 33 16 a6 00  	sll	a2, a2, a0
80004400: 81 46        	mv	a3, zero
80004402: b2 fc        	sd	a2, 120(sp)
80004404: 63 95 d5 18  	bne	a1, a3, 394 <.LBB4_79>
80004408: 09 a0        	j	2 <.LBB4_73+0x78>
8000440a: 66 75        	ld	a0, 120(sp)
8000440c: 93 05 f5 ff  	addi	a1, a0, -1
80004410: ae f8        	sd	a1, 112(sp)
80004412: 63 6d b5 18  	bltu	a0, a1, 410 <.LBB4_81>
80004416: 09 a0        	j	2 <.LBB4_73+0x86>
80004418: 46 75        	ld	a0, 112(sp)
8000441a: 23 30 a1 32  	sd	a0, 800(sp)
8000441e: be 75        	ld	a1, 488(sp)
80004420: 13 96 35 00  	slli	a2, a1, 3
80004424: 2e 96        	add	a2, a2, a1
80004426: a5 46        	addi	a3, zero, 9
80004428: b3 b5 d5 02  	<unknown>
8000442c: 81 46        	mv	a3, zero
8000442e: b2 f4        	sd	a2, 104(sp)
80004430: 63 9d d5 18  	bne	a1, a3, 410 <.LBB4_83>
80004434: 09 a0        	j	2 <.LBB4_73+0xa4>
80004436: 26 75        	ld	a0, 104(sp)
80004438: 93 75 05 fc  	andi	a1, a0, -64
8000443c: 05 46        	addi	a2, zero, 1
8000443e: 33 16 a6 00  	sll	a2, a2, a0
80004442: 81 46        	mv	a3, zero
80004444: b2 f0        	sd	a2, 96(sp)
80004446: 63 91 d5 1a  	bne	a1, a3, 418 <.LBB4_85>
8000444a: 09 a0        	j	2 <.LBB4_73+0xba>
8000444c: 06 75        	ld	a0, 96(sp)
8000444e: 93 05 f5 ff  	addi	a1, a0, -1
80004452: ae ec        	sd	a1, 88(sp)
80004454: 63 69 b5 1a  	bltu	a0, a1, 434 <.LBB4_87>
80004458: 09 a0        	j	2 <.LBB4_73+0xc8>
8000445a: 66 65        	ld	a0, 88(sp)
8000445c: 93 45 f5 ff  	not	a1, a0
80004460: 23 34 b1 32  	sd	a1, 808(sp)
80004464: 16 66        	ld	a2, 320(sp)
80004466: c6 76        	ld	a3, 112(sp)
80004468: 33 77 d6 00  	and	a4, a2, a3
8000446c: 23 38 e1 32  	sd	a4, 816(sp)
80004470: ca 67        	ld	a5, 144(sp)
80004472: fd 8d        	and	a1, a1, a5
80004474: 23 3c b1 32  	sd	a1, 824(sp)
80004478: 3e 78        	ld	a6, 488(sp)
8000447a: 93 18 38 00  	slli	a7, a6, 3
8000447e: c2 98        	add	a7, a7, a6
80004480: a5 42        	addi	t0, zero, 9
80004482: 33 38 58 02  	<unknown>
80004486: 81 42        	mv	t0, zero
80004488: ba e8        	sd	a4, 80(sp)
8000448a: ae e4        	sd	a1, 72(sp)
8000448c: c6 e0        	sd	a7, 64(sp)
8000448e: 63 1b 58 18  	bne	a6, t0, 406 <.LBB4_89>
80004492: 09 a0        	j	2 <.LBB4_73+0x102>
80004494: 06 65        	ld	a0, 64(sp)
80004496: 93 05 c5 00  	addi	a1, a0, 12
8000449a: 2e fc        	sd	a1, 56(sp)
8000449c: 63 e3 a5 1a  	bltu	a1, a0, 422 <.LBB4_91>
800044a0: 09 a0        	j	2 <.LBB4_73+0x110>
800044a2: 62 75        	ld	a0, 56(sp)
800044a4: 93 75 05 fc  	andi	a1, a0, -64
800044a8: 26 66        	ld	a2, 72(sp)
800044aa: b3 16 a6 00  	sll	a3, a2, a0
800044ae: 01 47        	mv	a4, zero
800044b0: 36 f8        	sd	a3, 48(sp)
800044b2: 63 96 e5 1a  	bne	a1, a4, 428 <.LBB4_93>
800044b6: 09 a0        	j	2 <.LBB4_73+0x126>
800044b8: 46 65        	ld	a0, 80(sp)
800044ba: c2 75        	ld	a1, 48(sp)
800044bc: 33 66 b5 00  	or	a2, a0, a1
800044c0: b2 ea        	sd	a2, 336(sp)
800044c2: 05 46        	addi	a2, zero, 1
800044c4: b2 e6        	sd	a2, 328(sp)
800044c6: 41 a0        	j	128 <.LBB4_74+0x22>
800044c8: 05 45        	addi	a0, zero, 1
800044ca: 7a 15        	slli	a0, a0, 62
800044cc: 13 05 05 c0  	addi	a0, a0, -1024
800044d0: aa 75        	ld	a1, 168(sp)
800044d2: 6d 8d        	and	a0, a0, a1
800044d4: 0a 05        	slli	a0, a0, 2
800044d6: 2a f4        	sd	a0, 40(sp)
800044d8: 09 a0        	j	2 <.LBB4_73+0x148>
800044da: 22 75        	ld	a0, 40(sp)
800044dc: a2 75        	ld	a1, 40(sp)
800044de: 23 30 b1 34  	sd	a1, 832(sp)
800044e2: 3e 76        	ld	a2, 488(sp)
800044e4: 93 06 f6 ff  	addi	a3, a2, -1
800044e8: 2a f0        	sd	a0, 32(sp)
800044ea: 36 ec        	sd	a3, 24(sp)
800044ec: 63 68 d6 18  	bltu	a2, a3, 400 <.LBB4_95>
800044f0: 09 a0        	j	2 <.LBB4_73+0x160>
800044f2: 09 45        	addi	a0, zero, 2
800044f4: e2 65        	ld	a1, 24(sp)
800044f6: 63 62 b5 1a  	bltu	a0, a1, 420 <.LBB4_97>
800044fa: 09 a0        	j	2 <.LBB4_73+0x16a>
800044fc: 62 65        	ld	a0, 24(sp)
800044fe: 93 15 35 00  	slli	a1, a0, 3
80004502: b0 0a        	addi	a2, sp, 344
80004504: b2 95        	add	a1, a1, a2
80004506: 8c 61        	ld	a1, 0(a1)
80004508: 02 75        	ld	a0, 32(sp)
8000450a: 97 d0 ff ff  	auipc	ra, 1048573
8000450e: e7 80 c0 71  	jalr	1820(ra)
80004512: 2a e8        	sd	a0, 16(sp)
80004514: 09 a0        	j	2 <.LBB4_73+0x184>
80004516: 42 65        	ld	a0, 16(sp)
80004518: 97 d0 ff ff  	auipc	ra, 1048573
8000451c: e7 80 a0 72  	jalr	1834(ra)
80004520: 2a e4        	sd	a0, 8(sp)
80004522: 09 a0        	j	2 <.LBB4_74>

0000000080004524 <.LBB4_74>:
80004524: 97 35 00 00  	auipc	a1, 3
80004528: 93 85 45 f0  	addi	a1, a1, -252
8000452c: 22 65        	ld	a0, 8(sp)
8000452e: 97 e0 ff ff  	auipc	ra, 1048574
80004532: e7 80 c0 2c  	jalr	716(ra)
80004536: 2a e0        	sd	a0, 0(sp)
80004538: 09 a0        	j	2 <.LBB4_74+0x16>
8000453a: 02 65        	ld	a0, 0(sp)
8000453c: aa fa        	sd	a0, 368(sp)
8000453e: c1 b1        	j	-832 <.LBB4_67+0x54>
80004540: 01 45        	mv	a0, zero
80004542: aa e6        	sd	a0, 328(sp)
80004544: 09 a0        	j	2 <.LBB4_74+0x22>
80004546: 36 65        	ld	a0, 328(sp)
80004548: d6 65        	ld	a1, 336(sp)
8000454a: 83 30 81 34  	ld	ra, 840(sp)
8000454e: 13 01 01 35  	addi	sp, sp, 848
80004552: 82 80        	ret

0000000080004554 <.LBB4_75>:
80004554: 17 35 00 00  	auipc	a0, 3
80004558: 13 05 c5 d3  	addi	a0, a0, -708

000000008000455c <.LBB4_76>:
8000455c: 17 36 00 00  	auipc	a2, 3
80004560: 13 06 46 d1  	addi	a2, a2, -748
80004564: 93 05 10 02  	addi	a1, zero, 33
80004568: 97 10 00 00  	auipc	ra, 1
8000456c: e7 80 20 db  	jalr	-590(ra)
80004570: 00 00        	unimp	

0000000080004572 <.LBB4_77>:
80004572: 17 35 00 00  	auipc	a0, 3
80004576: 13 05 e5 d5  	addi	a0, a0, -674

000000008000457a <.LBB4_78>:
8000457a: 17 36 00 00  	auipc	a2, 3
8000457e: 13 06 e6 d3  	addi	a2, a2, -706
80004582: f1 45        	addi	a1, zero, 28
80004584: 97 10 00 00  	auipc	ra, 1
80004588: e7 80 60 d9  	jalr	-618(ra)
8000458c: 00 00        	unimp	

000000008000458e <.LBB4_79>:
8000458e: 17 35 00 00  	auipc	a0, 3
80004592: 13 05 25 d8  	addi	a0, a0, -638

0000000080004596 <.LBB4_80>:
80004596: 17 36 00 00  	auipc	a2, 3
8000459a: 13 06 a6 d5  	addi	a2, a2, -678
8000459e: 93 05 30 02  	addi	a1, zero, 35
800045a2: 97 10 00 00  	auipc	ra, 1
800045a6: e7 80 80 d7  	jalr	-648(ra)
800045aa: 00 00        	unimp	

00000000800045ac <.LBB4_81>:
800045ac: 17 35 00 00  	auipc	a0, 3
800045b0: 13 05 45 d9  	addi	a0, a0, -620

00000000800045b4 <.LBB4_82>:
800045b4: 17 36 00 00  	auipc	a2, 3
800045b8: 13 06 c6 d3  	addi	a2, a2, -708
800045bc: 93 05 10 02  	addi	a1, zero, 33
800045c0: 97 10 00 00  	auipc	ra, 1
800045c4: e7 80 a0 d5  	jalr	-678(ra)
800045c8: 00 00        	unimp	

00000000800045ca <.LBB4_83>:
800045ca: 17 35 00 00  	auipc	a0, 3
800045ce: 13 05 65 cc  	addi	a0, a0, -826

00000000800045d2 <.LBB4_84>:
800045d2: 17 36 00 00  	auipc	a2, 3
800045d6: 13 06 66 d9  	addi	a2, a2, -618
800045da: 93 05 10 02  	addi	a1, zero, 33
800045de: 97 10 00 00  	auipc	ra, 1
800045e2: e7 80 c0 d3  	jalr	-708(ra)
800045e6: 00 00        	unimp	

00000000800045e8 <.LBB4_85>:
800045e8: 17 35 00 00  	auipc	a0, 3
800045ec: 13 05 85 d2  	addi	a0, a0, -728

00000000800045f0 <.LBB4_86>:
800045f0: 17 36 00 00  	auipc	a2, 3
800045f4: 13 06 06 d9  	addi	a2, a2, -624
800045f8: 93 05 30 02  	addi	a1, zero, 35
800045fc: 97 10 00 00  	auipc	ra, 1
80004600: e7 80 e0 d1  	jalr	-738(ra)
80004604: 00 00        	unimp	

0000000080004606 <.LBB4_87>:
80004606: 17 35 00 00  	auipc	a0, 3
8000460a: 13 05 a5 d3  	addi	a0, a0, -710

000000008000460e <.LBB4_88>:
8000460e: 17 36 00 00  	auipc	a2, 3
80004612: 13 06 a6 d8  	addi	a2, a2, -630
80004616: 93 05 10 02  	addi	a1, zero, 33
8000461a: 97 10 00 00  	auipc	ra, 1
8000461e: e7 80 00 d0  	jalr	-768(ra)
80004622: 00 00        	unimp	

0000000080004624 <.LBB4_89>:
80004624: 17 35 00 00  	auipc	a0, 3
80004628: 13 05 c5 c6  	addi	a0, a0, -916

000000008000462c <.LBB4_90>:
8000462c: 17 36 00 00  	auipc	a2, 3
80004630: 13 06 46 d8  	addi	a2, a2, -636
80004634: 93 05 10 02  	addi	a1, zero, 33
80004638: 97 10 00 00  	auipc	ra, 1
8000463c: e7 80 20 ce  	jalr	-798(ra)
80004640: 00 00        	unimp	

0000000080004642 <.LBB4_91>:
80004642: 17 35 00 00  	auipc	a0, 3
80004646: 13 05 e5 c8  	addi	a0, a0, -882

000000008000464a <.LBB4_92>:
8000464a: 17 36 00 00  	auipc	a2, 3
8000464e: 13 06 e6 d7  	addi	a2, a2, -642
80004652: f1 45        	addi	a1, zero, 28
80004654: 97 10 00 00  	auipc	ra, 1
80004658: e7 80 60 cc  	jalr	-826(ra)
8000465c: 00 00        	unimp	

000000008000465e <.LBB4_93>:
8000465e: 17 35 00 00  	auipc	a0, 3
80004662: 13 05 25 cb  	addi	a0, a0, -846

0000000080004666 <.LBB4_94>:
80004666: 17 36 00 00  	auipc	a2, 3
8000466a: 13 06 a6 d7  	addi	a2, a2, -646
8000466e: 93 05 30 02  	addi	a1, zero, 35
80004672: 97 10 00 00  	auipc	ra, 1
80004676: e7 80 80 ca  	jalr	-856(ra)
8000467a: 00 00        	unimp	

000000008000467c <.LBB4_95>:
8000467c: 17 35 00 00  	auipc	a0, 3
80004680: 13 05 45 cc  	addi	a0, a0, -828

0000000080004684 <.LBB4_96>:
80004684: 17 36 00 00  	auipc	a2, 3
80004688: 13 06 46 d7  	addi	a2, a2, -652
8000468c: 93 05 10 02  	addi	a1, zero, 33
80004690: 97 10 00 00  	auipc	ra, 1
80004694: e7 80 a0 c8  	jalr	-886(ra)
80004698: 00 00        	unimp	

000000008000469a <.LBB4_97>:
8000469a: 17 36 00 00  	auipc	a2, 3
8000469e: 13 06 66 d7  	addi	a2, a2, -650
800046a2: 8d 45        	addi	a1, zero, 3
800046a4: 62 65        	ld	a0, 24(sp)
800046a6: 97 10 00 00  	auipc	ra, 1
800046aa: e7 80 00 ca  	jalr	-864(ra)
800046ae: 00 00        	unimp	

00000000800046b0 <qor_os::mem::mmu::inner_idmap::hf29e2ab803656d54>:
800046b0: 59 71        	addi	sp, sp, -112
800046b2: 86 f4        	sd	ra, 104(sp)
800046b4: aa e0        	sd	a0, 64(sp)
800046b6: ae e4        	sd	a1, 72(sp)
800046b8: b2 e8        	sd	a2, 80(sp)
800046ba: b6 ec        	sd	a3, 88(sp)
800046bc: 7d 77        	lui	a4, 1048575
800046be: f9 8d        	and	a1, a1, a4
800046c0: 2e f8        	sd	a1, 48(sp)
800046c2: b3 75 e6 00  	and	a1, a2, a4
800046c6: ae f0        	sd	a1, 96(sp)
800046c8: 36 f4        	sd	a3, 40(sp)
800046ca: 2a f0        	sd	a0, 32(sp)
800046cc: 2e ec        	sd	a1, 24(sp)
800046ce: 09 a0        	j	2 <qor_os::mem::mmu::inner_idmap::hf29e2ab803656d54+0x20>
800046d0: 42 75        	ld	a0, 48(sp)
800046d2: e2 65        	ld	a1, 24(sp)
800046d4: 63 f6 a5 00  	bgeu	a1, a0, 12 <qor_os::mem::mmu::inner_idmap::hf29e2ab803656d54+0x30>
800046d8: 09 a0        	j	2 <qor_os::mem::mmu::inner_idmap::hf29e2ab803656d54+0x2a>
800046da: a6 70        	ld	ra, 104(sp)
800046dc: 65 61        	addi	sp, sp, 112
800046de: 82 80        	ret
800046e0: 42 75        	ld	a0, 48(sp)
800046e2: 81 45        	mv	a1, zero
800046e4: 2e fc        	sd	a1, 56(sp)
800046e6: 02 76        	ld	a2, 32(sp)
800046e8: 2a e8        	sd	a0, 16(sp)
800046ea: 32 85        	add	a0, zero, a2
800046ec: c2 66        	ld	a3, 16(sp)
800046ee: 2e e4        	sd	a1, 8(sp)
800046f0: b6 85        	add	a1, zero, a3
800046f2: 36 86        	add	a2, zero, a3
800046f4: a2 76        	ld	a3, 40(sp)
800046f6: 22 67        	ld	a4, 8(sp)
800046f8: 97 f0 ff ff  	auipc	ra, 1048575
800046fc: e7 80 00 64  	jalr	1600(ra)
80004700: 09 a0        	j	2 <qor_os::mem::mmu::inner_idmap::hf29e2ab803656d54+0x52>
80004702: 42 75        	ld	a0, 48(sp)
80004704: 85 65        	lui	a1, 1
80004706: aa 95        	add	a1, a1, a0
80004708: 2e e0        	sd	a1, 0(sp)
8000470a: 63 e6 a5 00  	bltu	a1, a0, 12 <.LBB5_7>
8000470e: 09 a0        	j	2 <qor_os::mem::mmu::inner_idmap::hf29e2ab803656d54+0x60>
80004710: 02 65        	ld	a0, 0(sp)
80004712: 2a f8        	sd	a0, 48(sp)
80004714: 75 bf        	j	-68 <qor_os::mem::mmu::inner_idmap::hf29e2ab803656d54+0x20>

0000000080004716 <.LBB5_7>:
80004716: 17 35 00 00  	auipc	a0, 3
8000471a: 13 05 a5 bb  	addi	a0, a0, -1094

000000008000471e <.LBB5_8>:
8000471e: 17 36 00 00  	auipc	a2, 3
80004722: 13 06 26 d2  	addi	a2, a2, -734
80004726: f1 45        	addi	a1, zero, 28
80004728: 97 10 00 00  	auipc	ra, 1
8000472c: e7 80 20 bf  	jalr	-1038(ra)
80004730: 00 00        	unimp	

0000000080004732 <qor_os::mem::mmu::virt_to_phys::h62643a88a67795bc>:
80004732: 79 71        	addi	sp, sp, -48
80004734: 06 f4        	sd	ra, 40(sp)
80004736: 2a f0        	sd	a0, 32(sp)
80004738: 2a ec        	sd	a0, 24(sp)
8000473a: 97 f0 ff ff  	auipc	ra, 1048575
8000473e: e7 80 a0 43  	jalr	1082(ra)
80004742: 2a e8        	sd	a0, 16(sp)
80004744: 09 a0        	j	2 <qor_os::mem::mmu::virt_to_phys::h62643a88a67795bc+0x14>
80004746: 42 65        	ld	a0, 16(sp)
80004748: e2 65        	ld	a1, 24(sp)
8000474a: 97 00 00 00  	auipc	ra, 0
8000474e: e7 80 00 a1  	jalr	-1520(ra)
80004752: 2a e4        	sd	a0, 8(sp)
80004754: 2e e0        	sd	a1, 0(sp)
80004756: 09 a0        	j	2 <qor_os::mem::mmu::virt_to_phys::h62643a88a67795bc+0x26>
80004758: 22 65        	ld	a0, 8(sp)
8000475a: 82 65        	ld	a1, 0(sp)
8000475c: a2 70        	ld	ra, 40(sp)
8000475e: 45 61        	addi	sp, sp, 48
80004760: 82 80        	ret

0000000080004762 <qor_os::mem::mmu::idmap::hb612eb646e1be3be>:
80004762: 39 71        	addi	sp, sp, -64
80004764: 06 fc        	sd	ra, 56(sp)
80004766: 2a f0        	sd	a0, 32(sp)
80004768: 2e f4        	sd	a1, 40(sp)
8000476a: 32 f8        	sd	a2, 48(sp)
8000476c: 32 ec        	sd	a2, 24(sp)
8000476e: 2e e8        	sd	a1, 16(sp)
80004770: 2a e4        	sd	a0, 8(sp)
80004772: 97 f0 ff ff  	auipc	ra, 1048575
80004776: e7 80 20 40  	jalr	1026(ra)
8000477a: 2a e0        	sd	a0, 0(sp)
8000477c: 09 a0        	j	2 <qor_os::mem::mmu::idmap::hb612eb646e1be3be+0x1c>
8000477e: 02 65        	ld	a0, 0(sp)
80004780: a2 65        	ld	a1, 8(sp)
80004782: 42 66        	ld	a2, 16(sp)
80004784: e2 66        	ld	a3, 24(sp)
80004786: 97 00 00 00  	auipc	ra, 0
8000478a: e7 80 a0 f2  	jalr	-214(ra)
8000478e: 09 a0        	j	2 <qor_os::mem::mmu::idmap::hb612eb646e1be3be+0x2e>
80004790: e2 70        	ld	ra, 56(sp)
80004792: 21 61        	addi	sp, sp, 64
80004794: 82 80        	ret

0000000080004796 <<qor_os::mem::mmu::MMUPageLevel as core::fmt::Debug>::fmt::h8912bc54dfc0689c>:
80004796: 19 71        	addi	sp, sp, -128
80004798: 86 fc        	sd	ra, 120(sp)
8000479a: aa f4        	sd	a0, 104(sp)
8000479c: ae f8        	sd	a1, 112(sp)
8000479e: 2a ec        	sd	a0, 24(sp)
800047a0: 08 61        	ld	a0, 0(a0)
800047a2: 01 46        	mv	a2, zero
800047a4: 2e e4        	sd	a1, 8(sp)
800047a6: 2a e0        	sd	a0, 0(sp)
800047a8: 63 05 c5 02  	beq	a0, a2, 42 <.LBB8_15>
800047ac: 09 a0        	j	2 <<qor_os::mem::mmu::MMUPageLevel as core::fmt::Debug>::fmt::h8912bc54dfc0689c+0x18>
800047ae: 05 45        	addi	a0, zero, 1
800047b0: 82 65        	ld	a1, 0(sp)
800047b2: 63 85 a5 04  	beq	a1, a0, 74 <.LBB8_16>
800047b6: 09 a0        	j	2 <.LBB8_14>

00000000800047b8 <.LBB8_14>:
800047b8: 17 36 00 00  	auipc	a2, 3
800047bc: 13 06 06 ca  	addi	a2, a2, -864
800047c0: 88 08        	addi	a0, sp, 80
800047c2: a5 46        	addi	a3, zero, 9
800047c4: a2 65        	ld	a1, 8(sp)
800047c6: 97 10 00 00  	auipc	ra, 1
800047ca: e7 80 20 38  	jalr	898(ra)
800047ce: a1 a8        	j	88 <.LBB8_16+0x2a>
800047d0: 00 00        	unimp	

00000000800047d2 <.LBB8_15>:
800047d2: 17 36 00 00  	auipc	a2, 3
800047d6: 13 06 86 c9  	addi	a2, a2, -872
800047da: 08 10        	addi	a0, sp, 32
800047dc: a5 46        	addi	a3, zero, 9
800047de: a2 65        	ld	a1, 8(sp)
800047e0: 97 10 00 00  	auipc	ra, 1
800047e4: e7 80 80 36  	jalr	872(ra)
800047e8: 09 a0        	j	2 <.LBB8_15+0x18>
800047ea: 08 10        	addi	a0, sp, 32
800047ec: 97 10 00 00  	auipc	ra, 1
800047f0: e7 80 20 bc  	jalr	-1086(ra)
800047f4: a3 0b a1 00  	sb	a0, 23(sp)
800047f8: 09 a0        	j	2 <.LBB8_15+0x28>
800047fa: 3d a8        	j	62 <.LBB8_16+0x3c>

00000000800047fc <.LBB8_16>:
800047fc: 17 36 00 00  	auipc	a2, 3
80004800: 13 06 56 c6  	addi	a2, a2, -923
80004804: 28 18        	addi	a0, sp, 56
80004806: a5 46        	addi	a3, zero, 9
80004808: a2 65        	ld	a1, 8(sp)
8000480a: 97 10 00 00  	auipc	ra, 1
8000480e: e7 80 e0 33  	jalr	830(ra)
80004812: 09 a0        	j	2 <.LBB8_16+0x18>
80004814: 28 18        	addi	a0, sp, 56
80004816: 97 10 00 00  	auipc	ra, 1
8000481a: e7 80 80 b9  	jalr	-1128(ra)
8000481e: a3 0b a1 00  	sb	a0, 23(sp)
80004822: 09 a0        	j	2 <.LBB8_16+0x28>
80004824: 11 a8        	j	20 <.LBB8_16+0x3c>
80004826: 88 08        	addi	a0, sp, 80
80004828: 97 10 00 00  	auipc	ra, 1
8000482c: e7 80 60 b8  	jalr	-1146(ra)
80004830: a3 0b a1 00  	sb	a0, 23(sp)
80004834: 09 a0        	j	2 <.LBB8_16+0x3a>
80004836: 09 a0        	j	2 <.LBB8_16+0x3c>
80004838: 03 45 71 01  	lbu	a0, 23(sp)
8000483c: e6 70        	ld	ra, 120(sp)
8000483e: 09 61        	addi	sp, sp, 128
80004840: 82 80        	ret

0000000080004842 <core::sync::atomic::AtomicBool::new::h4fc79e1b35a5a978>:
80004842: 01 11        	addi	sp, sp, -32
80004844: 06 ec        	sd	ra, 24(sp)
80004846: aa 85        	add	a1, zero, a0
80004848: a3 0b a1 00  	sb	a0, 23(sp)
8000484c: 2e e4        	sd	a1, 8(sp)
8000484e: 97 c0 ff ff  	auipc	ra, 1048572
80004852: e7 80 c0 f3  	jalr	-196(ra)
80004856: 2a e0        	sd	a0, 0(sp)
80004858: 09 a0        	j	2 <core::sync::atomic::AtomicBool::new::h4fc79e1b35a5a978+0x18>
8000485a: 02 65        	ld	a0, 0(sp)
8000485c: 23 08 a1 00  	sb	a0, 16(sp)
80004860: e2 60        	ld	ra, 24(sp)
80004862: 05 61        	addi	sp, sp, 32
80004864: 82 80        	ret

0000000080004866 <core::sync::atomic::AtomicBool::load::h9c2749956ad72641>:
80004866: 79 71        	addi	sp, sp, -48
80004868: 06 f4        	sd	ra, 40(sp)
8000486a: 2e 86        	add	a2, zero, a1
8000486c: 2a ec        	sd	a0, 24(sp)
8000486e: a3 03 b1 02  	sb	a1, 39(sp)
80004872: 32 e8        	sd	a2, 16(sp)
80004874: 97 c0 ff ff  	auipc	ra, 1048572
80004878: e7 80 60 ef  	jalr	-266(ra)
8000487c: 2a e4        	sd	a0, 8(sp)
8000487e: 09 a0        	j	2 <core::sync::atomic::AtomicBool::load::h9c2749956ad72641+0x1a>
80004880: 22 65        	ld	a0, 8(sp)
80004882: c2 65        	ld	a1, 16(sp)
80004884: 97 e0 ff ff  	auipc	ra, 1048574
80004888: e7 80 e0 90  	jalr	-1778(ra)
8000488c: 2a e0        	sd	a0, 0(sp)
8000488e: 09 a0        	j	2 <core::sync::atomic::AtomicBool::load::h9c2749956ad72641+0x2a>
80004890: 02 65        	ld	a0, 0(sp)
80004892: 93 75 f5 0f  	andi	a1, a0, 255
80004896: 33 35 b0 00  	snez	a0, a1
8000489a: a2 70        	ld	ra, 40(sp)
8000489c: 45 61        	addi	sp, sp, 48
8000489e: 82 80        	ret

00000000800048a0 <core::sync::atomic::AtomicBool::store::h3956f52ff3367a78>:
800048a0: 79 71        	addi	sp, sp, -48
800048a2: 06 f4        	sd	ra, 40(sp)
800048a4: b2 86        	add	a3, zero, a2
800048a6: 2e 87        	add	a4, zero, a1
800048a8: 2a ec        	sd	a0, 24(sp)
800048aa: 23 03 b1 02  	sb	a1, 38(sp)
800048ae: a3 03 c1 02  	sb	a2, 39(sp)
800048b2: 36 e8        	sd	a3, 16(sp)
800048b4: 3a e4        	sd	a4, 8(sp)
800048b6: 97 c0 ff ff  	auipc	ra, 1048572
800048ba: e7 80 40 eb  	jalr	-332(ra)
800048be: 2a e0        	sd	a0, 0(sp)
800048c0: 09 a0        	j	2 <core::sync::atomic::AtomicBool::store::h3956f52ff3367a78+0x22>
800048c2: 02 65        	ld	a0, 0(sp)
800048c4: a2 65        	ld	a1, 8(sp)
800048c6: 42 66        	ld	a2, 16(sp)
800048c8: 97 e0 ff ff  	auipc	ra, 1048574
800048cc: e7 80 e0 ac  	jalr	-1330(ra)
800048d0: 09 a0        	j	2 <core::sync::atomic::AtomicBool::store::h3956f52ff3367a78+0x32>
800048d2: a2 70        	ld	ra, 40(sp)
800048d4: 45 61        	addi	sp, sp, 48
800048d6: 82 80        	ret

00000000800048d8 <core::sync::atomic::AtomicUsize::compare_and_swap::h88df9cbc9a1ec0fe>:
800048d8: 19 71        	addi	sp, sp, -128
800048da: 86 fc        	sd	ra, 120(sp)
800048dc: 36 87        	add	a4, zero, a3
800048de: aa e4        	sd	a0, 72(sp)
800048e0: ae e8        	sd	a1, 80(sp)
800048e2: b2 ec        	sd	a2, 88(sp)
800048e4: a3 03 d1 06  	sb	a3, 103(sp)
800048e8: 2a f4        	sd	a0, 40(sp)
800048ea: 36 85        	add	a0, zero, a3
800048ec: 32 f0        	sd	a2, 32(sp)
800048ee: 2e ec        	sd	a1, 24(sp)
800048f0: 3a e8        	sd	a4, 16(sp)
800048f2: 97 00 00 00  	auipc	ra, 0
800048f6: e7 80 20 11  	jalr	274(ra)
800048fa: 13 77 f5 0f  	andi	a4, a0, 255
800048fe: 3a e4        	sd	a4, 8(sp)
80004900: 09 a0        	j	2 <core::sync::atomic::AtomicUsize::compare_and_swap::h88df9cbc9a1ec0fe+0x2a>
80004902: 22 75        	ld	a0, 40(sp)
80004904: e2 65        	ld	a1, 24(sp)
80004906: 02 76        	ld	a2, 32(sp)
80004908: c2 66        	ld	a3, 16(sp)
8000490a: 22 67        	ld	a4, 8(sp)
8000490c: 97 00 00 00  	auipc	ra, 0
80004910: e7 80 20 03  	jalr	50(ra)
80004914: 2a fc        	sd	a0, 56(sp)
80004916: ae e0        	sd	a1, 64(sp)
80004918: 09 a0        	j	2 <core::sync::atomic::AtomicUsize::compare_and_swap::h88df9cbc9a1ec0fe+0x42>
8000491a: 62 75        	ld	a0, 56(sp)
8000491c: 81 45        	mv	a1, zero
8000491e: 63 08 b5 00  	beq	a0, a1, 16 <core::sync::atomic::AtomicUsize::compare_and_swap::h88df9cbc9a1ec0fe+0x56>
80004922: 09 a0        	j	2 <core::sync::atomic::AtomicUsize::compare_and_swap::h88df9cbc9a1ec0fe+0x4c>
80004924: 06 65        	ld	a0, 64(sp)
80004926: aa f4        	sd	a0, 104(sp)
80004928: 2a f8        	sd	a0, 48(sp)
8000492a: 31 a0        	j	12 <core::sync::atomic::AtomicUsize::compare_and_swap::h88df9cbc9a1ec0fe+0x5e>
8000492c: 00 00        	unimp	
8000492e: 06 65        	ld	a0, 64(sp)
80004930: aa f8        	sd	a0, 112(sp)
80004932: 2a f8        	sd	a0, 48(sp)
80004934: 09 a0        	j	2 <core::sync::atomic::AtomicUsize::compare_and_swap::h88df9cbc9a1ec0fe+0x5e>
80004936: 42 75        	ld	a0, 48(sp)
80004938: e6 70        	ld	ra, 120(sp)
8000493a: 09 61        	addi	sp, sp, 128
8000493c: 82 80        	ret

000000008000493e <core::sync::atomic::AtomicUsize::compare_exchange::h55fed74c2faad336>:
8000493e: 1d 71        	addi	sp, sp, -96
80004940: 86 ec        	sd	ra, 88(sp)
80004942: ba 87        	add	a5, zero, a4
80004944: 36 88        	add	a6, zero, a3
80004946: 2a fc        	sd	a0, 56(sp)
80004948: ae e0        	sd	a1, 64(sp)
8000494a: b2 e4        	sd	a2, 72(sp)
8000494c: 23 0b d1 04  	sb	a3, 86(sp)
80004950: a3 0b e1 04  	sb	a4, 87(sp)
80004954: 32 f8        	sd	a2, 48(sp)
80004956: 2e f4        	sd	a1, 40(sp)
80004958: 3e f0        	sd	a5, 32(sp)
8000495a: 42 ec        	sd	a6, 24(sp)
8000495c: 97 10 00 00  	auipc	ra, 1
80004960: e7 80 80 94  	jalr	-1720(ra)
80004964: 2a e8        	sd	a0, 16(sp)
80004966: 09 a0        	j	2 <core::sync::atomic::AtomicUsize::compare_exchange::h55fed74c2faad336+0x2a>
80004968: 42 65        	ld	a0, 16(sp)
8000496a: a2 75        	ld	a1, 40(sp)
8000496c: 42 76        	ld	a2, 48(sp)
8000496e: e2 66        	ld	a3, 24(sp)
80004970: 02 77        	ld	a4, 32(sp)
80004972: 97 e0 ff ff  	auipc	ra, 1048574
80004976: e7 80 a0 b3  	jalr	-1222(ra)
8000497a: 2a e4        	sd	a0, 8(sp)
8000497c: 2e e0        	sd	a1, 0(sp)
8000497e: 09 a0        	j	2 <core::sync::atomic::AtomicUsize::compare_exchange::h55fed74c2faad336+0x42>
80004980: 22 65        	ld	a0, 8(sp)
80004982: 82 65        	ld	a1, 0(sp)
80004984: e6 60        	ld	ra, 88(sp)
80004986: 25 61        	addi	sp, sp, 96
80004988: 82 80        	ret

000000008000498a <core::sync::atomic::AtomicUsize::load::h8233a16a77816346>:
8000498a: 79 71        	addi	sp, sp, -48
8000498c: 06 f4        	sd	ra, 40(sp)
8000498e: 2e 86        	add	a2, zero, a1
80004990: 2a ec        	sd	a0, 24(sp)
80004992: a3 03 b1 02  	sb	a1, 39(sp)
80004996: 32 e8        	sd	a2, 16(sp)
80004998: 97 10 00 00  	auipc	ra, 1
8000499c: e7 80 c0 90  	jalr	-1780(ra)
800049a0: 2a e4        	sd	a0, 8(sp)
800049a2: 09 a0        	j	2 <core::sync::atomic::AtomicUsize::load::h8233a16a77816346+0x1a>
800049a4: 22 65        	ld	a0, 8(sp)
800049a6: c2 65        	ld	a1, 16(sp)
800049a8: 97 e0 ff ff  	auipc	ra, 1048574
800049ac: e7 80 00 8a  	jalr	-1888(ra)
800049b0: 2a e0        	sd	a0, 0(sp)
800049b2: 09 a0        	j	2 <core::sync::atomic::AtomicUsize::load::h8233a16a77816346+0x2a>
800049b4: 02 65        	ld	a0, 0(sp)
800049b6: a2 70        	ld	ra, 40(sp)
800049b8: 45 61        	addi	sp, sp, 48
800049ba: 82 80        	ret

00000000800049bc <core::sync::atomic::AtomicUsize::store::he3fe20b19cc52983>:
800049bc: 39 71        	addi	sp, sp, -64
800049be: 06 fc        	sd	ra, 56(sp)
800049c0: b2 86        	add	a3, zero, a2
800049c2: 2a f0        	sd	a0, 32(sp)
800049c4: 2e f4        	sd	a1, 40(sp)
800049c6: a3 0b c1 02  	sb	a2, 55(sp)
800049ca: 2e ec        	sd	a1, 24(sp)
800049cc: 36 e8        	sd	a3, 16(sp)
800049ce: 97 10 00 00  	auipc	ra, 1
800049d2: e7 80 60 8d  	jalr	-1834(ra)
800049d6: 2a e4        	sd	a0, 8(sp)
800049d8: 09 a0        	j	2 <core::sync::atomic::AtomicUsize::store::he3fe20b19cc52983+0x1e>
800049da: 22 65        	ld	a0, 8(sp)
800049dc: e2 65        	ld	a1, 24(sp)
800049de: 42 66        	ld	a2, 16(sp)
800049e0: 97 10 00 00  	auipc	ra, 1
800049e4: e7 80 e0 81  	jalr	-2018(ra)
800049e8: 09 a0        	j	2 <core::sync::atomic::AtomicUsize::store::he3fe20b19cc52983+0x2e>
800049ea: e2 70        	ld	ra, 56(sp)
800049ec: 21 61        	addi	sp, sp, 64
800049ee: 82 80        	ret

00000000800049f0 <core::sync::atomic::spin_loop_hint::h684b5c5f6c5cf5c3>:
800049f0: 41 11        	addi	sp, sp, -16
800049f2: 06 e4        	sd	ra, 8(sp)
800049f4: 97 d0 ff ff  	auipc	ra, 1048573
800049f8: e7 80 e0 5c  	jalr	1486(ra)
800049fc: 09 a0        	j	2 <core::sync::atomic::spin_loop_hint::h684b5c5f6c5cf5c3+0xe>
800049fe: a2 60        	ld	ra, 8(sp)
80004a00: 41 01        	addi	sp, sp, 16
80004a02: 82 80        	ret

0000000080004a04 <core::sync::atomic::strongest_failure_ordering::h585c7e67a552ac96>:
80004a04: 41 11        	addi	sp, sp, -16
80004a06: aa 85        	add	a1, zero, a0
80004a08: 23 07 a1 00  	sb	a0, 14(sp)
80004a0c: 13 75 f5 0f  	andi	a0, a0, 255
80004a10: 01 46        	mv	a2, zero
80004a12: 2a e0        	sd	a0, 0(sp)
80004a14: 63 0c c5 02  	beq	a0, a2, 56 <core::sync::atomic::strongest_failure_ordering::h585c7e67a552ac96+0x48>
80004a18: 09 a0        	j	2 <core::sync::atomic::strongest_failure_ordering::h585c7e67a552ac96+0x16>
80004a1a: 05 45        	addi	a0, zero, 1
80004a1c: 82 65        	ld	a1, 0(sp)
80004a1e: 63 83 a5 02  	beq	a1, a0, 38 <core::sync::atomic::strongest_failure_ordering::h585c7e67a552ac96+0x40>
80004a22: 09 a0        	j	2 <core::sync::atomic::strongest_failure_ordering::h585c7e67a552ac96+0x20>
80004a24: 09 45        	addi	a0, zero, 2
80004a26: 82 65        	ld	a1, 0(sp)
80004a28: 63 8a a5 02  	beq	a1, a0, 52 <core::sync::atomic::strongest_failure_ordering::h585c7e67a552ac96+0x58>
80004a2c: 09 a0        	j	2 <core::sync::atomic::strongest_failure_ordering::h585c7e67a552ac96+0x2a>
80004a2e: 0d 45        	addi	a0, zero, 3
80004a30: 82 65        	ld	a1, 0(sp)
80004a32: 63 84 a5 00  	beq	a1, a0, 8 <core::sync::atomic::strongest_failure_ordering::h585c7e67a552ac96+0x36>
80004a36: 09 a0        	j	2 <core::sync::atomic::strongest_failure_ordering::h585c7e67a552ac96+0x34>
80004a38: 31 a8        	j	28 <core::sync::atomic::strongest_failure_ordering::h585c7e67a552ac96+0x50>
80004a3a: 09 45        	addi	a0, zero, 2
80004a3c: a3 07 a1 00  	sb	a0, 15(sp)
80004a40: 15 a0        	j	36 <core::sync::atomic::strongest_failure_ordering::h585c7e67a552ac96+0x60>
80004a42: 00 00        	unimp	
80004a44: 01 45        	mv	a0, zero
80004a46: a3 07 a1 00  	sb	a0, 15(sp)
80004a4a: 29 a8        	j	26 <core::sync::atomic::strongest_failure_ordering::h585c7e67a552ac96+0x60>
80004a4c: 01 45        	mv	a0, zero
80004a4e: a3 07 a1 00  	sb	a0, 15(sp)
80004a52: 09 a8        	j	18 <core::sync::atomic::strongest_failure_ordering::h585c7e67a552ac96+0x60>
80004a54: 11 45        	addi	a0, zero, 4
80004a56: a3 07 a1 00  	sb	a0, 15(sp)
80004a5a: 29 a0        	j	10 <core::sync::atomic::strongest_failure_ordering::h585c7e67a552ac96+0x60>
80004a5c: 09 45        	addi	a0, zero, 2
80004a5e: a3 07 a1 00  	sb	a0, 15(sp)
80004a62: 09 a0        	j	2 <core::sync::atomic::strongest_failure_ordering::h585c7e67a552ac96+0x60>
80004a64: 03 05 f1 00  	lb	a0, 15(sp)
80004a68: 41 01        	addi	sp, sp, 16
80004a6a: 82 80        	ret

0000000080004a6c <qor_os::mem::kernel::identity_map_kernel::he9f4747322ea003d>:
80004a6c: 13 01 01 a8  	addi	sp, sp, -1408
80004a70: 23 3c 11 56  	sd	ra, 1400(sp)
80004a74: 0d 45        	addi	a0, zero, 3
80004a76: a3 03 a1 1a  	sb	a0, 423(sp)
80004a7a: 97 c0 ff ff  	auipc	ra, 1048572
80004a7e: e7 80 a0 95  	jalr	-1702(ra)
80004a82: 2a ef        	sd	a0, 408(sp)
80004a84: 09 a0        	j	2 <qor_os::mem::kernel::identity_map_kernel::he9f4747322ea003d+0x1a>
80004a86: 7a 65        	ld	a0, 408(sp)
80004a88: 19 e1        	bnez	a0, 6 <qor_os::mem::kernel::identity_map_kernel::he9f4747322ea003d+0x22>
80004a8a: 09 a0        	j	2 <qor_os::mem::kernel::identity_map_kernel::he9f4747322ea003d+0x20>
80004a8c: 3d a8        	j	62 <.LBB0_97+0x28>
80004a8e: 97 f0 ff ff  	auipc	ra, 1048575
80004a92: e7 80 60 f6  	jalr	-154(ra)
80004a96: 2a f7        	sd	a0, 424(sp)
80004a98: 09 a0        	j	2 <.LBB0_96>

0000000080004a9a <.LBB0_96>:
80004a9a: 97 35 00 00  	auipc	a1, 3
80004a9e: 93 85 65 9f  	addi	a1, a1, -1546

0000000080004aa2 <.LBB0_97>:
80004aa2: 97 36 00 00  	auipc	a3, 3
80004aa6: 93 86 e6 9f  	addi	a3, a3, -1538
80004aaa: 08 1b        	addi	a0, sp, 432
80004aac: 05 46        	addi	a2, zero, 1
80004aae: 01 47        	mv	a4, zero
80004ab0: 97 f0 ff ff  	auipc	ra, 1048575
80004ab4: e7 80 20 0a  	jalr	162(ra)
80004ab8: 09 a0        	j	2 <.LBB0_97+0x18>
80004aba: 28 13        	addi	a0, sp, 424
80004abc: 0c 1b        	addi	a1, sp, 432
80004abe: 97 c0 ff ff  	auipc	ra, 1048572
80004ac2: e7 80 60 bf  	jalr	-1034(ra)
80004ac6: 09 a0        	j	2 <.LBB0_97+0x26>
80004ac8: 09 a0        	j	2 <.LBB0_97+0x28>
80004aca: 0d 45        	addi	a0, zero, 3
80004acc: a3 03 a1 1e  	sb	a0, 487(sp)
80004ad0: 97 c0 ff ff  	auipc	ra, 1048572
80004ad4: e7 80 40 90  	jalr	-1788(ra)
80004ad8: 2a eb        	sd	a0, 400(sp)
80004ada: 09 a0        	j	2 <.LBB0_97+0x3a>
80004adc: 5a 65        	ld	a0, 400(sp)
80004ade: 19 e1        	bnez	a0, 6 <.LBB0_97+0x42>
80004ae0: 09 a0        	j	2 <.LBB0_97+0x40>
80004ae2: 4d a8        	j	178 <.LBB0_100+0x2a>
80004ae4: 97 f0 ff ff  	auipc	ra, 1048575
80004ae8: e7 80 00 f1  	jalr	-240(ra)
80004aec: aa f7        	sd	a0, 488(sp)
80004aee: 09 a0        	j	2 <.LBB0_97+0x4e>
80004af0: 97 d0 ff ff  	auipc	ra, 1048573
80004af4: e7 80 c0 c2  	jalr	-980(ra)
80004af8: 23 38 a1 24  	sd	a0, 592(sp)
80004afc: 09 a0        	j	2 <.LBB0_97+0x5c>
80004afe: 97 d0 ff ff  	auipc	ra, 1048573
80004b02: e7 80 a0 c2  	jalr	-982(ra)
80004b06: 23 3c a1 24  	sd	a0, 600(sp)
80004b0a: 09 a0        	j	2 <.LBB0_97+0x6a>
80004b0c: 88 0c        	addi	a0, sp, 592
80004b0e: 23 30 a1 24  	sd	a0, 576(sp)
80004b12: ac 0c        	addi	a1, sp, 600
80004b14: 23 34 b1 24  	sd	a1, 584(sp)
80004b18: 23 3c a1 50  	sd	a0, 1304(sp)
80004b1c: 23 30 b1 52  	sd	a1, 1312(sp)

0000000080004b20 <.LBB0_98>:
80004b20: 17 16 00 00  	auipc	a2, 1
80004b24: 13 06 06 23  	addi	a2, a2, 560
80004b28: 2e e7        	sd	a1, 392(sp)
80004b2a: b2 85        	add	a1, zero, a2
80004b2c: 97 c0 ff ff  	auipc	ra, 1048572
80004b30: e7 80 80 f1  	jalr	-232(ra)
80004b34: 2a e3        	sd	a0, 384(sp)
80004b36: ae fe        	sd	a1, 376(sp)
80004b38: 09 a0        	j	2 <.LBB0_99>

0000000080004b3a <.LBB0_99>:
80004b3a: 97 15 00 00  	auipc	a1, 1
80004b3e: 93 85 65 21  	addi	a1, a1, 534
80004b42: 3a 65        	ld	a0, 392(sp)
80004b44: 97 c0 ff ff  	auipc	ra, 1048572
80004b48: e7 80 00 f0  	jalr	-256(ra)
80004b4c: aa fa        	sd	a0, 368(sp)
80004b4e: ae f6        	sd	a1, 360(sp)
80004b50: 09 a0        	j	2 <.LBB0_99+0x18>
80004b52: 1a 65        	ld	a0, 384(sp)
80004b54: 23 30 a1 22  	sd	a0, 544(sp)
80004b58: f6 75        	ld	a1, 376(sp)
80004b5a: 23 34 b1 22  	sd	a1, 552(sp)
80004b5e: 56 76        	ld	a2, 368(sp)
80004b60: 23 38 c1 22  	sd	a2, 560(sp)
80004b64: b6 76        	ld	a3, 360(sp)
80004b66: 23 3c d1 22  	sd	a3, 568(sp)

0000000080004b6a <.LBB0_100>:
80004b6a: 97 35 00 00  	auipc	a1, 3
80004b6e: 93 85 65 94  	addi	a1, a1, -1722
80004b72: 88 1b        	addi	a0, sp, 496
80004b74: 0d 46        	addi	a2, zero, 3
80004b76: 14 14        	addi	a3, sp, 544
80004b78: 09 47        	addi	a4, zero, 2
80004b7a: 97 f0 ff ff  	auipc	ra, 1048575
80004b7e: e7 80 80 fd  	jalr	-40(ra)
80004b82: 09 a0        	j	2 <.LBB0_100+0x1a>
80004b84: a8 13        	addi	a0, sp, 488
80004b86: 8c 1b        	addi	a1, sp, 496
80004b88: 97 c0 ff ff  	auipc	ra, 1048572
80004b8c: e7 80 c0 b2  	jalr	-1236(ra)
80004b90: 09 a0        	j	2 <.LBB0_100+0x28>
80004b92: 09 a0        	j	2 <.LBB0_100+0x2a>
80004b94: 0d 45        	addi	a0, zero, 3
80004b96: a3 03 a1 26  	sb	a0, 615(sp)
80004b9a: 97 c0 ff ff  	auipc	ra, 1048572
80004b9e: e7 80 a0 83  	jalr	-1990(ra)
80004ba2: aa f2        	sd	a0, 352(sp)
80004ba4: 09 a0        	j	2 <.LBB0_100+0x3c>
80004ba6: 16 75        	ld	a0, 352(sp)
80004ba8: 19 e1        	bnez	a0, 6 <.LBB0_100+0x44>
80004baa: 09 a0        	j	2 <.LBB0_100+0x42>
80004bac: 55 a8        	j	180 <.LBB0_103+0x2a>
80004bae: 97 f0 ff ff  	auipc	ra, 1048575
80004bb2: e7 80 60 e4  	jalr	-442(ra)
80004bb6: 23 34 a1 26  	sd	a0, 616(sp)
80004bba: 09 a0        	j	2 <.LBB0_100+0x52>
80004bbc: 97 d0 ff ff  	auipc	ra, 1048573
80004bc0: e7 80 80 b7  	jalr	-1160(ra)
80004bc4: 23 38 a1 2c  	sd	a0, 720(sp)
80004bc8: 09 a0        	j	2 <.LBB0_100+0x60>
80004bca: 97 d0 ff ff  	auipc	ra, 1048573
80004bce: e7 80 60 b7  	jalr	-1162(ra)
80004bd2: 23 3c a1 2c  	sd	a0, 728(sp)
80004bd6: 09 a0        	j	2 <.LBB0_100+0x6e>
80004bd8: 88 0d        	addi	a0, sp, 720
80004bda: 23 30 a1 2c  	sd	a0, 704(sp)
80004bde: ac 0d        	addi	a1, sp, 728
80004be0: 23 34 b1 2c  	sd	a1, 712(sp)
80004be4: 23 34 a1 52  	sd	a0, 1320(sp)
80004be8: 23 38 b1 52  	sd	a1, 1328(sp)

0000000080004bec <.LBB0_101>:
80004bec: 17 16 00 00  	auipc	a2, 1
80004bf0: 13 06 46 16  	addi	a2, a2, 356
80004bf4: ae ee        	sd	a1, 344(sp)
80004bf6: b2 85        	add	a1, zero, a2
80004bf8: 97 c0 ff ff  	auipc	ra, 1048572
80004bfc: e7 80 c0 e4  	jalr	-436(ra)
80004c00: aa ea        	sd	a0, 336(sp)
80004c02: ae e6        	sd	a1, 328(sp)
80004c04: 09 a0        	j	2 <.LBB0_102>

0000000080004c06 <.LBB0_102>:
80004c06: 97 15 00 00  	auipc	a1, 1
80004c0a: 93 85 a5 14  	addi	a1, a1, 330
80004c0e: 76 65        	ld	a0, 344(sp)
80004c10: 97 c0 ff ff  	auipc	ra, 1048572
80004c14: e7 80 40 e3  	jalr	-460(ra)
80004c18: aa e2        	sd	a0, 320(sp)
80004c1a: 2e fe        	sd	a1, 312(sp)
80004c1c: 09 a0        	j	2 <.LBB0_102+0x18>
80004c1e: 56 65        	ld	a0, 336(sp)
80004c20: 23 30 a1 2a  	sd	a0, 672(sp)
80004c24: b6 65        	ld	a1, 328(sp)
80004c26: 23 34 b1 2a  	sd	a1, 680(sp)
80004c2a: 16 66        	ld	a2, 320(sp)
80004c2c: 23 38 c1 2a  	sd	a2, 688(sp)
80004c30: f2 76        	ld	a3, 312(sp)
80004c32: 23 3c d1 2a  	sd	a3, 696(sp)

0000000080004c36 <.LBB0_103>:
80004c36: 97 35 00 00  	auipc	a1, 3
80004c3a: 93 85 a5 8a  	addi	a1, a1, -1878
80004c3e: 88 1c        	addi	a0, sp, 624
80004c40: 0d 46        	addi	a2, zero, 3
80004c42: 14 15        	addi	a3, sp, 672
80004c44: 09 47        	addi	a4, zero, 2
80004c46: 97 f0 ff ff  	auipc	ra, 1048575
80004c4a: e7 80 c0 f0  	jalr	-244(ra)
80004c4e: 09 a0        	j	2 <.LBB0_103+0x1a>
80004c50: a8 14        	addi	a0, sp, 616
80004c52: 8c 1c        	addi	a1, sp, 624
80004c54: 97 c0 ff ff  	auipc	ra, 1048572
80004c58: e7 80 00 a6  	jalr	-1440(ra)
80004c5c: 09 a0        	j	2 <.LBB0_103+0x28>
80004c5e: 09 a0        	j	2 <.LBB0_103+0x2a>
80004c60: 0d 45        	addi	a0, zero, 3
80004c62: a3 03 a1 2e  	sb	a0, 743(sp)
80004c66: 97 b0 ff ff  	auipc	ra, 1048571
80004c6a: e7 80 e0 76  	jalr	1902(ra)
80004c6e: 2a fa        	sd	a0, 304(sp)
80004c70: 09 a0        	j	2 <.LBB0_103+0x3c>
80004c72: 52 75        	ld	a0, 304(sp)
80004c74: 19 e1        	bnez	a0, 6 <.LBB0_103+0x44>
80004c76: 09 a0        	j	2 <.LBB0_103+0x42>
80004c78: 55 a8        	j	180 <.LBB0_106+0x2a>
80004c7a: 97 f0 ff ff  	auipc	ra, 1048575
80004c7e: e7 80 a0 d7  	jalr	-646(ra)
80004c82: 23 34 a1 2e  	sd	a0, 744(sp)
80004c86: 09 a0        	j	2 <.LBB0_103+0x52>
80004c88: 97 d0 ff ff  	auipc	ra, 1048573
80004c8c: e7 80 40 ac  	jalr	-1340(ra)
80004c90: 23 38 a1 34  	sd	a0, 848(sp)
80004c94: 09 a0        	j	2 <.LBB0_103+0x60>
80004c96: 97 d0 ff ff  	auipc	ra, 1048573
80004c9a: e7 80 20 ac  	jalr	-1342(ra)
80004c9e: 23 3c a1 34  	sd	a0, 856(sp)
80004ca2: 09 a0        	j	2 <.LBB0_103+0x6e>
80004ca4: 88 0e        	addi	a0, sp, 848
80004ca6: 23 30 a1 34  	sd	a0, 832(sp)
80004caa: ac 0e        	addi	a1, sp, 856
80004cac: 23 34 b1 34  	sd	a1, 840(sp)
80004cb0: 23 3c a1 52  	sd	a0, 1336(sp)
80004cb4: 23 30 b1 54  	sd	a1, 1344(sp)

0000000080004cb8 <.LBB0_104>:
80004cb8: 17 16 00 00  	auipc	a2, 1
80004cbc: 13 06 86 09  	addi	a2, a2, 152
80004cc0: 2e f6        	sd	a1, 296(sp)
80004cc2: b2 85        	add	a1, zero, a2
80004cc4: 97 c0 ff ff  	auipc	ra, 1048572
80004cc8: e7 80 00 d8  	jalr	-640(ra)
80004ccc: 2a f2        	sd	a0, 288(sp)
80004cce: 2e ee        	sd	a1, 280(sp)
80004cd0: 09 a0        	j	2 <.LBB0_105>

0000000080004cd2 <.LBB0_105>:
80004cd2: 97 15 00 00  	auipc	a1, 1
80004cd6: 93 85 e5 07  	addi	a1, a1, 126
80004cda: 32 75        	ld	a0, 296(sp)
80004cdc: 97 c0 ff ff  	auipc	ra, 1048572
80004ce0: e7 80 80 d6  	jalr	-664(ra)
80004ce4: 2a ea        	sd	a0, 272(sp)
80004ce6: 2e e6        	sd	a1, 264(sp)
80004ce8: 09 a0        	j	2 <.LBB0_105+0x18>
80004cea: 12 75        	ld	a0, 288(sp)
80004cec: 23 30 a1 32  	sd	a0, 800(sp)
80004cf0: f2 65        	ld	a1, 280(sp)
80004cf2: 23 34 b1 32  	sd	a1, 808(sp)
80004cf6: 52 66        	ld	a2, 272(sp)
80004cf8: 23 38 c1 32  	sd	a2, 816(sp)
80004cfc: b2 66        	ld	a3, 264(sp)
80004cfe: 23 3c d1 32  	sd	a3, 824(sp)

0000000080004d02 <.LBB0_106>:
80004d02: 97 35 00 00  	auipc	a1, 3
80004d06: 93 85 e5 80  	addi	a1, a1, -2034
80004d0a: 88 1d        	addi	a0, sp, 752
80004d0c: 0d 46        	addi	a2, zero, 3
80004d0e: 14 16        	addi	a3, sp, 800
80004d10: 09 47        	addi	a4, zero, 2
80004d12: 97 f0 ff ff  	auipc	ra, 1048575
80004d16: e7 80 00 e4  	jalr	-448(ra)
80004d1a: 09 a0        	j	2 <.LBB0_106+0x1a>
80004d1c: a8 15        	addi	a0, sp, 744
80004d1e: 8c 1d        	addi	a1, sp, 752
80004d20: 97 c0 ff ff  	auipc	ra, 1048572
80004d24: e7 80 40 99  	jalr	-1644(ra)
80004d28: 09 a0        	j	2 <.LBB0_106+0x28>
80004d2a: 09 a0        	j	2 <.LBB0_106+0x2a>
80004d2c: 0d 45        	addi	a0, zero, 3
80004d2e: a3 03 a1 36  	sb	a0, 871(sp)
80004d32: 97 b0 ff ff  	auipc	ra, 1048571
80004d36: e7 80 20 6a  	jalr	1698(ra)
80004d3a: 2a e2        	sd	a0, 256(sp)
80004d3c: 09 a0        	j	2 <.LBB0_106+0x3c>
80004d3e: 12 65        	ld	a0, 256(sp)
80004d40: 19 e1        	bnez	a0, 6 <.LBB0_106+0x44>
80004d42: 09 a0        	j	2 <.LBB0_106+0x42>
80004d44: 55 a8        	j	180 <.LBB0_109+0x2a>
80004d46: 97 f0 ff ff  	auipc	ra, 1048575
80004d4a: e7 80 e0 ca  	jalr	-850(ra)
80004d4e: 23 34 a1 36  	sd	a0, 872(sp)
80004d52: 09 a0        	j	2 <.LBB0_106+0x52>
80004d54: 97 d0 ff ff  	auipc	ra, 1048573
80004d58: e7 80 00 a1  	jalr	-1520(ra)
80004d5c: 23 38 a1 3c  	sd	a0, 976(sp)
80004d60: 09 a0        	j	2 <.LBB0_106+0x60>
80004d62: 97 d0 ff ff  	auipc	ra, 1048573
80004d66: e7 80 e0 a0  	jalr	-1522(ra)
80004d6a: 23 3c a1 3c  	sd	a0, 984(sp)
80004d6e: 09 a0        	j	2 <.LBB0_106+0x6e>
80004d70: 88 0f        	addi	a0, sp, 976
80004d72: 23 30 a1 3c  	sd	a0, 960(sp)
80004d76: ac 0f        	addi	a1, sp, 984
80004d78: 23 34 b1 3c  	sd	a1, 968(sp)
80004d7c: 23 34 a1 54  	sd	a0, 1352(sp)
80004d80: 23 38 b1 54  	sd	a1, 1360(sp)

0000000080004d84 <.LBB0_107>:
80004d84: 17 16 00 00  	auipc	a2, 1
80004d88: 13 06 c6 fc  	addi	a2, a2, -52
80004d8c: ae fd        	sd	a1, 248(sp)
80004d8e: b2 85        	add	a1, zero, a2
80004d90: 97 c0 ff ff  	auipc	ra, 1048572
80004d94: e7 80 40 cb  	jalr	-844(ra)
80004d98: aa f9        	sd	a0, 240(sp)
80004d9a: ae f5        	sd	a1, 232(sp)
80004d9c: 09 a0        	j	2 <.LBB0_108>

0000000080004d9e <.LBB0_108>:
80004d9e: 97 15 00 00  	auipc	a1, 1
80004da2: 93 85 25 fb  	addi	a1, a1, -78
80004da6: 6e 75        	ld	a0, 248(sp)
80004da8: 97 c0 ff ff  	auipc	ra, 1048572
80004dac: e7 80 c0 c9  	jalr	-868(ra)
80004db0: aa f1        	sd	a0, 224(sp)
80004db2: ae ed        	sd	a1, 216(sp)
80004db4: 09 a0        	j	2 <.LBB0_108+0x18>
80004db6: 4e 75        	ld	a0, 240(sp)
80004db8: 23 30 a1 3a  	sd	a0, 928(sp)
80004dbc: ae 75        	ld	a1, 232(sp)
80004dbe: 23 34 b1 3a  	sd	a1, 936(sp)
80004dc2: 0e 76        	ld	a2, 224(sp)
80004dc4: 23 38 c1 3a  	sd	a2, 944(sp)
80004dc8: ee 66        	ld	a3, 216(sp)
80004dca: 23 3c d1 3a  	sd	a3, 952(sp)

0000000080004dce <.LBB0_109>:
80004dce: 97 25 00 00  	auipc	a1, 2
80004dd2: 93 85 25 77  	addi	a1, a1, 1906
80004dd6: 88 1e        	addi	a0, sp, 880
80004dd8: 0d 46        	addi	a2, zero, 3
80004dda: 14 17        	addi	a3, sp, 928
80004ddc: 09 47        	addi	a4, zero, 2
80004dde: 97 f0 ff ff  	auipc	ra, 1048575
80004de2: e7 80 40 d7  	jalr	-652(ra)
80004de6: 09 a0        	j	2 <.LBB0_109+0x1a>
80004de8: a8 16        	addi	a0, sp, 872
80004dea: 8c 1e        	addi	a1, sp, 880
80004dec: 97 c0 ff ff  	auipc	ra, 1048572
80004df0: e7 80 80 8c  	jalr	-1848(ra)
80004df4: 09 a0        	j	2 <.LBB0_109+0x28>
80004df6: 09 a0        	j	2 <.LBB0_109+0x2a>
80004df8: 0d 45        	addi	a0, zero, 3
80004dfa: a3 03 a1 3e  	sb	a0, 999(sp)
80004dfe: 97 b0 ff ff  	auipc	ra, 1048571
80004e02: e7 80 60 5d  	jalr	1494(ra)
80004e06: aa e9        	sd	a0, 208(sp)
80004e08: 09 a0        	j	2 <.LBB0_109+0x3c>
80004e0a: 4e 65        	ld	a0, 208(sp)
80004e0c: 19 e1        	bnez	a0, 6 <.LBB0_109+0x44>
80004e0e: 09 a0        	j	2 <.LBB0_109+0x42>
80004e10: 6d a8        	j	186 <.LBB0_112+0x2c>
80004e12: 97 f0 ff ff  	auipc	ra, 1048575
80004e16: e7 80 20 be  	jalr	-1054(ra)
80004e1a: 23 34 a1 3e  	sd	a0, 1000(sp)
80004e1e: 09 a0        	j	2 <.LBB0_109+0x52>
80004e20: 97 d0 ff ff  	auipc	ra, 1048573
80004e24: e7 80 c0 95  	jalr	-1700(ra)
80004e28: 23 38 a1 44  	sd	a0, 1104(sp)
80004e2c: 09 a0        	j	2 <.LBB0_109+0x60>
80004e2e: 97 d0 ff ff  	auipc	ra, 1048573
80004e32: e7 80 a0 95  	jalr	-1702(ra)
80004e36: 23 3c a1 44  	sd	a0, 1112(sp)
80004e3a: 09 a0        	j	2 <.LBB0_109+0x6e>
80004e3c: 13 05 01 45  	addi	a0, sp, 1104
80004e40: 23 30 a1 44  	sd	a0, 1088(sp)
80004e44: 93 05 81 45  	addi	a1, sp, 1112
80004e48: 23 34 b1 44  	sd	a1, 1096(sp)
80004e4c: 23 3c a1 54  	sd	a0, 1368(sp)
80004e50: 23 30 b1 56  	sd	a1, 1376(sp)

0000000080004e54 <.LBB0_110>:
80004e54: 17 16 00 00  	auipc	a2, 1
80004e58: 13 06 c6 ef  	addi	a2, a2, -260
80004e5c: ae e5        	sd	a1, 200(sp)
80004e5e: b2 85        	add	a1, zero, a2
80004e60: 97 c0 ff ff  	auipc	ra, 1048572
80004e64: e7 80 40 be  	jalr	-1052(ra)
80004e68: aa e1        	sd	a0, 192(sp)
80004e6a: 2e fd        	sd	a1, 184(sp)
80004e6c: 09 a0        	j	2 <.LBB0_111>

0000000080004e6e <.LBB0_111>:
80004e6e: 97 15 00 00  	auipc	a1, 1
80004e72: 93 85 25 ee  	addi	a1, a1, -286
80004e76: 2e 65        	ld	a0, 200(sp)
80004e78: 97 c0 ff ff  	auipc	ra, 1048572
80004e7c: e7 80 c0 bc  	jalr	-1076(ra)
80004e80: 2a f9        	sd	a0, 176(sp)
80004e82: 2e f5        	sd	a1, 168(sp)
80004e84: 09 a0        	j	2 <.LBB0_111+0x18>
80004e86: 0e 65        	ld	a0, 192(sp)
80004e88: 23 30 a1 42  	sd	a0, 1056(sp)
80004e8c: ea 75        	ld	a1, 184(sp)
80004e8e: 23 34 b1 42  	sd	a1, 1064(sp)
80004e92: 4a 76        	ld	a2, 176(sp)
80004e94: 23 38 c1 42  	sd	a2, 1072(sp)
80004e98: aa 76        	ld	a3, 168(sp)
80004e9a: 23 3c d1 42  	sd	a3, 1080(sp)

0000000080004e9e <.LBB0_112>:
80004e9e: 97 25 00 00  	auipc	a1, 2
80004ea2: 93 85 25 6d  	addi	a1, a1, 1746
80004ea6: 88 1f        	addi	a0, sp, 1008
80004ea8: 0d 46        	addi	a2, zero, 3
80004eaa: 93 06 01 42  	addi	a3, sp, 1056
80004eae: 09 47        	addi	a4, zero, 2
80004eb0: 97 f0 ff ff  	auipc	ra, 1048575
80004eb4: e7 80 20 ca  	jalr	-862(ra)
80004eb8: 09 a0        	j	2 <.LBB0_112+0x1c>
80004eba: a8 17        	addi	a0, sp, 1000
80004ebc: 8c 1f        	addi	a1, sp, 1008
80004ebe: 97 b0 ff ff  	auipc	ra, 1048571
80004ec2: e7 80 60 7f  	jalr	2038(ra)
80004ec6: 09 a0        	j	2 <.LBB0_112+0x2a>
80004ec8: 09 a0        	j	2 <.LBB0_112+0x2c>
80004eca: 0d 45        	addi	a0, zero, 3
80004ecc: a3 03 a1 46  	sb	a0, 1127(sp)
80004ed0: 97 b0 ff ff  	auipc	ra, 1048571
80004ed4: e7 80 40 50  	jalr	1284(ra)
80004ed8: 2a f1        	sd	a0, 160(sp)
80004eda: 09 a0        	j	2 <.LBB0_112+0x3e>
80004edc: 0a 75        	ld	a0, 160(sp)
80004ede: 19 e1        	bnez	a0, 6 <.LBB0_112+0x46>
80004ee0: 09 a0        	j	2 <.LBB0_112+0x44>
80004ee2: c1 a0        	j	192 <.LBB0_115+0x32>
80004ee4: 97 f0 ff ff  	auipc	ra, 1048575
80004ee8: e7 80 00 b1  	jalr	-1264(ra)
80004eec: 23 34 a1 46  	sd	a0, 1128(sp)
80004ef0: 09 a0        	j	2 <.LBB0_112+0x54>
80004ef2: 97 d0 ff ff  	auipc	ra, 1048573
80004ef6: e7 80 20 8a  	jalr	-1886(ra)
80004efa: 23 38 a1 4c  	sd	a0, 1232(sp)
80004efe: 09 a0        	j	2 <.LBB0_112+0x62>
80004f00: 97 d0 ff ff  	auipc	ra, 1048573
80004f04: e7 80 00 8a  	jalr	-1888(ra)
80004f08: 23 3c a1 4c  	sd	a0, 1240(sp)
80004f0c: 09 a0        	j	2 <.LBB0_112+0x70>
80004f0e: 13 05 01 4d  	addi	a0, sp, 1232
80004f12: 23 30 a1 4c  	sd	a0, 1216(sp)
80004f16: 93 05 81 4d  	addi	a1, sp, 1240
80004f1a: 23 34 b1 4c  	sd	a1, 1224(sp)
80004f1e: 23 34 a1 56  	sd	a0, 1384(sp)
80004f22: 23 38 b1 56  	sd	a1, 1392(sp)

0000000080004f26 <.LBB0_113>:
80004f26: 17 16 00 00  	auipc	a2, 1
80004f2a: 13 06 a6 e2  	addi	a2, a2, -470
80004f2e: 2e ed        	sd	a1, 152(sp)
80004f30: b2 85        	add	a1, zero, a2
80004f32: 97 c0 ff ff  	auipc	ra, 1048572
80004f36: e7 80 20 b1  	jalr	-1262(ra)
80004f3a: 2a e9        	sd	a0, 144(sp)
80004f3c: 2e e5        	sd	a1, 136(sp)
80004f3e: 09 a0        	j	2 <.LBB0_114>

0000000080004f40 <.LBB0_114>:
80004f40: 97 15 00 00  	auipc	a1, 1
80004f44: 93 85 05 e1  	addi	a1, a1, -496
80004f48: 6a 65        	ld	a0, 152(sp)
80004f4a: 97 c0 ff ff  	auipc	ra, 1048572
80004f4e: e7 80 a0 af  	jalr	-1286(ra)
80004f52: 2a e1        	sd	a0, 128(sp)
80004f54: ae fc        	sd	a1, 120(sp)
80004f56: 09 a0        	j	2 <.LBB0_114+0x18>
80004f58: 4a 65        	ld	a0, 144(sp)
80004f5a: 23 30 a1 4a  	sd	a0, 1184(sp)
80004f5e: aa 65        	ld	a1, 136(sp)
80004f60: 23 34 b1 4a  	sd	a1, 1192(sp)
80004f64: 0a 66        	ld	a2, 128(sp)
80004f66: 23 38 c1 4a  	sd	a2, 1200(sp)
80004f6a: e6 76        	ld	a3, 120(sp)
80004f6c: 23 3c d1 4a  	sd	a3, 1208(sp)

0000000080004f70 <.LBB0_115>:
80004f70: 97 25 00 00  	auipc	a1, 2
80004f74: 93 85 05 63  	addi	a1, a1, 1584
80004f78: 13 05 01 47  	addi	a0, sp, 1136
80004f7c: 0d 46        	addi	a2, zero, 3
80004f7e: 93 06 01 4a  	addi	a3, sp, 1184
80004f82: 09 47        	addi	a4, zero, 2
80004f84: 97 f0 ff ff  	auipc	ra, 1048575
80004f88: e7 80 e0 bc  	jalr	-1074(ra)
80004f8c: 09 a0        	j	2 <.LBB0_115+0x1e>
80004f8e: 13 05 81 46  	addi	a0, sp, 1128
80004f92: 93 05 01 47  	addi	a1, sp, 1136
80004f96: 97 b0 ff ff  	auipc	ra, 1048571
80004f9a: e7 80 e0 71  	jalr	1822(ra)
80004f9e: 09 a0        	j	2 <.LBB0_115+0x30>
80004fa0: 09 a0        	j	2 <.LBB0_115+0x32>
80004fa2: 97 c0 ff ff  	auipc	ra, 1048572
80004fa6: e7 80 a0 77  	jalr	1914(ra)
80004faa: aa f8        	sd	a0, 112(sp)
80004fac: 09 a0        	j	2 <.LBB0_115+0x3e>
80004fae: 97 c0 ff ff  	auipc	ra, 1048572
80004fb2: e7 80 a0 77  	jalr	1914(ra)
80004fb6: aa f4        	sd	a0, 104(sp)
80004fb8: 09 a0        	j	2 <.LBB0_115+0x4a>
80004fba: 13 06 a0 04  	addi	a2, zero, 74
80004fbe: 46 75        	ld	a0, 112(sp)
80004fc0: a6 75        	ld	a1, 104(sp)
80004fc2: 97 f0 ff ff  	auipc	ra, 1048575
80004fc6: e7 80 00 7a  	jalr	1952(ra)
80004fca: 09 a0        	j	2 <.LBB0_115+0x5c>
80004fcc: 97 c0 ff ff  	auipc	ra, 1048572
80004fd0: e7 80 80 76  	jalr	1896(ra)
80004fd4: aa f0        	sd	a0, 96(sp)
80004fd6: 09 a0        	j	2 <.LBB0_115+0x68>
80004fd8: 97 c0 ff ff  	auipc	ra, 1048572
80004fdc: e7 80 80 76  	jalr	1896(ra)
80004fe0: aa ec        	sd	a0, 88(sp)
80004fe2: 09 a0        	j	2 <.LBB0_115+0x74>
80004fe4: 13 06 a0 04  	addi	a2, zero, 74
80004fe8: 06 75        	ld	a0, 96(sp)
80004fea: e6 65        	ld	a1, 88(sp)
80004fec: 97 f0 ff ff  	auipc	ra, 1048575
80004ff0: e7 80 60 77  	jalr	1910(ra)
80004ff4: 09 a0        	j	2 <.LBB0_115+0x86>
80004ff6: 97 c0 ff ff  	auipc	ra, 1048572
80004ffa: e7 80 60 75  	jalr	1878(ra)
80004ffe: aa e8        	sd	a0, 80(sp)
80005000: 09 a0        	j	2 <.LBB0_115+0x92>
80005002: 97 c0 ff ff  	auipc	ra, 1048572
80005006: e7 80 60 75  	jalr	1878(ra)
8000500a: aa e4        	sd	a0, 72(sp)
8000500c: 09 a0        	j	2 <.LBB0_115+0x9e>
8000500e: 13 06 60 0c  	addi	a2, zero, 198
80005012: 46 65        	ld	a0, 80(sp)
80005014: a6 65        	ld	a1, 72(sp)
80005016: 97 f0 ff ff  	auipc	ra, 1048575
8000501a: e7 80 c0 74  	jalr	1868(ra)
8000501e: 09 a0        	j	2 <.LBB0_115+0xb0>
80005020: 97 c0 ff ff  	auipc	ra, 1048572
80005024: e7 80 40 74  	jalr	1860(ra)
80005028: aa e0        	sd	a0, 64(sp)
8000502a: 09 a0        	j	2 <.LBB0_115+0xbc>
8000502c: 97 c0 ff ff  	auipc	ra, 1048572
80005030: e7 80 40 74  	jalr	1860(ra)
80005034: 2a fc        	sd	a0, 56(sp)
80005036: 09 a0        	j	2 <.LBB0_115+0xc8>
80005038: 13 06 60 0c  	addi	a2, zero, 198
8000503c: 06 65        	ld	a0, 64(sp)
8000503e: e2 75        	ld	a1, 56(sp)
80005040: 97 f0 ff ff  	auipc	ra, 1048575
80005044: e7 80 20 72  	jalr	1826(ra)
80005048: 09 a0        	j	2 <.LBB0_115+0xda>
8000504a: 97 c0 ff ff  	auipc	ra, 1048572
8000504e: e7 80 20 73  	jalr	1842(ra)
80005052: 2a f8        	sd	a0, 48(sp)
80005054: 09 a0        	j	2 <.LBB0_115+0xe6>
80005056: 97 c0 ff ff  	auipc	ra, 1048572
8000505a: e7 80 20 73  	jalr	1842(ra)
8000505e: 2a f4        	sd	a0, 40(sp)
80005060: 09 a0        	j	2 <.LBB0_115+0xf2>
80005062: 13 06 60 0c  	addi	a2, zero, 198
80005066: 42 75        	ld	a0, 48(sp)
80005068: a2 75        	ld	a1, 40(sp)
8000506a: 97 f0 ff ff  	auipc	ra, 1048575
8000506e: e7 80 80 6f  	jalr	1784(ra)
80005072: 09 a0        	j	2 <.LBB0_115+0x104>
80005074: 97 c0 ff ff  	auipc	ra, 1048572
80005078: e7 80 00 72  	jalr	1824(ra)
8000507c: 2a f0        	sd	a0, 32(sp)
8000507e: 09 a0        	j	2 <.LBB0_115+0x110>
80005080: 97 c0 ff ff  	auipc	ra, 1048572
80005084: e7 80 00 72  	jalr	1824(ra)
80005088: 2a ec        	sd	a0, 24(sp)
8000508a: 09 a0        	j	2 <.LBB0_115+0x11c>
8000508c: 13 06 60 0c  	addi	a2, zero, 198
80005090: 02 75        	ld	a0, 32(sp)
80005092: e2 65        	ld	a1, 24(sp)
80005094: 97 f0 ff ff  	auipc	ra, 1048575
80005098: e7 80 e0 6c  	jalr	1742(ra)
8000509c: 09 a0        	j	2 <.LBB0_115+0x12e>
8000509e: 37 05 00 10  	lui	a0, 65536
800050a2: 13 06 60 0c  	addi	a2, zero, 198
800050a6: 2a e8        	sd	a0, 16(sp)
800050a8: c2 65        	ld	a1, 16(sp)
800050aa: 97 f0 ff ff  	auipc	ra, 1048575
800050ae: e7 80 80 6b  	jalr	1720(ra)
800050b2: 09 a0        	j	2 <.LBB0_115+0x144>
800050b4: 97 f0 ff ff  	auipc	ra, 1048575
800050b8: e7 80 00 94  	jalr	-1728(ra)
800050bc: 23 30 a1 4e  	sd	a0, 1248(sp)
800050c0: 09 a0        	j	2 <.LBB0_116>

00000000800050c2 <.LBB0_116>:
800050c2: 97 25 00 00  	auipc	a1, 2
800050c6: 93 85 e5 51  	addi	a1, a1, 1310

00000000800050ca <.LBB0_117>:
800050ca: 97 26 00 00  	auipc	a3, 2
800050ce: 93 86 66 3d  	addi	a3, a3, 982
800050d2: 13 05 81 4e  	addi	a0, sp, 1256
800050d6: 05 46        	addi	a2, zero, 1
800050d8: 01 47        	mv	a4, zero
800050da: 97 f0 ff ff  	auipc	ra, 1048575
800050de: e7 80 80 a7  	jalr	-1416(ra)
800050e2: 09 a0        	j	2 <.LBB0_117+0x1a>
800050e4: 13 05 01 4e  	addi	a0, sp, 1248
800050e8: 93 05 81 4e  	addi	a1, sp, 1256
800050ec: 97 b0 ff ff  	auipc	ra, 1048571
800050f0: e7 80 80 5c  	jalr	1480(ra)
800050f4: 09 a0        	j	2 <.LBB0_117+0x2c>
800050f6: 83 30 81 57  	ld	ra, 1400(sp)
800050fa: 13 01 01 58  	addi	sp, sp, 1408
800050fe: 82 80        	ret

0000000080005100 <qor_os::mem::kernel::init_mmu::hf399511ddaaddcd6>:
80005100: 35 71        	addi	sp, sp, -160
80005102: 06 ed        	sd	ra, 152(sp)
80005104: 97 f0 ff ff  	auipc	ra, 1048575
80005108: e7 80 00 8f  	jalr	-1808(ra)
8000510c: 2a f4        	sd	a0, 40(sp)
8000510e: 09 a0        	j	2 <qor_os::mem::kernel::init_mmu::hf399511ddaaddcd6+0x10>
80005110: 97 f0 ff ff  	auipc	ra, 1048575
80005114: e7 80 40 a6  	jalr	-1436(ra)
80005118: 2a f0        	sd	a0, 32(sp)
8000511a: 09 a0        	j	2 <qor_os::mem::kernel::init_mmu::hf399511ddaaddcd6+0x1c>
8000511c: 02 75        	ld	a0, 32(sp)
8000511e: aa fc        	sd	a0, 120(sp)
80005120: ac 18        	addi	a1, sp, 120
80005122: ae f8        	sd	a1, 112(sp)
80005124: 2e e1        	sd	a1, 128(sp)

0000000080005126 <.LBB1_8>:
80005126: 17 16 00 00  	auipc	a2, 1
8000512a: 13 06 a6 c2  	addi	a2, a2, -982
8000512e: 2e 85        	add	a0, zero, a1
80005130: b2 85        	add	a1, zero, a2
80005132: 97 c0 ff ff  	auipc	ra, 1048572
80005136: e7 80 20 91  	jalr	-1774(ra)
8000513a: 2a ec        	sd	a0, 24(sp)
8000513c: 2e e8        	sd	a1, 16(sp)
8000513e: 09 a0        	j	2 <.LBB1_8+0x1a>
80005140: 62 65        	ld	a0, 24(sp)
80005142: aa f0        	sd	a0, 96(sp)
80005144: c2 65        	ld	a1, 16(sp)
80005146: ae f4        	sd	a1, 104(sp)

0000000080005148 <.LBB1_9>:
80005148: 97 25 00 00  	auipc	a1, 2
8000514c: 93 85 05 4b  	addi	a1, a1, 1200
80005150: 08 18        	addi	a0, sp, 48
80005152: 09 46        	addi	a2, zero, 2
80005154: 94 10        	addi	a3, sp, 96
80005156: 05 47        	addi	a4, zero, 1
80005158: 97 f0 ff ff  	auipc	ra, 1048575
8000515c: e7 80 a0 9f  	jalr	-1542(ra)
80005160: 09 a0        	j	2 <.LBB1_9+0x1a>
80005162: 28 10        	addi	a0, sp, 40
80005164: 0c 18        	addi	a1, sp, 48
80005166: 97 b0 ff ff  	auipc	ra, 1048571
8000516a: e7 80 e0 54  	jalr	1358(ra)
8000516e: 09 a0        	j	2 <.LBB1_9+0x28>
80005170: 97 f0 ff ff  	auipc	ra, 1048575
80005174: e7 80 40 a0  	jalr	-1532(ra)
80005178: 2a e4        	sd	a0, 8(sp)
8000517a: 09 a0        	j	2 <.LBB1_9+0x34>
8000517c: 22 65        	ld	a0, 8(sp)
8000517e: 93 55 c5 00  	srli	a1, a0, 12
80005182: 2e e0        	sd	a1, 0(sp)
80005184: 09 a0        	j	2 <.LBB1_9+0x3e>
80005186: 02 65        	ld	a0, 0(sp)
80005188: 2a e5        	sd	a0, 136(sp)
8000518a: fd 55        	addi	a1, zero, -1
8000518c: fe 15        	slli	a1, a1, 63
8000518e: c9 8d        	or	a1, a1, a0
80005190: 2e e9        	sd	a1, 144(sp)
80005192: 2e 85        	add	a0, zero, a1
80005194: ea 60        	ld	ra, 152(sp)
80005196: 0d 61        	addi	sp, sp, 160
80005198: 82 80        	ret

000000008000519a <qor_os::mmio::mmio_write_byte::h40d4e8450bcb4223>:
8000519a: 79 71        	addi	sp, sp, -48
8000519c: 06 f4        	sd	ra, 40(sp)
8000519e: b2 86        	add	a3, zero, a2
800051a0: 2a e8        	sd	a0, 16(sp)
800051a2: 2e ec        	sd	a1, 24(sp)
800051a4: a3 03 c1 02  	sb	a2, 39(sp)
800051a8: 36 e4        	sd	a3, 8(sp)
800051aa: 97 c0 ff ff  	auipc	ra, 1048572
800051ae: e7 80 e0 98  	jalr	-1650(ra)
800051b2: 2a e0        	sd	a0, 0(sp)
800051b4: 09 a0        	j	2 <qor_os::mmio::mmio_write_byte::h40d4e8450bcb4223+0x1c>
800051b6: 02 65        	ld	a0, 0(sp)
800051b8: a2 65        	ld	a1, 8(sp)
800051ba: 97 c0 ff ff  	auipc	ra, 1048572
800051be: e7 80 00 93  	jalr	-1744(ra)
800051c2: 09 a0        	j	2 <qor_os::mmio::mmio_write_byte::h40d4e8450bcb4223+0x2a>
800051c4: a2 70        	ld	ra, 40(sp)
800051c6: 45 61        	addi	sp, sp, 48
800051c8: 82 80        	ret

00000000800051ca <core::sync::atomic::AtomicUsize::store::hf57c6ee8ac715b37>:
800051ca: 39 71        	addi	sp, sp, -64
800051cc: 06 fc        	sd	ra, 56(sp)
800051ce: b2 86        	add	a3, zero, a2
800051d0: 2a f0        	sd	a0, 32(sp)
800051d2: 2e f4        	sd	a1, 40(sp)
800051d4: a3 0b c1 02  	sb	a2, 55(sp)
800051d8: 2e ec        	sd	a1, 24(sp)
800051da: 36 e8        	sd	a3, 16(sp)
800051dc: 97 00 00 00  	auipc	ra, 0
800051e0: e7 80 80 0c  	jalr	200(ra)
800051e4: 2a e4        	sd	a0, 8(sp)
800051e6: 09 a0        	j	2 <core::sync::atomic::AtomicUsize::store::hf57c6ee8ac715b37+0x1e>
800051e8: 22 65        	ld	a0, 8(sp)
800051ea: e2 65        	ld	a1, 24(sp)
800051ec: 42 66        	ld	a2, 16(sp)
800051ee: 97 00 00 00  	auipc	ra, 0
800051f2: e7 80 00 01  	jalr	16(ra)
800051f6: 09 a0        	j	2 <core::sync::atomic::AtomicUsize::store::hf57c6ee8ac715b37+0x2e>
800051f8: e2 70        	ld	ra, 56(sp)
800051fa: 21 61        	addi	sp, sp, 64
800051fc: 82 80        	ret

00000000800051fe <core::sync::atomic::atomic_store::h1f08dd607676c909>:
800051fe: 39 71        	addi	sp, sp, -64
80005200: b2 86        	add	a3, zero, a2
80005202: a3 03 c1 02  	sb	a2, 39(sp)
80005206: 2a f8        	sd	a0, 48(sp)
80005208: 2e fc        	sd	a1, 56(sp)
8000520a: 13 76 f6 0f  	andi	a2, a2, 255
8000520e: 01 47        	mv	a4, zero
80005210: 2e ec        	sd	a1, 24(sp)
80005212: 2a e8        	sd	a0, 16(sp)
80005214: 32 e4        	sd	a2, 8(sp)
80005216: 63 0a e6 04  	beq	a2, a4, 84 <.LBB1_16+0x26>
8000521a: 09 a0        	j	2 <core::sync::atomic::atomic_store::h1f08dd607676c909+0x1e>
8000521c: 05 45        	addi	a0, zero, 1
8000521e: a2 65        	ld	a1, 8(sp)
80005220: 63 8e a5 02  	beq	a1, a0, 60 <.LBB1_16+0x18>
80005224: 09 a0        	j	2 <core::sync::atomic::atomic_store::h1f08dd607676c909+0x28>
80005226: 09 45        	addi	a0, zero, 2
80005228: a2 65        	ld	a1, 8(sp)
8000522a: 63 8c a5 04  	beq	a1, a0, 88 <.LBB1_17>
8000522e: 09 a0        	j	2 <core::sync::atomic::atomic_store::h1f08dd607676c909+0x32>
80005230: 0d 45        	addi	a0, zero, 3
80005232: a2 65        	ld	a1, 8(sp)
80005234: 63 84 a5 00  	beq	a1, a0, 8 <.LBB1_15>
80005238: 09 a0        	j	2 <core::sync::atomic::atomic_store::h1f08dd607676c909+0x3c>
8000523a: 2d a8        	j	58 <.LBB1_16+0x30>

000000008000523c <.LBB1_15>:
8000523c: 17 25 00 00  	auipc	a0, 2
80005240: 13 05 c5 3d  	addi	a0, a0, 988

0000000080005244 <.LBB1_16>:
80005244: 17 26 00 00  	auipc	a2, 2
80005248: 13 06 46 49  	addi	a2, a2, 1172
8000524c: 93 05 20 03  	addi	a1, zero, 50
80005250: 97 00 00 00  	auipc	ra, 0
80005254: e7 80 a0 0c  	jalr	202(ra)
80005258: 00 00        	unimp	
8000525a: 00 00        	unimp	
8000525c: 0f 00 10 03  	fence	rw, w
80005260: 62 65        	ld	a0, 24(sp)
80005262: c2 65        	ld	a1, 16(sp)
80005264: 88 e1        	sd	a0, 0(a1)
80005266: 09 a0        	j	2 <.LBB1_16+0x24>
80005268: 25 a8        	j	56 <.LBB1_18+0x16>
8000526a: 62 65        	ld	a0, 24(sp)
8000526c: c2 65        	ld	a1, 16(sp)
8000526e: 88 e1        	sd	a0, 0(a1)
80005270: 09 a0        	j	2 <.LBB1_16+0x2e>
80005272: 3d a0        	j	46 <.LBB1_18+0x16>
80005274: 0f 00 10 03  	fence	rw, w
80005278: 62 65        	ld	a0, 24(sp)
8000527a: c2 65        	ld	a1, 16(sp)
8000527c: 88 e1        	sd	a0, 0(a1)
8000527e: 09 a0        	j	2 <.LBB1_16+0x3c>
80005280: 05 a0        	j	32 <.LBB1_18+0x16>

0000000080005282 <.LBB1_17>:
80005282: 17 25 00 00  	auipc	a0, 2
80005286: 13 05 e5 46  	addi	a0, a0, 1134

000000008000528a <.LBB1_18>:
8000528a: 17 26 00 00  	auipc	a2, 2
8000528e: 13 06 66 49  	addi	a2, a2, 1174
80005292: 93 05 a0 02  	addi	a1, zero, 42
80005296: 97 00 00 00  	auipc	ra, 0
8000529a: e7 80 40 08  	jalr	132(ra)
8000529e: 00 00        	unimp	
800052a0: 21 61        	addi	sp, sp, 64
800052a2: 82 80        	ret

00000000800052a4 <core::cell::UnsafeCell<T>::get::h95cfec27c73dbf25>:
800052a4: 41 11        	addi	sp, sp, -16
800052a6: 2a e4        	sd	a0, 8(sp)
800052a8: 41 01        	addi	sp, sp, 16
800052aa: 82 80        	ret

00000000800052ac <<spin::once::Finish as core::ops::drop::Drop>::drop::h1f292433bec39a27>:
800052ac: 79 71        	addi	sp, sp, -48
800052ae: 06 f4        	sd	ra, 40(sp)
800052b0: 2a f0        	sd	a0, 32(sp)
800052b2: 83 45 85 00  	lbu	a1, 8(a0)
800052b6: 85 89        	andi	a1, a1, 1
800052b8: 2a e8        	sd	a0, 16(sp)
800052ba: 99 e1        	bnez	a1, 6 <<spin::once::Finish as core::ops::drop::Drop>::drop::h1f292433bec39a27+0x14>
800052bc: 09 a0        	j	2 <<spin::once::Finish as core::ops::drop::Drop>::drop::h1f292433bec39a27+0x12>
800052be: 05 a0        	j	32 <<spin::once::Finish as core::ops::drop::Drop>::drop::h1f292433bec39a27+0x32>
800052c0: 42 65        	ld	a0, 16(sp)
800052c2: 08 61        	ld	a0, 0(a0)
800052c4: 91 45        	addi	a1, zero, 4
800052c6: a3 0f b1 00  	sb	a1, 31(sp)
800052ca: 0d 46        	addi	a2, zero, 3
800052cc: 2e e4        	sd	a1, 8(sp)
800052ce: b2 85        	add	a1, zero, a2
800052d0: 22 66        	ld	a2, 8(sp)
800052d2: 97 00 00 00  	auipc	ra, 0
800052d6: e7 80 80 ef  	jalr	-264(ra)
800052da: 09 a0        	j	2 <<spin::once::Finish as core::ops::drop::Drop>::drop::h1f292433bec39a27+0x30>
800052dc: 09 a0        	j	2 <<spin::once::Finish as core::ops::drop::Drop>::drop::h1f292433bec39a27+0x32>
800052de: a2 70        	ld	ra, 40(sp)
800052e0: 45 61        	addi	sp, sp, 48
800052e2: 82 80        	ret

00000000800052e4 <core::ops::function::FnOnce::call_once::hbe6f1b732a2946a4>:
800052e4: 08 61        	ld	a0, 0(a0)
800052e6: 01 a0        	j	0 <core::ops::function::FnOnce::call_once::hbe6f1b732a2946a4+0x2>

00000000800052e8 <core::ptr::drop_in_place<&core::iter::adapters::copied::Copied<core::slice::iter::Iter<u8>>>::h2c14ec9a62b1a876>:
800052e8: 82 80        	ret

00000000800052ea <<T as core::any::Any>::type_id::h7108e12ad9db6507>:
800052ea: 37 f5 60 01  	lui	a0, 5647
800052ee: 1b 05 75 62  	addiw	a0, a0, 1575
800052f2: 36 05        	slli	a0, a0, 13
800052f4: 13 05 75 3d  	addi	a0, a0, 983
800052f8: 32 05        	slli	a0, a0, 12
800052fa: 13 05 15 f8  	addi	a0, a0, -127
800052fe: 32 05        	slli	a0, a0, 12
80005300: 13 05 25 f4  	addi	a0, a0, -190
80005304: 82 80        	ret

0000000080005306 <core::panic::PanicInfo::message::ha124ea628bb1593a>:
80005306: 08 69        	ld	a0, 16(a0)
80005308: 82 80        	ret

000000008000530a <core::panic::PanicInfo::location::h1a36f39edfc37a5b>:
8000530a: 08 6d        	ld	a0, 24(a0)
8000530c: 82 80        	ret

000000008000530e <core::panic::Location::file::h3a63c909928b6622>:
8000530e: 10 61        	ld	a2, 0(a0)
80005310: 0c 65        	ld	a1, 8(a0)
80005312: 32 85        	add	a0, zero, a2
80005314: 82 80        	ret

0000000080005316 <core::panic::Location::line::h438064cf29667b6a>:
80005316: 08 49        	lw	a0, 16(a0)
80005318: 82 80        	ret

000000008000531a <core::panicking::panic::h4214b4eed8d3f37f>:
8000531a: 5d 71        	addi	sp, sp, -80
8000531c: 86 e4        	sd	ra, 72(sp)
8000531e: 2a fc        	sd	a0, 56(sp)
80005320: ae e0        	sd	a1, 64(sp)
80005322: 28 18        	addi	a0, sp, 56
80005324: 2a e4        	sd	a0, 8(sp)
80005326: 05 45        	addi	a0, zero, 1
80005328: 2a e8        	sd	a0, 16(sp)
8000532a: 02 ec        	sd	zero, 24(sp)

000000008000532c <.LBB129_1>:
8000532c: 17 25 00 00  	auipc	a0, 2
80005330: 13 05 c5 40  	addi	a0, a0, 1036
80005334: 2a f4        	sd	a0, 40(sp)
80005336: 02 f8        	sd	zero, 48(sp)
80005338: 28 00        	addi	a0, sp, 8
8000533a: b2 85        	add	a1, zero, a2
8000533c: 97 00 00 00  	auipc	ra, 0
80005340: e7 80 a0 04  	jalr	74(ra)
80005344: 00 00        	unimp	

0000000080005346 <core::panicking::panic_bounds_check::ha760e6d8204f3836>:
80005346: 59 71        	addi	sp, sp, -112
80005348: 86 f4        	sd	ra, 104(sp)
8000534a: 2a e4        	sd	a0, 8(sp)
8000534c: 2e e8        	sd	a1, 16(sp)
8000534e: 08 08        	addi	a0, sp, 16
80005350: aa e4        	sd	a0, 72(sp)

0000000080005352 <.LBB130_1>:
80005352: 17 15 00 00  	auipc	a0, 1
80005356: 13 05 a5 c3  	addi	a0, a0, -966
8000535a: aa e8        	sd	a0, 80(sp)
8000535c: 2c 00        	addi	a1, sp, 8
8000535e: ae ec        	sd	a1, 88(sp)
80005360: aa f0        	sd	a0, 96(sp)

0000000080005362 <.LBB130_2>:
80005362: 17 25 00 00  	auipc	a0, 2
80005366: 13 05 e5 42  	addi	a0, a0, 1070
8000536a: 2a ec        	sd	a0, 24(sp)
8000536c: 09 45        	addi	a0, zero, 2
8000536e: 2a f0        	sd	a0, 32(sp)
80005370: 02 f4        	sd	zero, 40(sp)
80005372: ac 00        	addi	a1, sp, 72
80005374: 2e fc        	sd	a1, 56(sp)
80005376: aa e0        	sd	a0, 64(sp)
80005378: 28 08        	addi	a0, sp, 24
8000537a: b2 85        	add	a1, zero, a2
8000537c: 97 00 00 00  	auipc	ra, 0
80005380: e7 80 a0 00  	jalr	10(ra)
80005384: 00 00        	unimp	

0000000080005386 <core::panicking::panic_fmt::ha4e041b5d1f17023>:
80005386: 79 71        	addi	sp, sp, -48
80005388: 06 f4        	sd	ra, 40(sp)

000000008000538a <.LBB131_1>:
8000538a: 17 26 00 00  	auipc	a2, 2
8000538e: 13 06 e6 3a  	addi	a2, a2, 942
80005392: 32 e4        	sd	a2, 8(sp)

0000000080005394 <.LBB131_2>:
80005394: 17 26 00 00  	auipc	a2, 2
80005398: 13 06 46 3a  	addi	a2, a2, 932
8000539c: 32 e8        	sd	a2, 16(sp)
8000539e: 2a ec        	sd	a0, 24(sp)
800053a0: 2e f0        	sd	a1, 32(sp)
800053a2: 28 00        	addi	a0, sp, 8
800053a4: 97 b0 ff ff  	auipc	ra, 1048571
800053a8: e7 80 60 3f  	jalr	1014(ra)
800053ac: 00 00        	unimp	

00000000800053ae <core::fmt::builders::DebugTuple::finish::h9067963986a9fe09>:
800053ae: 01 11        	addi	sp, sp, -32
800053b0: 06 ec        	sd	ra, 24(sp)
800053b2: 22 e8        	sd	s0, 16(sp)
800053b4: 26 e4        	sd	s1, 8(sp)
800053b6: 2a 84        	add	s0, zero, a0
800053b8: 0c 65        	ld	a1, 8(a0)
800053ba: 03 45 05 01  	lbu	a0, 16(a0)
800053be: b9 c5        	beqz	a1, 78 <.LBB138_10+0x14>
800053c0: 85 44        	addi	s1, zero, 1
800053c2: 31 e1        	bnez	a0, 68 <.LBB138_10+0xe>
800053c4: 05 45        	addi	a0, zero, 1
800053c6: 63 95 a5 02  	bne	a1, a0, 42 <.LBB138_9+0x10>
800053ca: 03 45 14 01  	lbu	a0, 17(s0)
800053ce: 0d c1        	beqz	a0, 34 <.LBB138_9+0x10>
800053d0: 08 60        	ld	a0, 0(s0)
800053d2: 83 45 05 03  	lbu	a1, 48(a0)
800053d6: 91 89        	andi	a1, a1, 4
800053d8: 81 ed        	bnez	a1, 24 <.LBB138_9+0x10>
800053da: 0c 75        	ld	a1, 40(a0)
800053dc: 08 71        	ld	a0, 32(a0)
800053de: 94 6d        	ld	a3, 24(a1)

00000000800053e0 <.LBB138_9>:
800053e0: 97 25 00 00  	auipc	a1, 2
800053e4: 93 85 05 3d  	addi	a1, a1, 976
800053e8: 05 46        	addi	a2, zero, 1
800053ea: 85 44        	addi	s1, zero, 1
800053ec: 82 96        	jalr	a3
800053ee: 01 ed        	bnez	a0, 24 <.LBB138_10+0xe>
800053f0: 08 60        	ld	a0, 0(s0)
800053f2: 0c 75        	ld	a1, 40(a0)
800053f4: 08 71        	ld	a0, 32(a0)
800053f6: 94 6d        	ld	a3, 24(a1)

00000000800053f8 <.LBB138_10>:
800053f8: 97 25 00 00  	auipc	a1, 2
800053fc: 93 85 95 3b  	addi	a1, a1, 953
80005400: 05 46        	addi	a2, zero, 1
80005402: 82 96        	jalr	a3
80005404: aa 84        	add	s1, zero, a0
80005406: 23 08 94 00  	sb	s1, 16(s0)
8000540a: 26 85        	add	a0, zero, s1
8000540c: 33 35 a0 00  	snez	a0, a0
80005410: a2 64        	ld	s1, 8(sp)
80005412: 42 64        	ld	s0, 16(sp)
80005414: e2 60        	ld	ra, 24(sp)
80005416: 05 61        	addi	sp, sp, 32
80005418: 82 80        	ret

000000008000541a <<core::fmt::Arguments as core::fmt::Display>::fmt::h6000ae836ac5c51c>:
8000541a: 39 71        	addi	sp, sp, -64
8000541c: 06 fc        	sd	ra, 56(sp)
8000541e: 10 75        	ld	a2, 40(a0)
80005420: 18 71        	ld	a4, 32(a0)
80005422: 94 71        	ld	a3, 32(a1)
80005424: 8c 75        	ld	a1, 40(a1)
80005426: 32 f8        	sd	a2, 48(sp)
80005428: 3a f4        	sd	a4, 40(sp)
8000542a: 10 6d        	ld	a2, 24(a0)
8000542c: 18 69        	ld	a4, 16(a0)
8000542e: 1c 65        	ld	a5, 8(a0)
80005430: 08 61        	ld	a0, 0(a0)
80005432: 32 f0        	sd	a2, 32(sp)
80005434: 3a ec        	sd	a4, 24(sp)
80005436: 3e e8        	sd	a5, 16(sp)
80005438: 2a e4        	sd	a0, 8(sp)
8000543a: 30 00        	addi	a2, sp, 8
8000543c: 36 85        	add	a0, zero, a3
8000543e: 97 00 00 00  	auipc	ra, 0
80005442: e7 80 e0 00  	jalr	14(ra)
80005446: e2 70        	ld	ra, 56(sp)
80005448: 21 61        	addi	sp, sp, 64
8000544a: 82 80        	ret

000000008000544c <core::fmt::write::h338141860f5a80fb>:
8000544c: 35 71        	addi	sp, sp, -160
8000544e: 06 ed        	sd	ra, 152(sp)
80005450: 22 e9        	sd	s0, 144(sp)
80005452: 26 e5        	sd	s1, 136(sp)
80005454: 4a e1        	sd	s2, 128(sp)
80005456: ce fc        	sd	s3, 120(sp)
80005458: d2 f8        	sd	s4, 112(sp)
8000545a: d6 f4        	sd	s5, 104(sp)
8000545c: da f0        	sd	s6, 96(sp)
8000545e: de ec        	sd	s7, 88(sp)
80005460: e2 e8        	sd	s8, 80(sp)
80005462: e6 e4        	sd	s9, 72(sp)
80005464: 32 84        	add	s0, zero, a2
80005466: 05 46        	addi	a2, zero, 1
80005468: 16 16        	slli	a2, a2, 37
8000546a: 32 fc        	sd	a2, 56(sp)
8000546c: 0d 46        	addi	a2, zero, 3
8000546e: 23 00 c1 04  	sb	a2, 64(sp)
80005472: 04 68        	ld	s1, 16(s0)
80005474: 02 e4        	sd	zero, 8(sp)
80005476: 02 ec        	sd	zero, 24(sp)
80005478: 2a f4        	sd	a0, 40(sp)
8000547a: 2e f8        	sd	a1, 48(sp)
8000547c: e9 cc        	beqz	s1, 218 <.LBB167_35+0x9e>
8000547e: 10 6c        	ld	a2, 24(s0)
80005480: 83 39 84 00  	ld	s3, 8(s0)
80005484: 03 39 04 00  	ld	s2, 0(s0)
80005488: ce 8a        	add	s5, zero, s3
8000548a: 63 e3 c9 00  	bltu	s3, a2, 6 <core::fmt::write::h338141860f5a80fb+0x44>
8000548e: b2 8a        	add	s5, zero, a2
80005490: 63 81 0a 12  	beqz	s5, 290 <.LBB167_35+0xfa>
80005494: 83 36 09 00  	ld	a3, 0(s2)
80005498: 03 36 89 00  	ld	a2, 8(s2)
8000549c: 98 6d        	ld	a4, 24(a1)
8000549e: b6 85        	add	a1, zero, a3
800054a0: 02 97        	jalr	a4
800054a2: 63 16 05 12  	bnez	a0, 300 <.LBB167_35+0x116>
800054a6: 03 3c 04 02  	ld	s8, 32(s0)
800054aa: 93 84 04 03  	addi	s1, s1, 48
800054ae: 93 0c 89 01  	addi	s9, s2, 24
800054b2: 13 0a 81 00  	addi	s4, sp, 8
800054b6: 09 4b        	addi	s6, zero, 2

00000000800054b8 <.LBB167_35>:
800054b8: 97 0b 00 00  	auipc	s7, 0
800054bc: 93 8b cb e2  	addi	s7, s7, -468
800054c0: 56 84        	add	s0, zero, s5
800054c2: 03 a5 84 ff  	lw	a0, -8(s1)
800054c6: 2a de        	sw	a0, 60(sp)
800054c8: 03 85 04 00  	lb	a0, 0(s1)
800054cc: 23 00 a1 04  	sb	a0, 64(sp)
800054d0: 03 a5 c4 ff  	lw	a0, -4(s1)
800054d4: 2a dc        	sw	a0, 56(sp)
800054d6: 03 b6 84 fe  	ld	a2, -24(s1)
800054da: 03 b5 04 ff  	ld	a0, -16(s1)
800054de: 19 ca        	beqz	a2, 22 <.LBB167_35+0x3c>
800054e0: 81 45        	mv	a1, zero
800054e2: 63 0c 66 01  	beq	a2, s6, 24 <.LBB167_35+0x42>
800054e6: 12 05        	slli	a0, a0, 4
800054e8: 62 95        	add	a0, a0, s8
800054ea: 0c 65        	ld	a1, 8(a0)
800054ec: 63 96 75 01  	bne	a1, s7, 12 <.LBB167_35+0x40>
800054f0: 08 61        	ld	a0, 0(a0)
800054f2: 08 61        	ld	a0, 0(a0)
800054f4: 85 45        	addi	a1, zero, 1
800054f6: 11 a0        	j	4 <.LBB167_35+0x42>
800054f8: 81 45        	mv	a1, zero
800054fa: 2e e4        	sd	a1, 8(sp)
800054fc: 2a e8        	sd	a0, 16(sp)
800054fe: 03 b6 84 fd  	ld	a2, -40(s1)
80005502: 03 b5 04 fe  	ld	a0, -32(s1)
80005506: 19 ca        	beqz	a2, 22 <.LBB167_35+0x64>
80005508: 81 45        	mv	a1, zero
8000550a: 63 0c 66 01  	beq	a2, s6, 24 <.LBB167_35+0x6a>
8000550e: 12 05        	slli	a0, a0, 4
80005510: 62 95        	add	a0, a0, s8
80005512: 0c 65        	ld	a1, 8(a0)
80005514: 63 96 75 01  	bne	a1, s7, 12 <.LBB167_35+0x68>
80005518: 08 61        	ld	a0, 0(a0)
8000551a: 08 61        	ld	a0, 0(a0)
8000551c: 85 45        	addi	a1, zero, 1
8000551e: 11 a0        	j	4 <.LBB167_35+0x6a>
80005520: 81 45        	mv	a1, zero
80005522: 2e ec        	sd	a1, 24(sp)
80005524: 2a f0        	sd	a0, 32(sp)
80005526: 03 b5 04 fd  	ld	a0, -48(s1)
8000552a: 12 05        	slli	a0, a0, 4
8000552c: 62 95        	add	a0, a0, s8
8000552e: 10 65        	ld	a2, 8(a0)
80005530: 08 61        	ld	a0, 0(a0)
80005532: d2 85        	add	a1, zero, s4
80005534: 02 96        	jalr	a2
80005536: 41 ed        	bnez	a0, 152 <.LBB167_35+0x116>
80005538: 7d 14        	addi	s0, s0, -1
8000553a: 2d cc        	beqz	s0, 122 <.LBB167_35+0xfc>
8000553c: c2 76        	ld	a3, 48(sp)
8000553e: 22 75        	ld	a0, 40(sp)
80005540: 83 b5 8c ff  	ld	a1, -8(s9)
80005544: 03 b6 0c 00  	ld	a2, 0(s9)
80005548: 94 6e        	ld	a3, 24(a3)
8000554a: 93 84 84 03  	addi	s1, s1, 56
8000554e: c1 0c        	addi	s9, s9, 16
80005550: 82 96        	jalr	a3
80005552: 25 d9        	beqz	a0, -144 <.LBB167_35+0xa>
80005554: ad a8        	j	122 <.LBB167_35+0x116>
80005556: 04 70        	ld	s1, 32(s0)
80005558: 10 74        	ld	a2, 40(s0)
8000555a: 83 39 84 00  	ld	s3, 8(s0)
8000555e: 03 39 04 00  	ld	s2, 0(s0)
80005562: ce 8a        	add	s5, zero, s3
80005564: 63 e3 c9 00  	bltu	s3, a2, 6 <.LBB167_35+0xb2>
80005568: b2 8a        	add	s5, zero, a2
8000556a: 63 84 0a 04  	beqz	s5, 72 <.LBB167_35+0xfa>
8000556e: 83 36 09 00  	ld	a3, 0(s2)
80005572: 03 36 89 00  	ld	a2, 8(s2)
80005576: 98 6d        	ld	a4, 24(a1)
80005578: b6 85        	add	a1, zero, a3
8000557a: 02 97        	jalr	a4
8000557c: 29 e9        	bnez	a0, 82 <.LBB167_35+0x116>
8000557e: a1 04        	addi	s1, s1, 8
80005580: 13 0b 89 01  	addi	s6, s2, 24
80005584: 13 0a 81 00  	addi	s4, sp, 8
80005588: 56 84        	add	s0, zero, s5
8000558a: 90 60        	ld	a2, 0(s1)
8000558c: 03 b5 84 ff  	ld	a0, -8(s1)
80005590: d2 85        	add	a1, zero, s4
80005592: 02 96        	jalr	a2
80005594: 0d ed        	bnez	a0, 58 <.LBB167_35+0x116>
80005596: 7d 14        	addi	s0, s0, -1
80005598: 11 cc        	beqz	s0, 28 <.LBB167_35+0xfc>
8000559a: c2 76        	ld	a3, 48(sp)
8000559c: 22 75        	ld	a0, 40(sp)
8000559e: 83 35 8b ff  	ld	a1, -8(s6)
800055a2: 03 36 0b 00  	ld	a2, 0(s6)
800055a6: 94 6e        	ld	a3, 24(a3)
800055a8: c1 04        	addi	s1, s1, 16
800055aa: 41 0b        	addi	s6, s6, 16
800055ac: 82 96        	jalr	a3
800055ae: 71 dd        	beqz	a0, -36 <.LBB167_35+0xd2>
800055b0: 39 a8        	j	30 <.LBB167_35+0x116>
800055b2: 81 4a        	mv	s5, zero
800055b4: 63 ff 3a 01  	bgeu	s5, s3, 30 <.LBB167_35+0x11a>
800055b8: 22 75        	ld	a0, 40(sp)
800055ba: c2 76        	ld	a3, 48(sp)
800055bc: 93 95 4a 00  	slli	a1, s5, 4
800055c0: 33 06 b9 00  	add	a2, s2, a1
800055c4: 0c 62        	ld	a1, 0(a2)
800055c6: 10 66        	ld	a2, 8(a2)
800055c8: 94 6e        	ld	a3, 24(a3)
800055ca: 82 96        	jalr	a3
800055cc: 19 c1        	beqz	a0, 6 <.LBB167_35+0x11a>
800055ce: 05 45        	addi	a0, zero, 1
800055d0: 11 a0        	j	4 <.LBB167_35+0x11c>
800055d2: 01 45        	mv	a0, zero
800055d4: a6 6c        	ld	s9, 72(sp)
800055d6: 46 6c        	ld	s8, 80(sp)
800055d8: e6 6b        	ld	s7, 88(sp)
800055da: 06 7b        	ld	s6, 96(sp)
800055dc: a6 7a        	ld	s5, 104(sp)
800055de: 46 7a        	ld	s4, 112(sp)
800055e0: e6 79        	ld	s3, 120(sp)
800055e2: 0a 69        	ld	s2, 128(sp)
800055e4: aa 64        	ld	s1, 136(sp)
800055e6: 4a 64        	ld	s0, 144(sp)
800055e8: ea 60        	ld	ra, 152(sp)
800055ea: 0d 61        	addi	sp, sp, 160
800055ec: 82 80        	ret

00000000800055ee <core::fmt::Formatter::pad_integral::h005290bf5c80af87>:
800055ee: 59 71        	addi	sp, sp, -112
800055f0: 86 f4        	sd	ra, 104(sp)
800055f2: a2 f0        	sd	s0, 96(sp)
800055f4: a6 ec        	sd	s1, 88(sp)
800055f6: ca e8        	sd	s2, 80(sp)
800055f8: ce e4        	sd	s3, 72(sp)
800055fa: d2 e0        	sd	s4, 64(sp)
800055fc: 56 fc        	sd	s5, 56(sp)
800055fe: 5a f8        	sd	s6, 48(sp)
80005600: 5e f4        	sd	s7, 40(sp)
80005602: 62 f0        	sd	s8, 32(sp)
80005604: 66 ec        	sd	s9, 24(sp)
80005606: 6a e8        	sd	s10, 16(sp)
80005608: 6e e4        	sd	s11, 8(sp)
8000560a: be 89        	add	s3, zero, a5
8000560c: 3a 89        	add	s2, zero, a4
8000560e: b6 8a        	add	s5, zero, a3
80005610: 2a 84        	add	s0, zero, a0
80005612: b1 c9        	beqz	a1, 84 <core::fmt::Formatter::pad_integral::h005290bf5c80af87+0x78>
80005614: 03 65 04 03  	lwu	a0, 48(s0)
80005618: 93 75 15 00  	andi	a1, a0, 1
8000561c: 37 0a 11 00  	lui	s4, 272
80005620: 99 c1        	beqz	a1, 6 <core::fmt::Formatter::pad_integral::h005290bf5c80af87+0x38>
80005622: 13 0a b0 02  	addi	s4, zero, 43
80005626: b3 8c 35 01  	add	s9, a1, s3
8000562a: 93 75 45 00  	andi	a1, a0, 4
8000562e: a9 c5        	beqz	a1, 74 <core::fmt::Formatter::pad_integral::h005290bf5c80af87+0x8a>
80005630: 81 45        	mv	a1, zero
80005632: 63 80 0a 02  	beqz	s5, 32 <core::fmt::Formatter::pad_integral::h005290bf5c80af87+0x64>
80005636: d6 86        	add	a3, zero, s5
80005638: 32 87        	add	a4, zero, a2
8000563a: 83 47 07 00  	lbu	a5, 0(a4)
8000563e: 05 07        	addi	a4, a4, 1
80005640: 93 f7 07 0c  	andi	a5, a5, 192
80005644: 93 87 07 f8  	addi	a5, a5, -128
80005648: 93 b7 17 00  	seqz	a5, a5
8000564c: fd 16        	addi	a3, a3, -1
8000564e: be 95        	add	a1, a1, a5
80005650: ed f6        	bnez	a3, -22 <core::fmt::Formatter::pad_integral::h005290bf5c80af87+0x4c>
80005652: b3 86 5c 01  	add	a3, s9, s5
80005656: b3 8c b6 40  	sub	s9, a3, a1
8000565a: 32 8b        	add	s6, zero, a2
8000565c: 0c 60        	ld	a1, 0(s0)
8000565e: 85 4d        	addi	s11, zero, 1
80005660: 63 81 b5 03  	beq	a1, s11, 34 <core::fmt::Formatter::pad_integral::h005290bf5c80af87+0x94>
80005664: b1 a0        	j	76 <core::fmt::Formatter::pad_integral::h005290bf5c80af87+0xc2>
80005666: 03 65 04 03  	lwu	a0, 48(s0)
8000566a: 93 8c 19 00  	addi	s9, s3, 1
8000566e: 13 0a d0 02  	addi	s4, zero, 45
80005672: 93 75 45 00  	andi	a1, a0, 4
80005676: cd fd        	bnez	a1, -70 <core::fmt::Formatter::pad_integral::h005290bf5c80af87+0x42>
80005678: 01 4b        	mv	s6, zero
8000567a: 0c 60        	ld	a1, 0(s0)
8000567c: 85 4d        	addi	s11, zero, 1
8000567e: 63 99 b5 03  	bne	a1, s11, 50 <core::fmt::Formatter::pad_integral::h005290bf5c80af87+0xc2>
80005682: 03 3d 84 00  	ld	s10, 8(s0)
80005686: 63 f5 ac 03  	bgeu	s9, s10, 42 <core::fmt::Formatter::pad_integral::h005290bf5c80af87+0xc2>
8000568a: 21 89        	andi	a0, a0, 8
8000568c: 3d ed        	bnez	a0, 126 <core::fmt::Formatter::pad_integral::h005290bf5c80af87+0x11c>
8000568e: 03 45 84 03  	lbu	a0, 56(s0)
80005692: 85 45        	addi	a1, zero, 1
80005694: 8d 46        	addi	a3, zero, 3
80005696: 05 46        	addi	a2, zero, 1
80005698: 63 03 d5 00  	beq	a0, a3, 6 <core::fmt::Formatter::pad_integral::h005290bf5c80af87+0xb0>
8000569c: 2a 86        	add	a2, zero, a0
8000569e: 0d 8a        	andi	a2, a2, 3
800056a0: 33 05 9d 41  	sub	a0, s10, s9
800056a4: 63 c7 c5 0a  	blt	a1, a2, 174 <core::fmt::Formatter::pad_integral::h005290bf5c80af87+0x164>
800056a8: 45 ea        	bnez	a2, 176 <core::fmt::Formatter::pad_integral::h005290bf5c80af87+0x16a>
800056aa: 2a 8c        	add	s8, zero, a0
800056ac: 01 45        	mv	a0, zero
800056ae: c9 a0        	j	194 <core::fmt::Formatter::pad_integral::h005290bf5c80af87+0x182>
800056b0: 22 85        	add	a0, zero, s0
800056b2: d2 85        	add	a1, zero, s4
800056b4: 5a 86        	add	a2, zero, s6
800056b6: d6 86        	add	a3, zero, s5
800056b8: 97 00 00 00  	auipc	ra, 0
800056bc: e7 80 40 17  	jalr	372(ra)
800056c0: 0d c1        	beqz	a0, 34 <core::fmt::Formatter::pad_integral::h005290bf5c80af87+0xf4>
800056c2: 6e 85        	add	a0, zero, s11
800056c4: a2 6d        	ld	s11, 8(sp)
800056c6: 42 6d        	ld	s10, 16(sp)
800056c8: e2 6c        	ld	s9, 24(sp)
800056ca: 02 7c        	ld	s8, 32(sp)
800056cc: a2 7b        	ld	s7, 40(sp)
800056ce: 42 7b        	ld	s6, 48(sp)
800056d0: e2 7a        	ld	s5, 56(sp)
800056d2: 06 6a        	ld	s4, 64(sp)
800056d4: a6 69        	ld	s3, 72(sp)
800056d6: 46 69        	ld	s2, 80(sp)
800056d8: e6 64        	ld	s1, 88(sp)
800056da: 06 74        	ld	s0, 96(sp)
800056dc: a6 70        	ld	ra, 104(sp)
800056de: 65 61        	addi	sp, sp, 112
800056e0: 82 80        	ret
800056e2: 0c 74        	ld	a1, 40(s0)
800056e4: 08 70        	ld	a0, 32(s0)
800056e6: 9c 6d        	ld	a5, 24(a1)
800056e8: ca 85        	add	a1, zero, s2
800056ea: 4e 86        	add	a2, zero, s3
800056ec: a2 6d        	ld	s11, 8(sp)
800056ee: 42 6d        	ld	s10, 16(sp)
800056f0: e2 6c        	ld	s9, 24(sp)
800056f2: 02 7c        	ld	s8, 32(sp)
800056f4: a2 7b        	ld	s7, 40(sp)
800056f6: 42 7b        	ld	s6, 48(sp)
800056f8: e2 7a        	ld	s5, 56(sp)
800056fa: 06 6a        	ld	s4, 64(sp)
800056fc: a6 69        	ld	s3, 72(sp)
800056fe: 46 69        	ld	s2, 80(sp)
80005700: e6 64        	ld	s1, 88(sp)
80005702: 06 74        	ld	s0, 96(sp)
80005704: a6 70        	ld	ra, 104(sp)
80005706: 65 61        	addi	sp, sp, 112
80005708: 82 87        	jr	a5
8000570a: 83 6b 44 03  	lwu	s7, 52(s0)
8000570e: 13 05 00 03  	addi	a0, zero, 48
80005712: 03 4c 84 03  	lbu	s8, 56(s0)
80005716: 48 d8        	sw	a0, 52(s0)
80005718: 85 4d        	addi	s11, zero, 1
8000571a: 23 0c b4 03  	sb	s11, 56(s0)
8000571e: 22 85        	add	a0, zero, s0
80005720: d2 85        	add	a1, zero, s4
80005722: 5a 86        	add	a2, zero, s6
80005724: d6 86        	add	a3, zero, s5
80005726: 97 00 00 00  	auipc	ra, 0
8000572a: e7 80 60 10  	jalr	262(ra)
8000572e: 51 f9        	bnez	a0, -108 <core::fmt::Formatter::pad_integral::h005290bf5c80af87+0xd4>
80005730: 03 45 84 03  	lbu	a0, 56(s0)
80005734: 85 45        	addi	a1, zero, 1
80005736: 8d 46        	addi	a3, zero, 3
80005738: 05 46        	addi	a2, zero, 1
8000573a: 63 03 d5 00  	beq	a0, a3, 6 <core::fmt::Formatter::pad_integral::h005290bf5c80af87+0x152>
8000573e: 2a 86        	add	a2, zero, a0
80005740: 0d 8a        	andi	a2, a2, 3
80005742: 33 05 9d 41  	sub	a0, s10, s9
80005746: 63 cb c5 00  	blt	a1, a2, 22 <core::fmt::Formatter::pad_integral::h005290bf5c80af87+0x16e>
8000574a: 01 ee        	bnez	a2, 24 <core::fmt::Formatter::pad_integral::h005290bf5c80af87+0x174>
8000574c: aa 8a        	add	s5, zero, a0
8000574e: 01 45        	mv	a0, zero
80005750: 41 a0        	j	128 <core::fmt::Formatter::pad_integral::h005290bf5c80af87+0x1e2>
80005752: 8d 45        	addi	a1, zero, 3
80005754: 63 19 b6 00  	bne	a2, a1, 18 <core::fmt::Formatter::pad_integral::h005290bf5c80af87+0x178>
80005758: 01 4c        	mv	s8, zero
8000575a: 19 a8        	j	22 <core::fmt::Formatter::pad_integral::h005290bf5c80af87+0x182>
8000575c: 8d 45        	addi	a1, zero, 3
8000575e: 63 14 b6 06  	bne	a2, a1, 104 <core::fmt::Formatter::pad_integral::h005290bf5c80af87+0x1d8>
80005762: 81 4a        	mv	s5, zero
80005764: b5 a0        	j	108 <core::fmt::Formatter::pad_integral::h005290bf5c80af87+0x1e2>
80005766: 93 05 15 00  	addi	a1, a0, 1
8000576a: 05 81        	srli	a0, a0, 1
8000576c: 13 dc 15 00  	srli	s8, a1, 1
80005770: 93 04 15 00  	addi	s1, a0, 1
80005774: fd 14        	addi	s1, s1, -1
80005776: 81 c8        	beqz	s1, 16 <core::fmt::Formatter::pad_integral::h005290bf5c80af87+0x198>
80005778: 0c 74        	ld	a1, 40(s0)
8000577a: 08 70        	ld	a0, 32(s0)
8000577c: 90 71        	ld	a2, 32(a1)
8000577e: 4c 58        	lw	a1, 52(s0)
80005780: 02 96        	jalr	a2
80005782: 6d d9        	beqz	a0, -14 <core::fmt::Formatter::pad_integral::h005290bf5c80af87+0x186>
80005784: 85 a0        	j	96 <core::fmt::Formatter::pad_integral::h005290bf5c80af87+0x1f6>
80005786: 83 6b 44 03  	lwu	s7, 52(s0)
8000578a: 22 85        	add	a0, zero, s0
8000578c: d2 85        	add	a1, zero, s4
8000578e: 5a 86        	add	a2, zero, s6
80005790: d6 86        	add	a3, zero, s5
80005792: 97 00 00 00  	auipc	ra, 0
80005796: e7 80 a0 09  	jalr	154(ra)
8000579a: 85 4d        	addi	s11, zero, 1
8000579c: 1d f1        	bnez	a0, -218 <core::fmt::Formatter::pad_integral::h005290bf5c80af87+0xd4>
8000579e: 0c 74        	ld	a1, 40(s0)
800057a0: 08 70        	ld	a0, 32(s0)
800057a2: 94 6d        	ld	a3, 24(a1)
800057a4: ca 85        	add	a1, zero, s2
800057a6: 4e 86        	add	a2, zero, s3
800057a8: 82 96        	jalr	a3
800057aa: 01 fd        	bnez	a0, -232 <core::fmt::Formatter::pad_integral::h005290bf5c80af87+0xd4>
800057ac: 03 39 04 02  	ld	s2, 32(s0)
800057b0: 00 74        	ld	s0, 40(s0)
800057b2: 93 04 1c 00  	addi	s1, s8, 1
800057b6: fd 14        	addi	s1, s1, -1
800057b8: b5 c0        	beqz	s1, 100 <core::fmt::Formatter::pad_integral::h005290bf5c80af87+0x22e>
800057ba: 10 70        	ld	a2, 32(s0)
800057bc: 4a 85        	add	a0, zero, s2
800057be: de 85        	add	a1, zero, s7
800057c0: 02 96        	jalr	a2
800057c2: 75 d9        	beqz	a0, -12 <core::fmt::Formatter::pad_integral::h005290bf5c80af87+0x1c8>
800057c4: fd bd        	j	-258 <core::fmt::Formatter::pad_integral::h005290bf5c80af87+0xd4>
800057c6: 93 05 15 00  	addi	a1, a0, 1
800057ca: 05 81        	srli	a0, a0, 1
800057cc: 93 da 15 00  	srli	s5, a1, 1
800057d0: 93 04 15 00  	addi	s1, a0, 1
800057d4: fd 14        	addi	s1, s1, -1
800057d6: 89 c8        	beqz	s1, 18 <core::fmt::Formatter::pad_integral::h005290bf5c80af87+0x1fa>
800057d8: 0c 74        	ld	a1, 40(s0)
800057da: 08 70        	ld	a0, 32(s0)
800057dc: 90 71        	ld	a2, 32(a1)
800057de: 4c 58        	lw	a1, 52(s0)
800057e0: 02 96        	jalr	a2
800057e2: 6d d9        	beqz	a0, -14 <core::fmt::Formatter::pad_integral::h005290bf5c80af87+0x1e6>
800057e4: 85 4d        	addi	s11, zero, 1
800057e6: f1 bd        	j	-292 <core::fmt::Formatter::pad_integral::h005290bf5c80af87+0xd4>
800057e8: 0c 74        	ld	a1, 40(s0)
800057ea: 03 6a 44 03  	lwu	s4, 52(s0)
800057ee: 08 70        	ld	a0, 32(s0)
800057f0: 94 6d        	ld	a3, 24(a1)
800057f2: ca 85        	add	a1, zero, s2
800057f4: 4e 86        	add	a2, zero, s3
800057f6: 82 96        	jalr	a3
800057f8: 85 4d        	addi	s11, zero, 1
800057fa: e3 14 05 ec  	bnez	a0, -312 <core::fmt::Formatter::pad_integral::h005290bf5c80af87+0xd4>
800057fe: 03 39 04 02  	ld	s2, 32(s0)
80005802: 83 39 84 02  	ld	s3, 40(s0)
80005806: 93 84 1a 00  	addi	s1, s5, 1
8000580a: fd 14        	addi	s1, s1, -1
8000580c: 91 c8        	beqz	s1, 20 <core::fmt::Formatter::pad_integral::h005290bf5c80af87+0x232>
8000580e: 03 b6 09 02  	ld	a2, 32(s3)
80005812: 4a 85        	add	a0, zero, s2
80005814: d2 85        	add	a1, zero, s4
80005816: 02 96        	jalr	a2
80005818: 6d d9        	beqz	a0, -14 <core::fmt::Formatter::pad_integral::h005290bf5c80af87+0x21c>
8000581a: 65 b5        	j	-344 <core::fmt::Formatter::pad_integral::h005290bf5c80af87+0xd4>
8000581c: 81 4d        	mv	s11, zero
8000581e: 55 b5        	j	-348 <core::fmt::Formatter::pad_integral::h005290bf5c80af87+0xd4>
80005820: 81 4d        	mv	s11, zero
80005822: 23 2a 74 03  	sw	s7, 52(s0)
80005826: 23 0c 84 03  	sb	s8, 56(s0)
8000582a: 61 bd        	j	-360 <core::fmt::Formatter::pad_integral::h005290bf5c80af87+0xd4>

000000008000582c <core::fmt::Formatter::pad_integral::write_prefix::h348f9b16d5d85b52>:
8000582c: 01 11        	addi	sp, sp, -32
8000582e: 06 ec        	sd	ra, 24(sp)
80005830: 22 e8        	sd	s0, 16(sp)
80005832: 26 e4        	sd	s1, 8(sp)
80005834: 4a e0        	sd	s2, 0(sp)
80005836: 13 97 05 02  	slli	a4, a1, 32
8000583a: 01 93        	srli	a4, a4, 32
8000583c: b7 07 11 00  	lui	a5, 272
80005840: 36 89        	add	s2, zero, a3
80005842: b2 84        	add	s1, zero, a2
80005844: 2a 84        	add	s0, zero, a0
80005846: 63 09 f7 00  	beq	a4, a5, 18 <core::fmt::Formatter::pad_integral::write_prefix::h348f9b16d5d85b52+0x2c>
8000584a: 10 74        	ld	a2, 40(s0)
8000584c: 08 70        	ld	a0, 32(s0)
8000584e: 10 72        	ld	a2, 32(a2)
80005850: 02 96        	jalr	a2
80005852: aa 85        	add	a1, zero, a0
80005854: 05 45        	addi	a0, zero, 1
80005856: 91 ed        	bnez	a1, 28 <core::fmt::Formatter::pad_integral::write_prefix::h348f9b16d5d85b52+0x46>
80005858: 81 cc        	beqz	s1, 24 <core::fmt::Formatter::pad_integral::write_prefix::h348f9b16d5d85b52+0x44>
8000585a: 0c 74        	ld	a1, 40(s0)
8000585c: 08 70        	ld	a0, 32(s0)
8000585e: 9c 6d        	ld	a5, 24(a1)
80005860: a6 85        	add	a1, zero, s1
80005862: 4a 86        	add	a2, zero, s2
80005864: 02 69        	ld	s2, 0(sp)
80005866: a2 64        	ld	s1, 8(sp)
80005868: 42 64        	ld	s0, 16(sp)
8000586a: e2 60        	ld	ra, 24(sp)
8000586c: 05 61        	addi	sp, sp, 32
8000586e: 82 87        	jr	a5
80005870: 01 45        	mv	a0, zero
80005872: 02 69        	ld	s2, 0(sp)
80005874: a2 64        	ld	s1, 8(sp)
80005876: 42 64        	ld	s0, 16(sp)
80005878: e2 60        	ld	ra, 24(sp)
8000587a: 05 61        	addi	sp, sp, 32
8000587c: 82 80        	ret

000000008000587e <core::fmt::Formatter::pad::hcc8646e0ded6ea87>:
8000587e: 39 71        	addi	sp, sp, -64
80005880: 06 fc        	sd	ra, 56(sp)
80005882: 22 f8        	sd	s0, 48(sp)
80005884: 26 f4        	sd	s1, 40(sp)
80005886: 4a f0        	sd	s2, 32(sp)
80005888: 4e ec        	sd	s3, 24(sp)
8000588a: 52 e8        	sd	s4, 16(sp)
8000588c: 56 e4        	sd	s5, 8(sp)
8000588e: 5a e0        	sd	s6, 0(sp)
80005890: 2a 8b        	add	s6, zero, a0
80005892: 14 69        	ld	a3, 16(a0)
80005894: 08 61        	ld	a0, 0(a0)
80005896: b2 89        	add	s3, zero, a2
80005898: 2e 89        	add	s2, zero, a1
8000589a: 93 85 f6 ff  	addi	a1, a3, -1
8000589e: 05 46        	addi	a2, zero, 1
800058a0: 93 b5 15 00  	seqz	a1, a1
800058a4: 63 14 c5 00  	bne	a0, a2, 8 <core::fmt::Formatter::pad::hcc8646e0ded6ea87+0x2e>
800058a8: 81 e5        	bnez	a1, 8 <core::fmt::Formatter::pad::hcc8646e0ded6ea87+0x32>
800058aa: 15 a2        	j	292 <core::fmt::Formatter::pad::hcc8646e0ded6ea87+0x150>
800058ac: 63 8f 05 18  	beqz	a1, 414 <core::fmt::Formatter::pad::hcc8646e0ded6ea87+0x1cc>
800058b0: 83 36 8b 01  	ld	a3, 24(s6)
800058b4: 7d 15        	addi	a0, a0, -1
800058b6: 13 38 15 00  	seqz	a6, a0
800058ba: 33 07 39 01  	add	a4, s2, s3
800058be: 81 45        	mv	a1, zero
800058c0: dd c2        	beqz	a3, 166 <core::fmt::Formatter::pad::hcc8646e0ded6ea87+0xe8>
800058c2: 7d 5e        	addi	t3, zero, -1
800058c4: 93 03 00 0e  	addi	t2, zero, 224
800058c8: 13 03 00 0f  	addi	t1, zero, 240
800058cc: b7 08 1c 00  	lui	a7, 448
800058d0: b7 02 11 00  	lui	t0, 272
800058d4: 4a 85        	add	a0, zero, s2
800058d6: 15 a8        	j	52 <core::fmt::Formatter::pad::hcc8646e0ded6ea87+0x8c>
800058d8: 03 44 06 00  	lbu	s0, 0(a2)
800058dc: 93 04 16 00  	addi	s1, a2, 1
800058e0: 93 7f f4 03  	andi	t6, s0, 63
800058e4: ca 07        	slli	a5, a5, 18
800058e6: b3 f7 17 01  	and	a5, a5, a7
800058ea: 13 14 cf 00  	slli	s0, t5, 12
800058ee: 13 96 6e 00  	slli	a2, t4, 6
800058f2: c1 8f        	or	a5, a5, s0
800058f4: 5d 8e        	or	a2, a2, a5
800058f6: 33 66 f6 01  	or	a2, a2, t6
800058fa: 63 08 56 0c  	beq	a2, t0, 208 <core::fmt::Formatter::pad::hcc8646e0ded6ea87+0x14c>
800058fe: 33 85 a4 40  	sub	a0, s1, a0
80005902: fd 16        	addi	a3, a3, -1
80005904: aa 95        	add	a1, a1, a0
80005906: 26 85        	add	a0, zero, s1
80005908: a5 c2        	beqz	a3, 96 <core::fmt::Formatter::pad::hcc8646e0ded6ea87+0xea>
8000590a: 63 00 a7 0c  	beq	a4, a0, 192 <core::fmt::Formatter::pad::hcc8646e0ded6ea87+0x14c>
8000590e: 03 06 05 00  	lb	a2, 0(a0)
80005912: 93 04 15 00  	addi	s1, a0, 1
80005916: e3 44 ce fe  	blt	t3, a2, -24 <core::fmt::Formatter::pad::hcc8646e0ded6ea87+0x80>
8000591a: 93 77 f6 0f  	andi	a5, a2, 255
8000591e: 63 8c e4 00  	beq	s1, a4, 24 <core::fmt::Formatter::pad::hcc8646e0ded6ea87+0xb8>
80005922: 03 46 15 00  	lbu	a2, 1(a0)
80005926: 93 04 25 00  	addi	s1, a0, 2
8000592a: 13 7f f6 03  	andi	t5, a2, 63
8000592e: 26 86        	add	a2, zero, s1
80005930: e3 e7 77 fc  	bltu	a5, t2, -50 <core::fmt::Formatter::pad::hcc8646e0ded6ea87+0x80>
80005934: 29 a0        	j	10 <core::fmt::Formatter::pad::hcc8646e0ded6ea87+0xc0>
80005936: 01 4f        	mv	t5, zero
80005938: 3a 86        	add	a2, zero, a4
8000593a: e3 e2 77 fc  	bltu	a5, t2, -60 <core::fmt::Formatter::pad::hcc8646e0ded6ea87+0x80>
8000593e: 63 0c e6 00  	beq	a2, a4, 24 <core::fmt::Formatter::pad::hcc8646e0ded6ea87+0xd8>
80005942: 03 44 06 00  	lbu	s0, 0(a2)
80005946: 93 04 16 00  	addi	s1, a2, 1
8000594a: 93 7e f4 03  	andi	t4, s0, 63
8000594e: 26 86        	add	a2, zero, s1
80005950: e3 e7 67 fa  	bltu	a5, t1, -82 <core::fmt::Formatter::pad::hcc8646e0ded6ea87+0x80>
80005954: 29 a0        	j	10 <core::fmt::Formatter::pad::hcc8646e0ded6ea87+0xe0>
80005956: 81 4e        	mv	t4, zero
80005958: 3a 86        	add	a2, zero, a4
8000595a: e3 e2 67 fa  	bltu	a5, t1, -92 <core::fmt::Formatter::pad::hcc8646e0ded6ea87+0x80>
8000595e: e3 1d e6 f6  	bne	a2, a4, -134 <core::fmt::Formatter::pad::hcc8646e0ded6ea87+0x5a>
80005962: 81 4f        	mv	t6, zero
80005964: 41 b7        	j	-128 <core::fmt::Formatter::pad::hcc8646e0ded6ea87+0x66>
80005966: ca 84        	add	s1, zero, s2
80005968: 63 01 97 06  	beq	a4, s1, 98 <core::fmt::Formatter::pad::hcc8646e0ded6ea87+0x14c>
8000596c: 03 85 04 00  	lb	a0, 0(s1)
80005970: 7d 56        	addi	a2, zero, -1
80005972: 63 57 a6 02  	bge	a2, a0, 46 <core::fmt::Formatter::pad::hcc8646e0ded6ea87+0x122>
80005976: 13 b5 15 00  	seqz	a0, a1
8000597a: 33 c6 35 01  	xor	a2, a1, s3
8000597e: 13 36 16 00  	seqz	a2, a2
80005982: 51 8d        	or	a0, a0, a2
80005984: 19 e9        	bnez	a0, 22 <core::fmt::Formatter::pad::hcc8646e0ded6ea87+0x11c>
80005986: 63 fe 35 03  	bgeu	a1, s3, 60 <core::fmt::Formatter::pad::hcc8646e0ded6ea87+0x144>
8000598a: 33 05 b9 00  	add	a0, s2, a1
8000598e: 03 05 05 00  	lb	a0, 0(a0)
80005992: 13 06 00 fc  	addi	a2, zero, -64
80005996: 63 46 c5 02  	blt	a0, a2, 44 <core::fmt::Formatter::pad::hcc8646e0ded6ea87+0x144>
8000599a: 4a 85        	add	a0, zero, s2
8000599c: 0d e5        	bnez	a0, 42 <core::fmt::Formatter::pad::hcc8646e0ded6ea87+0x148>
8000599e: 35 a0        	j	44 <core::fmt::Formatter::pad::hcc8646e0ded6ea87+0x14c>
800059a0: 13 86 14 00  	addi	a2, s1, 1
800059a4: 13 75 f5 0f  	andi	a0, a0, 255
800059a8: 63 01 e6 14  	beq	a2, a4, 322 <core::fmt::Formatter::pad::hcc8646e0ded6ea87+0x26c>
800059ac: 83 c6 14 00  	lbu	a3, 1(s1)
800059b0: 13 86 24 00  	addi	a2, s1, 2
800059b4: 93 f6 f6 03  	andi	a3, a3, 63
800059b8: 93 07 00 0e  	addi	a5, zero, 224
800059bc: 63 7d f5 12  	bgeu	a0, a5, 314 <core::fmt::Formatter::pad::hcc8646e0ded6ea87+0x278>
800059c0: 5d bf        	j	-74 <core::fmt::Formatter::pad::hcc8646e0ded6ea87+0xf8>
800059c2: 01 45        	mv	a0, zero
800059c4: 19 c1        	beqz	a0, 6 <core::fmt::Formatter::pad::hcc8646e0ded6ea87+0x14c>
800059c6: 2a 89        	add	s2, zero, a0
800059c8: ae 89        	add	s3, zero, a1
800059ca: 63 00 08 08  	beqz	a6, 128 <core::fmt::Formatter::pad::hcc8646e0ded6ea87+0x1cc>
800059ce: 63 87 09 04  	beqz	s3, 78 <core::fmt::Formatter::pad::hcc8646e0ded6ea87+0x19e>
800059d2: 81 45        	mv	a1, zero
800059d4: 4e 85        	add	a0, zero, s3
800059d6: 4a 86        	add	a2, zero, s2
800059d8: 83 46 06 00  	lbu	a3, 0(a2)
800059dc: 05 06        	addi	a2, a2, 1
800059de: 93 f6 06 0c  	andi	a3, a3, 192
800059e2: 93 86 06 f8  	addi	a3, a3, -128
800059e6: 93 b6 16 00  	seqz	a3, a3
800059ea: 7d 15        	addi	a0, a0, -1
800059ec: b6 95        	add	a1, a1, a3
800059ee: 6d f5        	bnez	a0, -22 <core::fmt::Formatter::pad::hcc8646e0ded6ea87+0x15a>
800059f0: 03 35 8b 00  	ld	a0, 8(s6)
800059f4: b3 85 b9 40  	sub	a1, s3, a1
800059f8: 63 f9 a5 04  	bgeu	a1, a0, 82 <core::fmt::Formatter::pad::hcc8646e0ded6ea87+0x1cc>
800059fc: 81 45        	mv	a1, zero
800059fe: 4e 86        	add	a2, zero, s3
80005a00: ca 86        	add	a3, zero, s2
80005a02: 03 c7 06 00  	lbu	a4, 0(a3)
80005a06: 85 06        	addi	a3, a3, 1
80005a08: 13 77 07 0c  	andi	a4, a4, 192
80005a0c: 13 07 07 f8  	addi	a4, a4, -128
80005a10: 13 37 17 00  	seqz	a4, a4
80005a14: 7d 16        	addi	a2, a2, -1
80005a16: ba 95        	add	a1, a1, a4
80005a18: 6d f6        	bnez	a2, -22 <core::fmt::Formatter::pad::hcc8646e0ded6ea87+0x184>
80005a1a: 29 a0        	j	10 <core::fmt::Formatter::pad::hcc8646e0ded6ea87+0x1a6>
80005a1c: 03 35 8b 00  	ld	a0, 8(s6)
80005a20: 81 45        	mv	a1, zero
80005a22: 05 c5        	beqz	a0, 40 <core::fmt::Formatter::pad::hcc8646e0ded6ea87+0x1cc>
80005a24: 83 46 8b 03  	lbu	a3, 56(s6)
80005a28: 01 47        	mv	a4, zero
80005a2a: 8d 47        	addi	a5, zero, 3
80005a2c: 33 86 35 41  	sub	a2, a1, s3
80005a30: 63 83 f6 00  	beq	a3, a5, 6 <core::fmt::Formatter::pad::hcc8646e0ded6ea87+0x1b8>
80005a34: 36 87        	add	a4, zero, a3
80005a36: 93 75 37 00  	andi	a1, a4, 3
80005a3a: 85 46        	addi	a3, zero, 1
80005a3c: 32 95        	add	a0, a0, a2
80005a3e: 63 c7 b6 02  	blt	a3, a1, 46 <core::fmt::Formatter::pad::hcc8646e0ded6ea87+0x1ee>
80005a42: 85 e9        	bnez	a1, 48 <core::fmt::Formatter::pad::hcc8646e0ded6ea87+0x1f4>
80005a44: aa 8a        	add	s5, zero, a0
80005a46: 01 45        	mv	a0, zero
80005a48: 25 a8        	j	56 <core::fmt::Formatter::pad::hcc8646e0ded6ea87+0x202>
80005a4a: 83 35 8b 02  	ld	a1, 40(s6)
80005a4e: 03 35 0b 02  	ld	a0, 32(s6)
80005a52: 9c 6d        	ld	a5, 24(a1)
80005a54: ca 85        	add	a1, zero, s2
80005a56: 4e 86        	add	a2, zero, s3
80005a58: 02 6b        	ld	s6, 0(sp)
80005a5a: a2 6a        	ld	s5, 8(sp)
80005a5c: 42 6a        	ld	s4, 16(sp)
80005a5e: e2 69        	ld	s3, 24(sp)
80005a60: 02 79        	ld	s2, 32(sp)
80005a62: a2 74        	ld	s1, 40(sp)
80005a64: 42 74        	ld	s0, 48(sp)
80005a66: e2 70        	ld	ra, 56(sp)
80005a68: 21 61        	addi	sp, sp, 64
80005a6a: 82 87        	jr	a5
80005a6c: 0d 46        	addi	a2, zero, 3
80005a6e: 63 94 c5 00  	bne	a1, a2, 8 <core::fmt::Formatter::pad::hcc8646e0ded6ea87+0x1f8>
80005a72: 81 4a        	mv	s5, zero
80005a74: 31 a0        	j	12 <core::fmt::Formatter::pad::hcc8646e0ded6ea87+0x202>
80005a76: 93 05 15 00  	addi	a1, a0, 1
80005a7a: 05 81        	srli	a0, a0, 1
80005a7c: 93 da 15 00  	srli	s5, a1, 1
80005a80: 93 04 15 00  	addi	s1, a0, 1
80005a84: fd 14        	addi	s1, s1, -1
80005a86: 81 cc        	beqz	s1, 24 <core::fmt::Formatter::pad::hcc8646e0ded6ea87+0x220>
80005a88: 83 35 8b 02  	ld	a1, 40(s6)
80005a8c: 03 35 0b 02  	ld	a0, 32(s6)
80005a90: 90 71        	ld	a2, 32(a1)
80005a92: 83 25 4b 03  	lw	a1, 52(s6)
80005a96: 02 96        	jalr	a2
80005a98: 75 d5        	beqz	a0, -20 <core::fmt::Formatter::pad::hcc8646e0ded6ea87+0x206>
80005a9a: 05 49        	addi	s2, zero, 1
80005a9c: 25 a8        	j	56 <core::fmt::Formatter::pad::hcc8646e0ded6ea87+0x256>
80005a9e: 83 35 8b 02  	ld	a1, 40(s6)
80005aa2: 03 6a 4b 03  	lwu	s4, 52(s6)
80005aa6: 03 35 0b 02  	ld	a0, 32(s6)
80005aaa: 94 6d        	ld	a3, 24(a1)
80005aac: ca 85        	add	a1, zero, s2
80005aae: 4e 86        	add	a2, zero, s3
80005ab0: 82 96        	jalr	a3
80005ab2: 05 49        	addi	s2, zero, 1
80005ab4: 05 e1        	bnez	a0, 32 <core::fmt::Formatter::pad::hcc8646e0ded6ea87+0x256>
80005ab6: 83 39 0b 02  	ld	s3, 32(s6)
80005aba: 03 34 8b 02  	ld	s0, 40(s6)
80005abe: 93 84 1a 00  	addi	s1, s5, 1
80005ac2: fd 14        	addi	s1, s1, -1
80005ac4: 99 c4        	beqz	s1, 14 <core::fmt::Formatter::pad::hcc8646e0ded6ea87+0x254>
80005ac6: 10 70        	ld	a2, 32(s0)
80005ac8: 4e 85        	add	a0, zero, s3
80005aca: d2 85        	add	a1, zero, s4
80005acc: 02 96        	jalr	a2
80005ace: 75 d9        	beqz	a0, -12 <core::fmt::Formatter::pad::hcc8646e0ded6ea87+0x244>
80005ad0: 11 a0        	j	4 <core::fmt::Formatter::pad::hcc8646e0ded6ea87+0x256>
80005ad2: 01 49        	mv	s2, zero
80005ad4: 4a 85        	add	a0, zero, s2
80005ad6: 02 6b        	ld	s6, 0(sp)
80005ad8: a2 6a        	ld	s5, 8(sp)
80005ada: 42 6a        	ld	s4, 16(sp)
80005adc: e2 69        	ld	s3, 24(sp)
80005ade: 02 79        	ld	s2, 32(sp)
80005ae0: a2 74        	ld	s1, 40(sp)
80005ae2: 42 74        	ld	s0, 48(sp)
80005ae4: e2 70        	ld	ra, 56(sp)
80005ae6: 21 61        	addi	sp, sp, 64
80005ae8: 82 80        	ret
80005aea: 81 46        	mv	a3, zero
80005aec: 3a 86        	add	a2, zero, a4
80005aee: 93 07 00 0e  	addi	a5, zero, 224
80005af2: e3 62 f5 e8  	bltu	a0, a5, -380 <core::fmt::Formatter::pad::hcc8646e0ded6ea87+0xf8>
80005af6: 63 0d e6 00  	beq	a2, a4, 26 <core::fmt::Formatter::pad::hcc8646e0ded6ea87+0x292>
80005afa: 83 44 06 00  	lbu	s1, 0(a2)
80005afe: 93 07 16 00  	addi	a5, a2, 1
80005b02: 13 f6 f4 03  	andi	a2, s1, 63
80005b06: 93 04 00 0f  	addi	s1, zero, 240
80005b0a: 63 79 95 00  	bgeu	a0, s1, 18 <core::fmt::Formatter::pad::hcc8646e0ded6ea87+0x29e>
80005b0e: a5 b5        	j	-408 <core::fmt::Formatter::pad::hcc8646e0ded6ea87+0xf8>
80005b10: 01 46        	mv	a2, zero
80005b12: ba 87        	add	a5, zero, a4
80005b14: 93 04 00 0f  	addi	s1, zero, 240
80005b18: e3 6f 95 e4  	bltu	a0, s1, -418 <core::fmt::Formatter::pad::hcc8646e0ded6ea87+0xf8>
80005b1c: 63 87 e7 00  	beq	a5, a4, 14 <core::fmt::Formatter::pad::hcc8646e0ded6ea87+0x2ac>
80005b20: 03 c7 07 00  	lbu	a4, 0(a5)
80005b24: 13 77 f7 03  	andi	a4, a4, 63
80005b28: 11 a0        	j	4 <core::fmt::Formatter::pad::hcc8646e0ded6ea87+0x2ae>
80005b2a: 01 47        	mv	a4, zero
80005b2c: 4a 05        	slli	a0, a0, 18
80005b2e: b7 07 1c 00  	lui	a5, 448
80005b32: 7d 8d        	and	a0, a0, a5
80005b34: b2 06        	slli	a3, a3, 12
80005b36: 1a 06        	slli	a2, a2, 6
80005b38: 55 8d        	or	a0, a0, a3
80005b3a: 51 8d        	or	a0, a0, a2
80005b3c: 59 8d        	or	a0, a0, a4
80005b3e: 37 06 11 00  	lui	a2, 272
80005b42: e3 04 c5 e8  	beq	a0, a2, -376 <core::fmt::Formatter::pad::hcc8646e0ded6ea87+0x14c>
80005b46: 05 bd        	j	-464 <core::fmt::Formatter::pad::hcc8646e0ded6ea87+0xf8>

0000000080005b48 <core::fmt::Formatter::debug_tuple::h33e702ebb7966d6c>:
80005b48: 01 11        	addi	sp, sp, -32
80005b4a: 06 ec        	sd	ra, 24(sp)
80005b4c: 22 e8        	sd	s0, 16(sp)
80005b4e: 26 e4        	sd	s1, 8(sp)
80005b50: 4a e0        	sd	s2, 0(sp)
80005b52: 2e 84        	add	s0, zero, a1
80005b54: 98 75        	ld	a4, 40(a1)
80005b56: 8c 71        	ld	a1, 32(a1)
80005b58: 18 6f        	ld	a4, 24(a4)
80005b5a: 36 89        	add	s2, zero, a3
80005b5c: aa 84        	add	s1, zero, a0
80005b5e: 2e 85        	add	a0, zero, a1
80005b60: b2 85        	add	a1, zero, a2
80005b62: 36 86        	add	a2, zero, a3
80005b64: 02 97        	jalr	a4
80005b66: 93 35 19 00  	seqz	a1, s2
80005b6a: 80 e0        	sd	s0, 0(s1)
80005b6c: 23 88 a4 00  	sb	a0, 16(s1)
80005b70: 23 b4 04 00  	sd	zero, 8(s1)
80005b74: a3 88 b4 00  	sb	a1, 17(s1)
80005b78: 02 69        	ld	s2, 0(sp)
80005b7a: a2 64        	ld	s1, 8(sp)
80005b7c: 42 64        	ld	s0, 16(sp)
80005b7e: e2 60        	ld	ra, 24(sp)
80005b80: 05 61        	addi	sp, sp, 32
80005b82: 82 80        	ret

0000000080005b84 <<str as core::fmt::Display>::fmt::h669958e415ffd666>:
80005b84: ae 86        	add	a3, zero, a1
80005b86: aa 85        	add	a1, zero, a0
80005b88: 32 85        	add	a0, zero, a2
80005b8a: 36 86        	add	a2, zero, a3
80005b8c: 17 03 00 00  	auipc	t1, 0
80005b90: 67 00 23 cf  	jr	-782(t1)

0000000080005b94 <core::slice::index::slice_start_index_len_fail::h43348ae2a84bde06>:
80005b94: 59 71        	addi	sp, sp, -112
80005b96: 86 f4        	sd	ra, 104(sp)
80005b98: 2a e4        	sd	a0, 8(sp)
80005b9a: 2e e8        	sd	a1, 16(sp)
80005b9c: 28 00        	addi	a0, sp, 8
80005b9e: aa e4        	sd	a0, 72(sp)

0000000080005ba0 <.LBB205_1>:
80005ba0: 17 05 00 00  	auipc	a0, 0
80005ba4: 13 05 c5 3e  	addi	a0, a0, 1004
80005ba8: aa e8        	sd	a0, 80(sp)
80005baa: 0c 08        	addi	a1, sp, 16
80005bac: ae ec        	sd	a1, 88(sp)
80005bae: aa f0        	sd	a0, 96(sp)

0000000080005bb0 <.LBB205_2>:
80005bb0: 17 25 00 00  	auipc	a0, 2
80005bb4: 13 05 85 d3  	addi	a0, a0, -712
80005bb8: 2a ec        	sd	a0, 24(sp)
80005bba: 09 45        	addi	a0, zero, 2
80005bbc: 2a f0        	sd	a0, 32(sp)
80005bbe: 02 f4        	sd	zero, 40(sp)
80005bc0: ac 00        	addi	a1, sp, 72
80005bc2: 2e fc        	sd	a1, 56(sp)
80005bc4: aa e0        	sd	a0, 64(sp)
80005bc6: 28 08        	addi	a0, sp, 24
80005bc8: b2 85        	add	a1, zero, a2
80005bca: 97 f0 ff ff  	auipc	ra, 1048575
80005bce: e7 80 c0 7b  	jalr	1980(ra)
80005bd2: 00 00        	unimp	

0000000080005bd4 <core::slice::index::slice_end_index_len_fail::h397499141087200a>:
80005bd4: 59 71        	addi	sp, sp, -112
80005bd6: 86 f4        	sd	ra, 104(sp)
80005bd8: 2a e4        	sd	a0, 8(sp)
80005bda: 2e e8        	sd	a1, 16(sp)
80005bdc: 28 00        	addi	a0, sp, 8
80005bde: aa e4        	sd	a0, 72(sp)

0000000080005be0 <.LBB206_1>:
80005be0: 17 05 00 00  	auipc	a0, 0
80005be4: 13 05 c5 3a  	addi	a0, a0, 940
80005be8: aa e8        	sd	a0, 80(sp)
80005bea: 0c 08        	addi	a1, sp, 16
80005bec: ae ec        	sd	a1, 88(sp)
80005bee: aa f0        	sd	a0, 96(sp)

0000000080005bf0 <.LBB206_2>:
80005bf0: 17 25 00 00  	auipc	a0, 2
80005bf4: 13 05 85 d1  	addi	a0, a0, -744
80005bf8: 2a ec        	sd	a0, 24(sp)
80005bfa: 09 45        	addi	a0, zero, 2
80005bfc: 2a f0        	sd	a0, 32(sp)
80005bfe: 02 f4        	sd	zero, 40(sp)
80005c00: ac 00        	addi	a1, sp, 72
80005c02: 2e fc        	sd	a1, 56(sp)
80005c04: aa e0        	sd	a0, 64(sp)
80005c06: 28 08        	addi	a0, sp, 24
80005c08: b2 85        	add	a1, zero, a2
80005c0a: 97 f0 ff ff  	auipc	ra, 1048575
80005c0e: e7 80 c0 77  	jalr	1916(ra)
80005c12: 00 00        	unimp	

0000000080005c14 <core::slice::index::slice_index_order_fail::h17f07731262cfc7f>:
80005c14: 59 71        	addi	sp, sp, -112
80005c16: 86 f4        	sd	ra, 104(sp)
80005c18: 2a e4        	sd	a0, 8(sp)
80005c1a: 2e e8        	sd	a1, 16(sp)
80005c1c: 28 00        	addi	a0, sp, 8
80005c1e: aa e4        	sd	a0, 72(sp)

0000000080005c20 <.LBB207_1>:
80005c20: 17 05 00 00  	auipc	a0, 0
80005c24: 13 05 c5 36  	addi	a0, a0, 876
80005c28: aa e8        	sd	a0, 80(sp)
80005c2a: 0c 08        	addi	a1, sp, 16
80005c2c: ae ec        	sd	a1, 88(sp)
80005c2e: aa f0        	sd	a0, 96(sp)

0000000080005c30 <.LBB207_2>:
80005c30: 17 25 00 00  	auipc	a0, 2
80005c34: 13 05 05 d2  	addi	a0, a0, -736
80005c38: 2a ec        	sd	a0, 24(sp)
80005c3a: 09 45        	addi	a0, zero, 2
80005c3c: 2a f0        	sd	a0, 32(sp)
80005c3e: 02 f4        	sd	zero, 40(sp)
80005c40: ac 00        	addi	a1, sp, 72
80005c42: 2e fc        	sd	a1, 56(sp)
80005c44: aa e0        	sd	a0, 64(sp)
80005c46: 28 08        	addi	a0, sp, 24
80005c48: b2 85        	add	a1, zero, a2
80005c4a: 97 f0 ff ff  	auipc	ra, 1048575
80005c4e: e7 80 c0 73  	jalr	1852(ra)
80005c52: 00 00        	unimp	

0000000080005c54 <core::fmt::num::<impl core::fmt::UpperHex for u32>::fmt::h4f4cc2dd857f987c>:
80005c54: 75 71        	addi	sp, sp, -144
80005c56: 06 e5        	sd	ra, 136(sp)
80005c58: 2e 88        	add	a6, zero, a1
80005c5a: 81 45        	mv	a1, zero
80005c5c: 03 67 05 00  	lwu	a4, 0(a0)
80005c60: 93 08 81 00  	addi	a7, sp, 8
80005c64: 37 05 00 10  	lui	a0, 65536
80005c68: 7d 35        	addiw	a0, a0, -1
80005c6a: a9 42        	addi	t0, zero, 10
80005c6c: 39 a0        	j	14 <core::fmt::num::<impl core::fmt::UpperHex for u32>::fmt::h4f4cc2dd857f987c+0x26>
80005c6e: 13 06 76 03  	addi	a2, a2, 55
80005c72: a3 8f c7 06  	sb	a2, 127(a5)
80005c76: fd 15        	addi	a1, a1, -1
80005c78: 0d c3        	beqz	a4, 34 <core::fmt::num::<impl core::fmt::UpperHex for u32>::fmt::h4f4cc2dd857f987c+0x46>
80005c7a: b3 87 b8 00  	add	a5, a7, a1
80005c7e: 93 56 47 00  	srli	a3, a4, 4
80005c82: 13 76 f7 00  	andi	a2, a4, 15
80005c86: 33 f7 a6 00  	and	a4, a3, a0
80005c8a: e3 72 56 fe  	bgeu	a2, t0, -28 <core::fmt::num::<impl core::fmt::UpperHex for u32>::fmt::h4f4cc2dd857f987c+0x1a>
80005c8e: 13 66 06 03  	ori	a2, a2, 48
80005c92: a3 8f c7 06  	sb	a2, 127(a5)
80005c96: fd 15        	addi	a1, a1, -1
80005c98: 6d f3        	bnez	a4, -30 <core::fmt::num::<impl core::fmt::UpperHex for u32>::fmt::h4f4cc2dd857f987c+0x26>
80005c9a: 13 85 05 08  	addi	a0, a1, 128
80005c9e: 13 06 10 08  	addi	a2, zero, 129
80005ca2: 63 76 c5 02  	bgeu	a0, a2, 44 <.LBB453_8>
80005ca6: b3 07 b0 40  	neg	a5, a1
80005caa: 33 85 b8 00  	add	a0, a7, a1
80005cae: 13 07 05 08  	addi	a4, a0, 128

0000000080005cb2 <.LBB453_7>:
80005cb2: 17 26 00 00  	auipc	a2, 2
80005cb6: 13 06 86 b3  	addi	a2, a2, -1224
80005cba: 85 45        	addi	a1, zero, 1
80005cbc: 89 46        	addi	a3, zero, 2
80005cbe: 42 85        	add	a0, zero, a6
80005cc0: 97 00 00 00  	auipc	ra, 0
80005cc4: e7 80 e0 92  	jalr	-1746(ra)
80005cc8: aa 60        	ld	ra, 136(sp)
80005cca: 49 61        	addi	sp, sp, 144
80005ccc: 82 80        	ret

0000000080005cce <.LBB453_8>:
80005cce: 17 26 00 00  	auipc	a2, 2
80005cd2: 13 06 26 b0  	addi	a2, a2, -1278
80005cd6: 93 05 00 08  	addi	a1, zero, 128
80005cda: 97 00 00 00  	auipc	ra, 0
80005cde: e7 80 a0 eb  	jalr	-326(ra)
80005ce2: 00 00        	unimp	

0000000080005ce4 <core::fmt::num::<impl core::fmt::Binary for usize>::fmt::h890a97296b1652f4>:
80005ce4: 75 71        	addi	sp, sp, -144
80005ce6: 06 e5        	sd	ra, 136(sp)
80005ce8: 14 61        	ld	a3, 0(a0)
80005cea: 2e 85        	add	a0, zero, a1
80005cec: 81 45        	mv	a1, zero
80005cee: 30 00        	addi	a2, sp, 8
80005cf0: 33 07 b6 00  	add	a4, a2, a1
80005cf4: 93 d7 16 00  	srli	a5, a3, 1
80005cf8: 85 8a        	andi	a3, a3, 1
80005cfa: 93 e6 06 03  	ori	a3, a3, 48
80005cfe: a3 0f d7 06  	sb	a3, 127(a4)
80005d02: fd 15        	addi	a1, a1, -1
80005d04: be 86        	add	a3, zero, a5
80005d06: ed f7        	bnez	a5, -22 <core::fmt::num::<impl core::fmt::Binary for usize>::fmt::h890a97296b1652f4+0xc>
80005d08: 93 86 05 08  	addi	a3, a1, 128
80005d0c: 13 07 10 08  	addi	a4, zero, 129
80005d10: 63 f4 e6 02  	bgeu	a3, a4, 40 <.LBB454_6>
80005d14: b3 07 b0 40  	neg	a5, a1
80005d18: b2 95        	add	a1, a1, a2
80005d1a: 13 87 05 08  	addi	a4, a1, 128

0000000080005d1e <.LBB454_5>:
80005d1e: 17 26 00 00  	auipc	a2, 2
80005d22: 13 06 a6 ac  	addi	a2, a2, -1334
80005d26: 85 45        	addi	a1, zero, 1
80005d28: 89 46        	addi	a3, zero, 2
80005d2a: 97 00 00 00  	auipc	ra, 0
80005d2e: e7 80 40 8c  	jalr	-1852(ra)
80005d32: aa 60        	ld	ra, 136(sp)
80005d34: 49 61        	addi	sp, sp, 144
80005d36: 82 80        	ret

0000000080005d38 <.LBB454_6>:
80005d38: 17 26 00 00  	auipc	a2, 2
80005d3c: 13 06 86 a9  	addi	a2, a2, -1384
80005d40: 93 05 00 08  	addi	a1, zero, 128
80005d44: 36 85        	add	a0, zero, a3
80005d46: 97 00 00 00  	auipc	ra, 0
80005d4a: e7 80 e0 e4  	jalr	-434(ra)
80005d4e: 00 00        	unimp	

0000000080005d50 <core::fmt::num::<impl core::fmt::LowerHex for usize>::fmt::h8027222638df1206>:
80005d50: 75 71        	addi	sp, sp, -144
80005d52: 06 e5        	sd	ra, 136(sp)
80005d54: 14 61        	ld	a3, 0(a0)
80005d56: 2e 85        	add	a0, zero, a1
80005d58: 81 45        	mv	a1, zero
80005d5a: 13 08 81 00  	addi	a6, sp, 8
80005d5e: 29 47        	addi	a4, zero, 10
80005d60: 39 a0        	j	14 <core::fmt::num::<impl core::fmt::LowerHex for usize>::fmt::h8027222638df1206+0x1e>
80005d62: 13 06 76 05  	addi	a2, a2, 87
80005d66: a3 8f c7 06  	sb	a2, 127(a5)
80005d6a: fd 15        	addi	a1, a1, -1
80005d6c: 91 ce        	beqz	a3, 28 <core::fmt::num::<impl core::fmt::LowerHex for usize>::fmt::h8027222638df1206+0x38>
80005d6e: b3 07 b8 00  	add	a5, a6, a1
80005d72: 13 f6 f6 00  	andi	a2, a3, 15
80005d76: 91 82        	srli	a3, a3, 4
80005d78: e3 75 e6 fe  	bgeu	a2, a4, -22 <core::fmt::num::<impl core::fmt::LowerHex for usize>::fmt::h8027222638df1206+0x12>
80005d7c: 13 66 06 03  	ori	a2, a2, 48
80005d80: a3 8f c7 06  	sb	a2, 127(a5)
80005d84: fd 15        	addi	a1, a1, -1
80005d86: e5 f6        	bnez	a3, -24 <core::fmt::num::<impl core::fmt::LowerHex for usize>::fmt::h8027222638df1206+0x1e>
80005d88: 93 86 05 08  	addi	a3, a1, 128
80005d8c: 13 06 10 08  	addi	a2, zero, 129
80005d90: 63 f4 c6 02  	bgeu	a3, a2, 40 <.LBB456_8>
80005d94: b3 07 b0 40  	neg	a5, a1
80005d98: c2 95        	add	a1, a1, a6
80005d9a: 13 87 05 08  	addi	a4, a1, 128

0000000080005d9e <.LBB456_7>:
80005d9e: 17 26 00 00  	auipc	a2, 2
80005da2: 13 06 c6 a4  	addi	a2, a2, -1460
80005da6: 85 45        	addi	a1, zero, 1
80005da8: 89 46        	addi	a3, zero, 2
80005daa: 97 00 00 00  	auipc	ra, 0
80005dae: e7 80 40 84  	jalr	-1980(ra)
80005db2: aa 60        	ld	ra, 136(sp)
80005db4: 49 61        	addi	sp, sp, 144
80005db6: 82 80        	ret

0000000080005db8 <.LBB456_8>:
80005db8: 17 26 00 00  	auipc	a2, 2
80005dbc: 13 06 86 a1  	addi	a2, a2, -1512
80005dc0: 93 05 00 08  	addi	a1, zero, 128
80005dc4: 36 85        	add	a0, zero, a3
80005dc6: 97 00 00 00  	auipc	ra, 0
80005dca: e7 80 e0 dc  	jalr	-562(ra)
80005dce: 00 00        	unimp	

0000000080005dd0 <core::fmt::num::imp::<impl core::fmt::Display for u32>::fmt::h4f29d8511ba5e68e>:
80005dd0: 5d 71        	addi	sp, sp, -80
80005dd2: 86 e4        	sd	ra, 72(sp)
80005dd4: a2 e0        	sd	s0, 64(sp)
80005dd6: 26 fc        	sd	s1, 56(sp)
80005dd8: 4a f8        	sd	s2, 48(sp)
80005dda: 03 69 05 00  	lwu	s2, 0(a0)
80005dde: 2e 85        	add	a0, zero, a1
80005de0: 93 55 49 00  	srli	a1, s2, 4
80005de4: 93 06 70 02  	addi	a3, zero, 39
80005de8: 13 07 10 27  	addi	a4, zero, 625

0000000080005dec <.LBB468_10>:
80005dec: 17 28 00 00  	auipc	a6, 2
80005df0: 13 08 08 a0  	addi	a6, a6, -1536
80005df4: 63 f3 e5 02  	bgeu	a1, a4, 38 <.LBB468_10+0x2e>
80005df8: 93 05 30 06  	addi	a1, zero, 99
80005dfc: 63 e0 25 0f  	bltu	a1, s2, 224 <.LBB468_10+0xf0>
80005e00: a9 45        	addi	a1, zero, 10
80005e02: 63 5d b9 12  	bge	s2, a1, 314 <.LBB468_10+0x150>
80005e06: 93 85 f6 ff  	addi	a1, a3, -1
80005e0a: 13 06 91 00  	addi	a2, sp, 9
80005e0e: 2e 96        	add	a2, a2, a1
80005e10: 93 06 09 03  	addi	a3, s2, 48
80005e14: 23 00 d6 00  	sb	a3, 0(a2)
80005e18: 91 a2        	j	324 <.LBB468_10+0x170>
80005e1a: 81 46        	mv	a3, zero
80005e1c: b7 35 1a 00  	lui	a1, 419
80005e20: 9b 85 35 6e  	addiw	a1, a1, 1763
80005e24: ba 05        	slli	a1, a1, 14
80005e26: 93 85 75 ac  	addi	a1, a1, -1337
80005e2a: ba 05        	slli	a1, a1, 14
80005e2c: 93 85 35 43  	addi	a1, a1, 1075
80005e30: b6 05        	slli	a1, a1, 13
80005e32: 93 88 b5 94  	addi	a7, a1, -1717
80005e36: 89 65        	lui	a1, 2
80005e38: 1b 83 05 71  	addiw	t1, a1, 1808
80005e3c: c1 65        	lui	a1, 16
80005e3e: 1b 8e c5 ff  	addiw	t3, a1, -4
80005e42: 37 f7 51 00  	lui	a4, 1311
80005e46: 1b 07 57 b8  	addiw	a4, a4, -1147
80005e4a: 36 07        	slli	a4, a4, 13
80005e4c: 13 07 77 3d  	addi	a4, a4, 983
80005e50: 3a 07        	slli	a4, a4, 14
80005e52: 13 07 f7 28  	addi	a4, a4, 655
80005e56: 32 07        	slli	a4, a4, 12
80005e58: 93 0e 37 5c  	addi	t4, a4, 1475
80005e5c: 93 02 40 06  	addi	t0, zero, 100
80005e60: 1b 8f e5 ff  	addiw	t5, a1, -2
80005e64: 93 03 91 00  	addi	t2, sp, 9
80005e68: b7 e5 f5 05  	lui	a1, 24414
80005e6c: 9b 8f f5 0f  	addiw	t6, a1, 255
80005e70: 4a 86        	add	a2, zero, s2
80005e72: b3 37 19 03  	<unknown>
80005e76: 13 d9 b7 00  	srli	s2, a5, 11
80005e7a: 33 07 69 02  	<unknown>
80005e7e: 33 07 e6 40  	sub	a4, a2, a4
80005e82: b3 75 c7 01  	and	a1, a4, t3
80005e86: 89 81        	srli	a1, a1, 2
80005e88: b3 b5 d5 03  	<unknown>
80005e8c: 89 81        	srli	a1, a1, 2
80005e8e: 13 94 15 00  	slli	s0, a1, 1
80005e92: b3 85 55 02  	<unknown>
80005e96: b3 05 b7 40  	sub	a1, a4, a1
80005e9a: 86 05        	slli	a1, a1, 1
80005e9c: b3 f5 e5 01  	and	a1, a1, t5
80005ea0: 33 07 04 01  	add	a4, s0, a6
80005ea4: 33 84 d3 00  	add	s0, t2, a3
80005ea8: 83 44 07 00  	lbu	s1, 0(a4)
80005eac: 03 07 17 00  	lb	a4, 1(a4)
80005eb0: c2 95        	add	a1, a1, a6
80005eb2: 83 87 15 00  	lb	a5, 1(a1)
80005eb6: 83 c5 05 00  	lbu	a1, 0(a1)
80005eba: 23 02 e4 02  	sb	a4, 36(s0)
80005ebe: a3 01 94 02  	sb	s1, 35(s0)
80005ec2: 23 03 f4 02  	sb	a5, 38(s0)
80005ec6: a3 02 b4 02  	sb	a1, 37(s0)
80005eca: f1 16        	addi	a3, a3, -4
80005ecc: e3 e2 cf fa  	bltu	t6, a2, -92 <.LBB468_10+0x84>
80005ed0: 93 86 76 02  	addi	a3, a3, 39
80005ed4: 93 05 30 06  	addi	a1, zero, 99
80005ed8: e3 f4 25 f3  	bgeu	a1, s2, -216 <.LBB468_10+0x14>
80005edc: c1 65        	lui	a1, 16
80005ede: 1b 86 c5 ff  	addiw	a2, a1, -4
80005ee2: 33 76 c9 00  	and	a2, s2, a2
80005ee6: 09 82        	srli	a2, a2, 2
80005ee8: 37 f7 51 00  	lui	a4, 1311
80005eec: 1b 07 57 b8  	addiw	a4, a4, -1147
80005ef0: 36 07        	slli	a4, a4, 13
80005ef2: 13 07 77 3d  	addi	a4, a4, 983
80005ef6: 3a 07        	slli	a4, a4, 14
80005ef8: 13 07 f7 28  	addi	a4, a4, 655
80005efc: 32 07        	slli	a4, a4, 12
80005efe: 13 07 37 5c  	addi	a4, a4, 1475
80005f02: 33 36 e6 02  	<unknown>
80005f06: 09 82        	srli	a2, a2, 2
80005f08: 13 07 40 06  	addi	a4, zero, 100
80005f0c: 33 07 e6 02  	<unknown>
80005f10: 33 07 e9 40  	sub	a4, s2, a4
80005f14: 06 07        	slli	a4, a4, 1
80005f16: f9 35        	addiw	a1, a1, -2
80005f18: f9 8d        	and	a1, a1, a4
80005f1a: f9 16        	addi	a3, a3, -2
80005f1c: c2 95        	add	a1, a1, a6
80005f1e: 03 87 15 00  	lb	a4, 1(a1)
80005f22: 83 c5 05 00  	lbu	a1, 0(a1)
80005f26: 93 07 91 00  	addi	a5, sp, 9
80005f2a: b6 97        	add	a5, a5, a3
80005f2c: a3 80 e7 00  	sb	a4, 1(a5)
80005f30: 23 80 b7 00  	sb	a1, 0(a5)
80005f34: 32 89        	add	s2, zero, a2
80005f36: a9 45        	addi	a1, zero, 10
80005f38: e3 47 b9 ec  	blt	s2, a1, -306 <.LBB468_10+0x1a>
80005f3c: 13 16 19 00  	slli	a2, s2, 1
80005f40: 93 85 e6 ff  	addi	a1, a3, -2
80005f44: 42 96        	add	a2, a2, a6
80005f46: 83 06 16 00  	lb	a3, 1(a2)
80005f4a: 03 46 06 00  	lbu	a2, 0(a2)
80005f4e: 13 07 91 00  	addi	a4, sp, 9
80005f52: 2e 97        	add	a4, a4, a1
80005f54: a3 00 d7 00  	sb	a3, 1(a4)
80005f58: 23 00 c7 00  	sb	a2, 0(a4)
80005f5c: 13 06 91 00  	addi	a2, sp, 9
80005f60: 33 07 b6 00  	add	a4, a2, a1
80005f64: 13 06 70 02  	addi	a2, zero, 39
80005f68: b3 07 b6 40  	sub	a5, a2, a1

0000000080005f6c <.LBB468_11>:
80005f6c: 17 16 00 00  	auipc	a2, 1
80005f70: 13 06 c6 7c  	addi	a2, a2, 1996
80005f74: 85 45        	addi	a1, zero, 1
80005f76: 81 46        	mv	a3, zero
80005f78: 97 f0 ff ff  	auipc	ra, 1048575
80005f7c: e7 80 60 67  	jalr	1654(ra)
80005f80: 42 79        	ld	s2, 48(sp)
80005f82: e2 74        	ld	s1, 56(sp)
80005f84: 06 64        	ld	s0, 64(sp)
80005f86: a6 60        	ld	ra, 72(sp)
80005f88: 61 61        	addi	sp, sp, 80
80005f8a: 82 80        	ret

0000000080005f8c <core::fmt::num::imp::<impl core::fmt::Display for usize>::fmt::h3ddc565198bd69ff>:
80005f8c: 5d 71        	addi	sp, sp, -80
80005f8e: 86 e4        	sd	ra, 72(sp)
80005f90: a2 e0        	sd	s0, 64(sp)
80005f92: 26 fc        	sd	s1, 56(sp)
80005f94: 4a f8        	sd	s2, 48(sp)
80005f96: 03 39 05 00  	ld	s2, 0(a0)
80005f9a: 2e 85        	add	a0, zero, a1
80005f9c: 93 55 49 00  	srli	a1, s2, 4
80005fa0: 93 06 70 02  	addi	a3, zero, 39
80005fa4: 13 07 10 27  	addi	a4, zero, 625

0000000080005fa8 <.LBB470_10>:
80005fa8: 17 28 00 00  	auipc	a6, 2
80005fac: 13 08 48 84  	addi	a6, a6, -1980
80005fb0: 63 f3 e5 02  	bgeu	a1, a4, 38 <.LBB470_10+0x2e>
80005fb4: 93 05 30 06  	addi	a1, zero, 99
80005fb8: 63 c0 25 0f  	blt	a1, s2, 224 <.LBB470_10+0xf0>
80005fbc: a9 45        	addi	a1, zero, 10
80005fbe: 63 5d b9 12  	bge	s2, a1, 314 <.LBB470_10+0x150>
80005fc2: 93 85 f6 ff  	addi	a1, a3, -1
80005fc6: 13 06 91 00  	addi	a2, sp, 9
80005fca: 2e 96        	add	a2, a2, a1
80005fcc: 93 06 09 03  	addi	a3, s2, 48
80005fd0: 23 00 d6 00  	sb	a3, 0(a2)
80005fd4: 91 a2        	j	324 <.LBB470_10+0x170>
80005fd6: 81 46        	mv	a3, zero
80005fd8: b7 35 1a 00  	lui	a1, 419
80005fdc: 9b 85 35 6e  	addiw	a1, a1, 1763
80005fe0: ba 05        	slli	a1, a1, 14
80005fe2: 93 85 75 ac  	addi	a1, a1, -1337
80005fe6: ba 05        	slli	a1, a1, 14
80005fe8: 93 85 35 43  	addi	a1, a1, 1075
80005fec: b6 05        	slli	a1, a1, 13
80005fee: 93 88 b5 94  	addi	a7, a1, -1717
80005ff2: 89 65        	lui	a1, 2
80005ff4: 1b 83 05 71  	addiw	t1, a1, 1808
80005ff8: c1 65        	lui	a1, 16
80005ffa: 1b 8e c5 ff  	addiw	t3, a1, -4
80005ffe: 37 f7 51 00  	lui	a4, 1311
80006002: 1b 07 57 b8  	addiw	a4, a4, -1147
80006006: 36 07        	slli	a4, a4, 13
80006008: 13 07 77 3d  	addi	a4, a4, 983
8000600c: 3a 07        	slli	a4, a4, 14
8000600e: 13 07 f7 28  	addi	a4, a4, 655
80006012: 32 07        	slli	a4, a4, 12
80006014: 93 0e 37 5c  	addi	t4, a4, 1475
80006018: 93 02 40 06  	addi	t0, zero, 100
8000601c: 1b 8f e5 ff  	addiw	t5, a1, -2
80006020: 93 03 91 00  	addi	t2, sp, 9
80006024: b7 e5 f5 05  	lui	a1, 24414
80006028: 9b 8f f5 0f  	addiw	t6, a1, 255
8000602c: 4a 86        	add	a2, zero, s2
8000602e: b3 37 19 03  	<unknown>
80006032: 13 d9 b7 00  	srli	s2, a5, 11
80006036: 33 07 69 02  	<unknown>
8000603a: 33 07 e6 40  	sub	a4, a2, a4
8000603e: b3 75 c7 01  	and	a1, a4, t3
80006042: 89 81        	srli	a1, a1, 2
80006044: b3 b5 d5 03  	<unknown>
80006048: 89 81        	srli	a1, a1, 2
8000604a: 13 94 15 00  	slli	s0, a1, 1
8000604e: b3 85 55 02  	<unknown>
80006052: b3 05 b7 40  	sub	a1, a4, a1
80006056: 86 05        	slli	a1, a1, 1
80006058: b3 f5 e5 01  	and	a1, a1, t5
8000605c: 33 07 04 01  	add	a4, s0, a6
80006060: 33 84 d3 00  	add	s0, t2, a3
80006064: 83 44 07 00  	lbu	s1, 0(a4)
80006068: 03 07 17 00  	lb	a4, 1(a4)
8000606c: c2 95        	add	a1, a1, a6
8000606e: 83 87 15 00  	lb	a5, 1(a1)
80006072: 83 c5 05 00  	lbu	a1, 0(a1)
80006076: 23 02 e4 02  	sb	a4, 36(s0)
8000607a: a3 01 94 02  	sb	s1, 35(s0)
8000607e: 23 03 f4 02  	sb	a5, 38(s0)
80006082: a3 02 b4 02  	sb	a1, 37(s0)
80006086: f1 16        	addi	a3, a3, -4
80006088: e3 e2 cf fa  	bltu	t6, a2, -92 <.LBB470_10+0x84>
8000608c: 93 86 76 02  	addi	a3, a3, 39
80006090: 93 05 30 06  	addi	a1, zero, 99
80006094: e3 d4 25 f3  	bge	a1, s2, -216 <.LBB470_10+0x14>
80006098: c1 65        	lui	a1, 16
8000609a: 1b 86 c5 ff  	addiw	a2, a1, -4
8000609e: 33 76 c9 00  	and	a2, s2, a2
800060a2: 09 82        	srli	a2, a2, 2
800060a4: 37 f7 51 00  	lui	a4, 1311
800060a8: 1b 07 57 b8  	addiw	a4, a4, -1147
800060ac: 36 07        	slli	a4, a4, 13
800060ae: 13 07 77 3d  	addi	a4, a4, 983
800060b2: 3a 07        	slli	a4, a4, 14
800060b4: 13 07 f7 28  	addi	a4, a4, 655
800060b8: 32 07        	slli	a4, a4, 12
800060ba: 13 07 37 5c  	addi	a4, a4, 1475
800060be: 33 36 e6 02  	<unknown>
800060c2: 09 82        	srli	a2, a2, 2
800060c4: 13 07 40 06  	addi	a4, zero, 100
800060c8: 33 07 e6 02  	<unknown>
800060cc: 33 07 e9 40  	sub	a4, s2, a4
800060d0: 06 07        	slli	a4, a4, 1
800060d2: f9 35        	addiw	a1, a1, -2
800060d4: f9 8d        	and	a1, a1, a4
800060d6: f9 16        	addi	a3, a3, -2
800060d8: c2 95        	add	a1, a1, a6
800060da: 03 87 15 00  	lb	a4, 1(a1)
800060de: 83 c5 05 00  	lbu	a1, 0(a1)
800060e2: 93 07 91 00  	addi	a5, sp, 9
800060e6: b6 97        	add	a5, a5, a3
800060e8: a3 80 e7 00  	sb	a4, 1(a5)
800060ec: 23 80 b7 00  	sb	a1, 0(a5)
800060f0: 32 89        	add	s2, zero, a2
800060f2: a9 45        	addi	a1, zero, 10
800060f4: e3 47 b9 ec  	blt	s2, a1, -306 <.LBB470_10+0x1a>
800060f8: 13 16 19 00  	slli	a2, s2, 1
800060fc: 93 85 e6 ff  	addi	a1, a3, -2
80006100: 42 96        	add	a2, a2, a6
80006102: 83 06 16 00  	lb	a3, 1(a2)
80006106: 03 46 06 00  	lbu	a2, 0(a2)
8000610a: 13 07 91 00  	addi	a4, sp, 9
8000610e: 2e 97        	add	a4, a4, a1
80006110: a3 00 d7 00  	sb	a3, 1(a4)
80006114: 23 00 c7 00  	sb	a2, 0(a4)
80006118: 13 06 91 00  	addi	a2, sp, 9
8000611c: 33 07 b6 00  	add	a4, a2, a1
80006120: 13 06 70 02  	addi	a2, zero, 39
80006124: b3 07 b6 40  	sub	a5, a2, a1

0000000080006128 <.LBB470_11>:
80006128: 17 16 00 00  	auipc	a2, 1
8000612c: 13 06 06 61  	addi	a2, a2, 1552
80006130: 85 45        	addi	a1, zero, 1
80006132: 81 46        	mv	a3, zero
80006134: 97 f0 ff ff  	auipc	ra, 1048575
80006138: e7 80 a0 4b  	jalr	1210(ra)
8000613c: 42 79        	ld	s2, 48(sp)
8000613e: e2 74        	ld	s1, 56(sp)
80006140: 06 64        	ld	s0, 64(sp)
80006142: a6 60        	ld	ra, 72(sp)
80006144: 61 61        	addi	sp, sp, 80
80006146: 82 80        	ret

0000000080006148 <memcpy>:
80006148: 11 ca        	beqz	a2, 20 <memcpy+0x14>
8000614a: aa 86        	add	a3, zero, a0
8000614c: 03 87 05 00  	lb	a4, 0(a1)
80006150: 23 80 e6 00  	sb	a4, 0(a3)
80006154: 7d 16        	addi	a2, a2, -1
80006156: 85 06        	addi	a3, a3, 1
80006158: 85 05        	addi	a1, a1, 1
8000615a: 6d fa        	bnez	a2, -14 <memcpy+0x4>
8000615c: 82 80        	ret
