
qor-userland/Internals/init/bin/init:	file format ELF64-riscv


Disassembly of section .text:

0000000000011780 setup_stdio:
   11780: 39 71                        	addi	sp, sp, -64
   11782: 06 fc                        	sd	ra, 56(sp)
   11784: 22 f8                        	sd	s0, 48(sp)
   11786: 80 00                        	addi	s0, sp, 64
   11788: 37 05 01 00                  	lui	a0, 16
   1178c: 13 05 75 5d                  	addi	a0, a0, 1495
   11790: 8d 45                        	addi	a1, zero, 3
   11792: 23 3c a4 fc                  	sd	a0, -40(s0)
   11796: 23 38 b4 fc                  	sd	a1, -48(s0)
   1179a: 97 20 00 00                  	auipc	ra, 2
   1179e: e7 80 20 2e                  	jalr	738(ra)
   117a2: 23 26 a4 fe                  	sw	a0, -20(s0)
   117a6: 37 05 01 00                  	lui	a0, 16
   117aa: 13 05 75 69                  	addi	a0, a0, 1687
   117ae: 83 35 04 fd                  	ld	a1, -48(s0)
   117b2: 97 20 00 00                  	auipc	ra, 2
   117b6: e7 80 a0 2c                  	jalr	714(ra)
   117ba: 23 24 a4 fe                  	sw	a0, -24(s0)
   117be: 03 35 84 fd                  	ld	a0, -40(s0)
   117c2: 83 35 04 fd                  	ld	a1, -48(s0)
   117c6: 97 20 00 00                  	auipc	ra, 2
   117ca: e7 80 60 2b                  	jalr	694(ra)
   117ce: 23 22 a4 fe                  	sw	a0, -28(s0)
   117d2: 03 25 c4 fe                  	lw	a0, -20(s0)
   117d6: 81 45                        	mv	a1, zero
   117d8: 97 20 00 00                  	auipc	ra, 2
   117dc: e7 80 60 2f                  	jalr	758(ra)
   117e0: 83 25 84 fe                  	lw	a1, -24(s0)
   117e4: 05 46                        	addi	a2, zero, 1
   117e6: 23 34 a4 fc                  	sd	a0, -56(s0)
   117ea: 2e 85                        	add	a0, zero, a1
   117ec: b2 85                        	add	a1, zero, a2
   117ee: 97 20 00 00                  	auipc	ra, 2
   117f2: e7 80 00 2e                  	jalr	736(ra)
   117f6: 83 25 44 fe                  	lw	a1, -28(s0)
   117fa: 09 46                        	addi	a2, zero, 2
   117fc: 23 30 a4 fc                  	sd	a0, -64(s0)
   11800: 2e 85                        	add	a0, zero, a1
   11802: b2 85                        	add	a1, zero, a2
   11804: 97 20 00 00                  	auipc	ra, 2
   11808: e7 80 a0 2c                  	jalr	714(ra)
   1180c: 42 74                        	ld	s0, 48(sp)
   1180e: e2 70                        	ld	ra, 56(sp)
   11810: 21 61                        	addi	sp, sp, 64
   11812: 82 80                        	ret

0000000000011814 compare_strings:
   11814: 01 11                        	addi	sp, sp, -32
   11816: 06 ec                        	sd	ra, 24(sp)
   11818: 22 e8                        	sd	s0, 16(sp)
   1181a: 00 10                        	addi	s0, sp, 32
   1181c: 23 34 a4 fe                  	sd	a0, -24(s0)
   11820: 23 30 b4 fe                  	sd	a1, -32(s0)
   11824: 03 35 84 fe                  	ld	a0, -24(s0)
   11828: 08 61                        	ld	a0, 0(a0)
   1182a: 83 35 04 fe                  	ld	a1, -32(s0)
   1182e: 8c 61                        	ld	a1, 0(a1)
   11830: 97 00 00 00                  	auipc	ra, 0
   11834: e7 80 a0 79                  	jalr	1946(ra)
   11838: 42 64                        	ld	s0, 16(sp)
   1183a: e2 60                        	ld	ra, 24(sp)
   1183c: 05 61                        	addi	sp, sp, 32
   1183e: 82 80                        	ret

0000000000011840 main:
   11840: 05 71                        	addi	sp, sp, -480
   11842: 86 ef                        	sd	ra, 472(sp)
   11844: a2 eb                        	sd	s0, 464(sp)
   11846: 80 13                        	addi	s0, sp, 480
   11848: 01 45                        	mv	a0, zero
   1184a: 23 26 a4 fe                  	sw	a0, -20(s0)
   1184e: 23 30 a4 fe                  	sd	a0, -32(s0)
   11852: 23 3c a4 e6                  	sd	a0, -392(s0)
   11856: 97 00 00 00                  	auipc	ra, 0
   1185a: e7 80 a0 f2                  	jalr	-214(ra)
   1185e: 37 05 01 00                  	lui	a0, 16
   11862: 13 05 75 4e                  	addi	a0, a0, 1255
   11866: 97 50 00 00                  	auipc	ra, 5
   1186a: e7 80 20 bb                  	jalr	-1102(ra)
   1186e: 23 3c a4 fc                  	sd	a0, -40(s0)
   11872: 03 35 84 fd                  	ld	a0, -40(s0)
   11876: 83 35 84 e7                  	ld	a1, -392(s0)
   1187a: 63 1b b5 04                  	bne	a0, a1, 86
   1187e: 6f 00 40 00                  	j	4
   11882: 37 05 01 00                  	lui	a0, 16
   11886: 13 05 55 57                  	addi	a0, a0, 1397
   1188a: 91 45                        	addi	a1, zero, 4
   1188c: 97 20 00 00                  	auipc	ra, 2
   11890: e7 80 00 1f                  	jalr	496(ra)
   11894: 23 2a a4 fc                  	sw	a0, -44(s0)
   11898: 03 25 44 fd                  	lw	a0, -44(s0)
   1189c: b7 05 01 00                  	lui	a1, 16
   118a0: 93 85 f5 54                  	addi	a1, a1, 1359
   118a4: 37 06 01 00                  	lui	a2, 16
   118a8: 13 06 76 4e                  	addi	a2, a2, 1255
   118ac: 97 30 00 00                  	auipc	ra, 3
   118b0: e7 80 a0 e1                  	jalr	-486(ra)
   118b4: 83 25 44 fd                  	lw	a1, -44(s0)
   118b8: 23 38 a4 e6                  	sd	a0, -400(s0)
   118bc: 2e 85                        	add	a0, zero, a1
   118be: 97 20 00 00                  	auipc	ra, 2
   118c2: e7 80 60 1c                  	jalr	454(ra)
   118c6: 85 45                        	addi	a1, zero, 1
   118c8: 23 26 b4 fe                  	sw	a1, -20(s0)
   118cc: 6f 00 80 27                  	j	632
   118d0: 01 45                        	mv	a0, zero
   118d2: 23 34 a4 fc                  	sd	a0, -56(s0)
   118d6: 11 45                        	addi	a0, zero, 4
   118d8: 23 30 a4 fc                  	sd	a0, -64(s0)
   118dc: 03 35 04 fc                  	ld	a0, -64(s0)
   118e0: 1b 15 35 00                  	slliw	a0, a0, 3
   118e4: 97 40 00 00                  	auipc	ra, 4
   118e8: e7 80 20 56                  	jalr	1378(ra)
   118ec: 23 3c a4 fa                  	sd	a0, -72(s0)
   118f0: 6f 00 40 00                  	j	4
   118f4: 03 35 84 fd                  	ld	a0, -40(s0)
   118f8: 97 50 00 00                  	auipc	ra, 5
   118fc: e7 80 a0 bb                  	jalr	-1094(ra)
   11900: 23 38 a4 fa                  	sd	a0, -80(s0)
   11904: 81 45                        	mv	a1, zero
   11906: 63 03 b5 0a                  	beq	a0, a1, 166
   1190a: 6f 00 40 00                  	j	4
   1190e: 03 35 04 fb                  	ld	a0, -80(s0)
   11912: 03 45 25 01                  	lbu	a0, 18(a0)
   11916: 93 05 e0 02                  	addi	a1, zero, 46
   1191a: 63 16 b5 00                  	bne	a0, a1, 12
   1191e: 6f 00 40 00                  	j	4
   11922: 6f f0 3f fd                  	j	-46
   11926: 03 35 84 fc                  	ld	a0, -56(s0)
   1192a: 05 05                        	addi	a0, a0, 1
   1192c: 23 34 a4 fc                  	sd	a0, -56(s0)
   11930: 03 35 84 fc                  	ld	a0, -56(s0)
   11934: 83 35 04 fc                  	ld	a1, -64(s0)
   11938: 63 6d b5 04                  	bltu	a0, a1, 90
   1193c: 6f 00 40 00                  	j	4
   11940: 03 35 04 fc                  	ld	a0, -64(s0)
   11944: 1b 15 45 00                  	slliw	a0, a0, 4
   11948: 97 40 00 00                  	auipc	ra, 4
   1194c: e7 80 e0 4f                  	jalr	1278(ra)
   11950: 23 34 a4 fa                  	sd	a0, -88(s0)
   11954: 03 35 84 fa                  	ld	a0, -88(s0)
   11958: 83 35 84 fb                  	ld	a1, -72(s0)
   1195c: 03 36 04 fc                  	ld	a2, -64(s0)
   11960: 0e 06                        	slli	a2, a2, 3
   11962: 97 00 00 00                  	auipc	ra, 0
   11966: e7 80 c0 3e                  	jalr	1004(ra)
   1196a: 83 35 84 fb                  	ld	a1, -72(s0)
   1196e: 23 34 a4 e6                  	sd	a0, -408(s0)
   11972: 2e 85                        	add	a0, zero, a1
   11974: 97 50 00 00                  	auipc	ra, 5
   11978: e7 80 20 89                  	jalr	-1902(ra)
   1197c: 03 35 84 fa                  	ld	a0, -88(s0)
   11980: 23 3c a4 fa                  	sd	a0, -72(s0)
   11984: 03 35 04 fc                  	ld	a0, -64(s0)
   11988: 06 05                        	slli	a0, a0, 1
   1198a: 23 30 a4 fc                  	sd	a0, -64(s0)
   1198e: 6f 00 40 00                  	j	4
   11992: 03 35 04 fb                  	ld	a0, -80(s0)
   11996: 49 05                        	addi	a0, a0, 18
   11998: 83 35 84 fb                  	ld	a1, -72(s0)
   1199c: 03 36 84 fc                  	ld	a2, -56(s0)
   119a0: 0e 06                        	slli	a2, a2, 3
   119a2: b2 95                        	add	a1, a1, a2
   119a4: 23 bc a5 fe                  	sd	a0, -8(a1)
   119a8: 6f f0 df f4                  	j	-180
   119ac: 37 05 01 00                  	lui	a0, 16
   119b0: 13 05 55 57                  	addi	a0, a0, 1397
   119b4: 91 45                        	addi	a1, zero, 4
   119b6: 97 20 00 00                  	auipc	ra, 2
   119ba: e7 80 60 0c                  	jalr	198(ra)
   119be: 23 22 a4 fa                  	sw	a0, -92(s0)
   119c2: 03 25 44 fa                  	lw	a0, -92(s0)
   119c6: 03 36 84 fc                  	ld	a2, -56(s0)
   119ca: b7 05 01 00                  	lui	a1, 16
   119ce: 93 85 e5 6a                  	addi	a1, a1, 1710
   119d2: 97 30 00 00                  	auipc	ra, 3
   119d6: e7 80 40 cf                  	jalr	-780(ra)
   119da: 83 25 44 fa                  	lw	a1, -92(s0)
   119de: 23 30 a4 e6                  	sd	a0, -416(s0)
   119e2: 2e 85                        	add	a0, zero, a1
   119e4: 97 20 00 00                  	auipc	ra, 2
   119e8: e7 80 00 0a                  	jalr	160(ra)
   119ec: 83 35 84 fb                  	ld	a1, -72(s0)
   119f0: 03 36 84 fc                  	ld	a2, -56(s0)
   119f4: b7 26 01 00                  	lui	a3, 18
   119f8: 93 86 46 81                  	addi	a3, a3, -2028
   119fc: 21 47                        	addi	a4, zero, 8
   119fe: 23 3c a4 e4                  	sd	a0, -424(s0)
   11a02: 2e 85                        	add	a0, zero, a1
   11a04: b2 85                        	add	a1, zero, a2
   11a06: 3a 86                        	add	a2, zero, a4
   11a08: 97 50 00 00                  	auipc	ra, 5
   11a0c: e7 80 60 ed                  	jalr	-298(ra)
   11a10: 01 45                        	mv	a0, zero
   11a12: 23 20 a4 fa                  	sw	a0, -96(s0)
   11a16: 6f 00 40 00                  	j	4
   11a1a: 03 25 04 fa                  	lw	a0, -96(s0)
   11a1e: 83 35 84 fc                  	ld	a1, -56(s0)
   11a22: 63 7a b5 0a                  	bgeu	a0, a1, 180
   11a26: 6f 00 40 00                  	j	4
   11a2a: 37 05 01 00                  	lui	a0, 16
   11a2e: 13 05 55 57                  	addi	a0, a0, 1397
   11a32: 91 45                        	addi	a1, zero, 4
   11a34: 97 20 00 00                  	auipc	ra, 2
   11a38: e7 80 80 04                  	jalr	72(ra)
   11a3c: 23 2e a4 f8                  	sw	a0, -100(s0)
   11a40: 03 25 c4 f9                  	lw	a0, -100(s0)
   11a44: 83 35 84 fb                  	ld	a1, -72(s0)
   11a48: 03 26 04 fa                  	lw	a2, -96(s0)
   11a4c: 0e 06                        	slli	a2, a2, 3
   11a4e: b2 95                        	add	a1, a1, a2
   11a50: 90 61                        	ld	a2, 0(a1)
   11a52: b7 05 01 00                  	lui	a1, 16
   11a56: 93 85 55 41                  	addi	a1, a1, 1045
   11a5a: 97 30 00 00                  	auipc	ra, 3
   11a5e: e7 80 c0 c6                  	jalr	-916(ra)
   11a62: 83 25 c4 f9                  	lw	a1, -100(s0)
   11a66: 23 38 a4 e4                  	sd	a0, -432(s0)
   11a6a: 2e 85                        	add	a0, zero, a1
   11a6c: 97 20 00 00                  	auipc	ra, 2
   11a70: e7 80 80 01                  	jalr	24(ra)
   11a74: 83 35 84 fb                  	ld	a1, -72(s0)
   11a78: 03 26 04 fa                  	lw	a2, -96(s0)
   11a7c: 0e 06                        	slli	a2, a2, 3
   11a7e: b2 95                        	add	a1, a1, a2
   11a80: 90 61                        	ld	a2, 0(a1)
   11a82: b7 05 01 00                  	lui	a1, 16
   11a86: 93 85 d5 23                  	addi	a1, a1, 573
   11a8a: 93 06 c4 e9                  	addi	a3, s0, -356
   11a8e: 23 34 a4 e4                  	sd	a0, -440(s0)
   11a92: 36 85                        	add	a0, zero, a3
   11a94: 23 30 d4 e4                  	sd	a3, -448(s0)
   11a98: 97 30 00 00                  	auipc	ra, 3
   11a9c: e7 80 20 78                  	jalr	1922(ra)
   11aa0: 83 35 04 e4                  	ld	a1, -448(s0)
   11aa4: 23 34 b4 e8                  	sd	a1, -376(s0)
   11aa8: 01 46                        	mv	a2, zero
   11aaa: 23 38 c4 e8                  	sd	a2, -368(s0)
   11aae: 13 06 84 e8                  	addi	a2, s0, -376
   11ab2: 93 05 04 fe                  	addi	a1, s0, -32
   11ab6: 23 3c a4 e2                  	sd	a0, -456(s0)
   11aba: 32 85                        	add	a0, zero, a2
   11abc: 97 00 00 00                  	auipc	ra, 0
   11ac0: e7 80 40 09                  	jalr	148(ra)
   11ac4: 6f 00 40 00                  	j	4
   11ac8: 03 25 04 fa                  	lw	a0, -96(s0)
   11acc: 05 05                        	addi	a0, a0, 1
   11ace: 23 20 a4 fa                  	sw	a0, -96(s0)
   11ad2: 6f f0 9f f4                  	j	-184
   11ad6: 03 35 84 fb                  	ld	a0, -72(s0)
   11ada: 97 40 00 00                  	auipc	ra, 4
   11ade: e7 80 c0 72                  	jalr	1836(ra)
   11ae2: 6f 00 40 00                  	j	4
   11ae6: 37 05 01 00                  	lui	a0, 16
   11aea: 13 05 55 57                  	addi	a0, a0, 1397
   11aee: 91 45                        	addi	a1, zero, 4
   11af0: 97 20 00 00                  	auipc	ra, 2
   11af4: e7 80 c0 f8                  	jalr	-116(ra)
   11af8: 23 22 a4 e8                  	sw	a0, -380(s0)
   11afc: 03 25 44 e8                  	lw	a0, -380(s0)
   11b00: b7 05 01 00                  	lui	a1, 16
   11b04: 93 85 55 6d                  	addi	a1, a1, 1749
   11b08: 97 30 00 00                  	auipc	ra, 3
   11b0c: e7 80 e0 bb                  	jalr	-1090(ra)
   11b10: 83 25 44 e8                  	lw	a1, -380(s0)
   11b14: 23 38 a4 e2                  	sd	a0, -464(s0)
   11b18: 2e 85                        	add	a0, zero, a1
   11b1a: 97 20 00 00                  	auipc	ra, 2
   11b1e: e7 80 a0 f6                  	jalr	-150(ra)
   11b22: 83 35 84 fd                  	ld	a1, -40(s0)
   11b26: 23 34 a4 e2                  	sd	a0, -472(s0)
   11b2a: 2e 85                        	add	a0, zero, a1
   11b2c: 97 50 00 00                  	auipc	ra, 5
   11b30: e7 80 c0 87                  	jalr	-1924(ra)
   11b34: 23 30 a4 e2                  	sd	a0, -480(s0)
   11b38: 97 20 00 00                  	auipc	ra, 2
   11b3c: e7 80 e0 00                  	jalr	14(ra)
   11b40: 6f 00 40 00                  	j	4
   11b44: 03 25 c4 fe                  	lw	a0, -20(s0)
   11b48: 5e 64                        	ld	s0, 464(sp)
   11b4a: fe 60                        	ld	ra, 472(sp)
   11b4c: 3d 61                        	addi	sp, sp, 480
   11b4e: 82 80                        	ret

0000000000011b50 execute_process:
   11b50: 39 71                        	addi	sp, sp, -64
   11b52: 06 fc                        	sd	ra, 56(sp)
   11b54: 22 f8                        	sd	s0, 48(sp)
   11b56: 80 00                        	addi	s0, sp, 64
   11b58: 23 34 a4 fe                  	sd	a0, -24(s0)
   11b5c: 23 30 b4 fe                  	sd	a1, -32(s0)
   11b60: 97 20 00 00                  	auipc	ra, 2
   11b64: e7 80 c0 f8                  	jalr	-116(ra)
   11b68: 23 2e a4 fc                  	sw	a0, -36(s0)
   11b6c: 03 25 c4 fd                  	lw	a0, -36(s0)
   11b70: 81 45                        	mv	a1, zero
   11b72: 63 1a b5 02                  	bne	a0, a1, 52
   11b76: 6f 00 40 00                  	j	4
   11b7a: 03 35 84 fe                  	ld	a0, -24(s0)
   11b7e: 0c 61                        	ld	a1, 0(a0)
   11b80: 03 36 04 fe                  	ld	a2, -32(s0)
   11b84: 23 38 a4 fc                  	sd	a0, -48(s0)
   11b88: 2e 85                        	add	a0, zero, a1
   11b8a: 83 35 04 fd                  	ld	a1, -48(s0)
   11b8e: 97 20 00 00                  	auipc	ra, 2
   11b92: e7 80 80 f6                  	jalr	-152(ra)
   11b96: 81 45                        	mv	a1, zero
   11b98: 23 34 a4 fc                  	sd	a0, -56(s0)
   11b9c: 2e 85                        	add	a0, zero, a1
   11b9e: 97 20 00 00                  	auipc	ra, 2
   11ba2: e7 80 20 f6                  	jalr	-158(ra)
   11ba6: 01 45                        	mv	a0, zero
   11ba8: 97 20 00 00                  	auipc	ra, 2
   11bac: e7 80 20 f6                  	jalr	-158(ra)
   11bb0: 83 25 c4 fd                  	lw	a1, -36(s0)
   11bb4: 23 30 a4 fc                  	sd	a0, -64(s0)
   11bb8: 2e 85                        	add	a0, zero, a1
   11bba: 42 74                        	ld	s0, 48(sp)
   11bbc: e2 70                        	ld	ra, 56(sp)
   11bbe: 21 61                        	addi	sp, sp, 64
   11bc0: 82 80                        	ret
   11bc2: 00 00                        	unimp	

0000000000011bc4 memccpy:
   11bc4: 39 71                        	addi	sp, sp, -64
   11bc6: 06 fc                        	sd	ra, 56(sp)
   11bc8: 22 f8                        	sd	s0, 48(sp)
   11bca: 80 00                        	addi	s0, sp, 64
   11bcc: 32 87                        	add	a4, zero, a2
   11bce: 23 30 a4 fe                  	sd	a0, -32(s0)
   11bd2: 23 3c b4 fc                  	sd	a1, -40(s0)
   11bd6: 23 2a c4 fc                  	sw	a2, -44(s0)
   11bda: 23 34 d4 fc                  	sd	a3, -56(s0)
   11bde: 6f 00 40 00                  	j	4
   11be2: 03 35 84 fc                  	ld	a0, -56(s0)
   11be6: 93 05 f5 ff                  	addi	a1, a0, -1
   11bea: 23 34 b4 fc                  	sd	a1, -56(s0)
   11bee: 81 45                        	mv	a1, zero
   11bf0: 63 06 b5 04                  	beq	a0, a1, 76
   11bf4: 6f 00 40 00                  	j	4
   11bf8: 03 35 84 fd                  	ld	a0, -40(s0)
   11bfc: 93 05 15 00                  	addi	a1, a0, 1
   11c00: 23 3c b4 fc                  	sd	a1, -40(s0)
   11c04: 03 05 05 00                  	lb	a0, 0(a0)
   11c08: 83 35 04 fe                  	ld	a1, -32(s0)
   11c0c: 23 80 a5 00                  	sb	a0, 0(a1)
   11c10: 03 35 04 fe                  	ld	a0, -32(s0)
   11c14: 93 05 15 00                  	addi	a1, a0, 1
   11c18: 23 30 b4 fe                  	sd	a1, -32(s0)
   11c1c: 03 45 05 00                  	lbu	a0, 0(a0)
   11c20: 83 45 44 fd                  	lbu	a1, -44(s0)
   11c24: 63 1a b5 00                  	bne	a0, a1, 20
   11c28: 6f 00 40 00                  	j	4
   11c2c: 03 35 04 fe                  	ld	a0, -32(s0)
   11c30: 23 34 a4 fe                  	sd	a0, -24(s0)
   11c34: 6f 00 20 01                  	j	18
   11c38: 6f f0 bf fa                  	j	-86
   11c3c: 01 45                        	mv	a0, zero
   11c3e: 23 34 a4 fe                  	sd	a0, -24(s0)
   11c42: 6f 00 40 00                  	j	4
   11c46: 03 35 84 fe                  	ld	a0, -24(s0)
   11c4a: 42 74                        	ld	s0, 48(sp)
   11c4c: e2 70                        	ld	ra, 56(sp)
   11c4e: 21 61                        	addi	sp, sp, 64
   11c50: 82 80                        	ret

0000000000011c52 memchr:
   11c52: 79 71                        	addi	sp, sp, -48
   11c54: 06 f4                        	sd	ra, 40(sp)
   11c56: 22 f0                        	sd	s0, 32(sp)
   11c58: 00 18                        	addi	s0, sp, 48
   11c5a: ae 86                        	add	a3, zero, a1
   11c5c: 23 30 a4 fe                  	sd	a0, -32(s0)
   11c60: 23 2e b4 fc                  	sw	a1, -36(s0)
   11c64: 23 38 c4 fc                  	sd	a2, -48(s0)
   11c68: 6f 00 40 00                  	j	4
   11c6c: 03 35 04 fd                  	ld	a0, -48(s0)
   11c70: 93 05 f5 ff                  	addi	a1, a0, -1
   11c74: 23 38 b4 fc                  	sd	a1, -48(s0)
   11c78: 81 45                        	mv	a1, zero
   11c7a: 63 0b b5 02                  	beq	a0, a1, 54
   11c7e: 6f 00 40 00                  	j	4
   11c82: 03 35 04 fe                  	ld	a0, -32(s0)
   11c86: 03 45 05 00                  	lbu	a0, 0(a0)
   11c8a: 83 45 c4 fd                  	lbu	a1, -36(s0)
   11c8e: 63 1a b5 00                  	bne	a0, a1, 20
   11c92: 6f 00 40 00                  	j	4
   11c96: 03 35 04 fe                  	ld	a0, -32(s0)
   11c9a: 23 34 a4 fe                  	sd	a0, -24(s0)
   11c9e: 6f 00 c0 01                  	j	28
   11ca2: 03 35 04 fe                  	ld	a0, -32(s0)
   11ca6: 05 05                        	addi	a0, a0, 1
   11ca8: 23 30 a4 fe                  	sd	a0, -32(s0)
   11cac: 6f f0 1f fc                  	j	-64
   11cb0: 01 45                        	mv	a0, zero
   11cb2: 23 34 a4 fe                  	sd	a0, -24(s0)
   11cb6: 6f 00 40 00                  	j	4
   11cba: 03 35 84 fe                  	ld	a0, -24(s0)
   11cbe: 02 74                        	ld	s0, 32(sp)
   11cc0: a2 70                        	ld	ra, 40(sp)
   11cc2: 45 61                        	addi	sp, sp, 48
   11cc4: 82 80                        	ret

0000000000011cc6 memcmp:
   11cc6: 39 71                        	addi	sp, sp, -64
   11cc8: 06 fc                        	sd	ra, 56(sp)
   11cca: 22 f8                        	sd	s0, 48(sp)
   11ccc: 80 00                        	addi	s0, sp, 64
   11cce: 23 30 a4 fe                  	sd	a0, -32(s0)
   11cd2: 23 3c b4 fc                  	sd	a1, -40(s0)
   11cd6: 23 38 c4 fc                  	sd	a2, -48(s0)
   11cda: 6f 00 40 00                  	j	4
   11cde: 03 35 04 fd                  	ld	a0, -48(s0)
   11ce2: 93 05 f5 ff                  	addi	a1, a0, -1
   11ce6: 23 38 b4 fc                  	sd	a1, -48(s0)
   11cea: 81 45                        	mv	a1, zero
   11cec: 63 06 b5 04                  	beq	a0, a1, 76
   11cf0: 6f 00 40 00                  	j	4
   11cf4: 03 35 04 fe                  	ld	a0, -32(s0)
   11cf8: 93 05 15 00                  	addi	a1, a0, 1
   11cfc: 23 30 b4 fe                  	sd	a1, -32(s0)
   11d00: 03 45 05 00                  	lbu	a0, 0(a0)
   11d04: 83 35 84 fd                  	ld	a1, -40(s0)
   11d08: 13 86 15 00                  	addi	a2, a1, 1
   11d0c: 23 3c c4 fc                  	sd	a2, -40(s0)
   11d10: 83 c5 05 00                  	lbu	a1, 0(a1)
   11d14: 0d 8d                        	sub	a0, a0, a1
   11d16: 23 26 a4 fc                  	sw	a0, -52(s0)
   11d1a: 03 25 c4 fc                  	lw	a0, -52(s0)
   11d1e: 81 45                        	mv	a1, zero
   11d20: 63 0a b5 00                  	beq	a0, a1, 20
   11d24: 6f 00 40 00                  	j	4
   11d28: 03 25 c4 fc                  	lw	a0, -52(s0)
   11d2c: 23 26 a4 fe                  	sw	a0, -20(s0)
   11d30: 6f 00 20 01                  	j	18
   11d34: 6f f0 bf fa                  	j	-86
   11d38: 01 45                        	mv	a0, zero
   11d3a: 23 26 a4 fe                  	sw	a0, -20(s0)
   11d3e: 6f 00 40 00                  	j	4
   11d42: 03 25 c4 fe                  	lw	a0, -20(s0)
   11d46: 42 74                        	ld	s0, 48(sp)
   11d48: e2 70                        	ld	ra, 56(sp)
   11d4a: 21 61                        	addi	sp, sp, 64
   11d4c: 82 80                        	ret

0000000000011d4e memcpy:
   11d4e: 79 71                        	addi	sp, sp, -48
   11d50: 06 f4                        	sd	ra, 40(sp)
   11d52: 22 f0                        	sd	s0, 32(sp)
   11d54: 00 18                        	addi	s0, sp, 48
   11d56: 23 34 a4 fe                  	sd	a0, -24(s0)
   11d5a: 23 30 b4 fe                  	sd	a1, -32(s0)
   11d5e: 23 3c c4 fc                  	sd	a2, -40(s0)
   11d62: 03 35 84 fe                  	ld	a0, -24(s0)
   11d66: 23 38 a4 fc                  	sd	a0, -48(s0)
   11d6a: 6f 00 40 00                  	j	4
   11d6e: 03 35 84 fd                  	ld	a0, -40(s0)
   11d72: 93 05 f5 ff                  	addi	a1, a0, -1
   11d76: 23 3c b4 fc                  	sd	a1, -40(s0)
   11d7a: 81 45                        	mv	a1, zero
   11d7c: 63 06 b5 02                  	beq	a0, a1, 44
   11d80: 6f 00 40 00                  	j	4
   11d84: 03 35 04 fe                  	ld	a0, -32(s0)
   11d88: 93 05 15 00                  	addi	a1, a0, 1
   11d8c: 23 30 b4 fe                  	sd	a1, -32(s0)
   11d90: 03 05 05 00                  	lb	a0, 0(a0)
   11d94: 83 35 84 fe                  	ld	a1, -24(s0)
   11d98: 13 86 15 00                  	addi	a2, a1, 1
   11d9c: 23 34 c4 fe                  	sd	a2, -24(s0)
   11da0: 23 80 a5 00                  	sb	a0, 0(a1)
   11da4: 6f f0 bf fc                  	j	-54
   11da8: 03 35 84 fe                  	ld	a0, -24(s0)
   11dac: 02 74                        	ld	s0, 32(sp)
   11dae: a2 70                        	ld	ra, 40(sp)
   11db0: 45 61                        	addi	sp, sp, 48
   11db2: 82 80                        	ret

0000000000011db4 memmove:
   11db4: 79 71                        	addi	sp, sp, -48
   11db6: 06 f4                        	sd	ra, 40(sp)
   11db8: 22 f0                        	sd	s0, 32(sp)
   11dba: 00 18                        	addi	s0, sp, 48
   11dbc: 23 34 a4 fe                  	sd	a0, -24(s0)
   11dc0: 23 30 b4 fe                  	sd	a1, -32(s0)
   11dc4: 23 3c c4 fc                  	sd	a2, -40(s0)
   11dc8: 03 35 84 fe                  	ld	a0, -24(s0)
   11dcc: 23 38 a4 fc                  	sd	a0, -48(s0)
   11dd0: 03 35 84 fe                  	ld	a0, -24(s0)
   11dd4: 83 35 04 fe                  	ld	a1, -32(s0)
   11dd8: 63 75 b5 04                  	bgeu	a0, a1, 74
   11ddc: 6f 00 40 00                  	j	4
   11de0: 6f 00 40 00                  	j	4
   11de4: 03 35 84 fd                  	ld	a0, -40(s0)
   11de8: 93 05 f5 ff                  	addi	a1, a0, -1
   11dec: 23 3c b4 fc                  	sd	a1, -40(s0)
   11df0: 81 45                        	mv	a1, zero
   11df2: 63 06 b5 02                  	beq	a0, a1, 44
   11df6: 6f 00 40 00                  	j	4
   11dfa: 03 35 04 fe                  	ld	a0, -32(s0)
   11dfe: 93 05 15 00                  	addi	a1, a0, 1
   11e02: 23 30 b4 fe                  	sd	a1, -32(s0)
   11e06: 03 05 05 00                  	lb	a0, 0(a0)
   11e0a: 83 35 84 fe                  	ld	a1, -24(s0)
   11e0e: 13 86 15 00                  	addi	a2, a1, 1
   11e12: 23 34 c4 fe                  	sd	a2, -24(s0)
   11e16: 23 80 a5 00                  	sb	a0, 0(a1)
   11e1a: 6f f0 bf fc                  	j	-54
   11e1e: 6f 00 20 05                  	j	82
   11e22: 03 35 84 fe                  	ld	a0, -24(s0)
   11e26: 83 35 04 fe                  	ld	a1, -32(s0)
   11e2a: 63 f1 a5 04                  	bgeu	a1, a0, 66
   11e2e: 6f 00 40 00                  	j	4
   11e32: 6f 00 40 00                  	j	4
   11e36: 03 35 84 fd                  	ld	a0, -40(s0)
   11e3a: 93 05 f5 ff                  	addi	a1, a0, -1
   11e3e: 23 3c b4 fc                  	sd	a1, -40(s0)
   11e42: 81 45                        	mv	a1, zero
   11e44: 63 02 b5 02                  	beq	a0, a1, 36
   11e48: 6f 00 40 00                  	j	4
   11e4c: 03 35 04 fe                  	ld	a0, -32(s0)
   11e50: 83 35 84 fd                  	ld	a1, -40(s0)
   11e54: 2e 95                        	add	a0, a0, a1
   11e56: 03 05 05 00                  	lb	a0, 0(a0)
   11e5a: 03 36 84 fe                  	ld	a2, -24(s0)
   11e5e: b2 95                        	add	a1, a1, a2
   11e60: 23 80 a5 00                  	sb	a0, 0(a1)
   11e64: 6f f0 3f fd                  	j	-46
   11e68: 6f 00 40 00                  	j	4
   11e6c: 6f 00 40 00                  	j	4
   11e70: 03 35 04 fd                  	ld	a0, -48(s0)
   11e74: 02 74                        	ld	s0, 32(sp)
   11e76: a2 70                        	ld	ra, 40(sp)
   11e78: 45 61                        	addi	sp, sp, 48
   11e7a: 82 80                        	ret

0000000000011e7c memset:
   11e7c: 79 71                        	addi	sp, sp, -48
   11e7e: 06 f4                        	sd	ra, 40(sp)
   11e80: 22 f0                        	sd	s0, 32(sp)
   11e82: 00 18                        	addi	s0, sp, 48
   11e84: ae 86                        	add	a3, zero, a1
   11e86: 23 34 a4 fe                  	sd	a0, -24(s0)
   11e8a: 23 22 b4 fe                  	sw	a1, -28(s0)
   11e8e: 23 3c c4 fc                  	sd	a2, -40(s0)
   11e92: 01 45                        	mv	a0, zero
   11e94: 23 38 a4 fc                  	sd	a0, -48(s0)
   11e98: 6f 00 40 00                  	j	4
   11e9c: 03 35 04 fd                  	ld	a0, -48(s0)
   11ea0: 83 35 84 fd                  	ld	a1, -40(s0)
   11ea4: 63 76 b5 02                  	bgeu	a0, a1, 44
   11ea8: 6f 00 40 00                  	j	4
   11eac: 03 05 44 fe                  	lb	a0, -28(s0)
   11eb0: 83 35 84 fe                  	ld	a1, -24(s0)
   11eb4: 03 36 04 fd                  	ld	a2, -48(s0)
   11eb8: b2 95                        	add	a1, a1, a2
   11eba: 23 80 a5 00                  	sb	a0, 0(a1)
   11ebe: 6f 00 40 00                  	j	4
   11ec2: 03 35 04 fd                  	ld	a0, -48(s0)
   11ec6: 05 05                        	addi	a0, a0, 1
   11ec8: 23 38 a4 fc                  	sd	a0, -48(s0)
   11ecc: 6f f0 1f fd                  	j	-48
   11ed0: 03 35 84 fe                  	ld	a0, -24(s0)
   11ed4: 02 74                        	ld	s0, 32(sp)
   11ed6: a2 70                        	ld	ra, 40(sp)
   11ed8: 45 61                        	addi	sp, sp, 48
   11eda: 82 80                        	ret

0000000000011edc strcat:
   11edc: 79 71                        	addi	sp, sp, -48
   11ede: 06 f4                        	sd	ra, 40(sp)
   11ee0: 22 f0                        	sd	s0, 32(sp)
   11ee2: 00 18                        	addi	s0, sp, 48
   11ee4: 23 34 a4 fe                  	sd	a0, -24(s0)
   11ee8: 23 30 b4 fe                  	sd	a1, -32(s0)
   11eec: 03 35 84 fe                  	ld	a0, -24(s0)
   11ef0: 23 3c a4 fc                  	sd	a0, -40(s0)
   11ef4: 6f 00 40 00                  	j	4
   11ef8: 03 35 84 fe                  	ld	a0, -24(s0)
   11efc: 93 05 15 00                  	addi	a1, a0, 1
   11f00: 23 34 b4 fe                  	sd	a1, -24(s0)
   11f04: 03 45 05 00                  	lbu	a0, 0(a0)
   11f08: 81 45                        	mv	a1, zero
   11f0a: 63 06 b5 00                  	beq	a0, a1, 12
   11f0e: 6f 00 40 00                  	j	4
   11f12: 6f f0 7f fe                  	j	-26
   11f16: 03 35 84 fe                  	ld	a0, -24(s0)
   11f1a: 7d 15                        	addi	a0, a0, -1
   11f1c: 23 34 a4 fe                  	sd	a0, -24(s0)
   11f20: 6f 00 40 00                  	j	4
   11f24: 03 35 04 fe                  	ld	a0, -32(s0)
   11f28: 93 05 15 00                  	addi	a1, a0, 1
   11f2c: 23 30 b4 fe                  	sd	a1, -32(s0)
   11f30: 03 45 05 00                  	lbu	a0, 0(a0)
   11f34: 83 35 84 fe                  	ld	a1, -24(s0)
   11f38: 13 86 15 00                  	addi	a2, a1, 1
   11f3c: 23 34 c4 fe                  	sd	a2, -24(s0)
   11f40: 23 80 a5 00                  	sb	a0, 0(a1)
   11f44: 81 45                        	mv	a1, zero
   11f46: 63 06 b5 00                  	beq	a0, a1, 12
   11f4a: 6f 00 40 00                  	j	4
   11f4e: 6f f0 7f fd                  	j	-42
   11f52: 03 35 84 fd                  	ld	a0, -40(s0)
   11f56: 02 74                        	ld	s0, 32(sp)
   11f58: a2 70                        	ld	ra, 40(sp)
   11f5a: 45 61                        	addi	sp, sp, 48
   11f5c: 82 80                        	ret

0000000000011f5e strchr:
   11f5e: 79 71                        	addi	sp, sp, -48
   11f60: 06 f4                        	sd	ra, 40(sp)
   11f62: 22 f0                        	sd	s0, 32(sp)
   11f64: 00 18                        	addi	s0, sp, 48
   11f66: 2e 86                        	add	a2, zero, a1
   11f68: 23 30 a4 fe                  	sd	a0, -32(s0)
   11f6c: 23 2e b4 fc                  	sw	a1, -36(s0)
   11f70: 6f 00 40 00                  	j	4
   11f74: 03 35 04 fe                  	ld	a0, -32(s0)
   11f78: 03 45 05 00                  	lbu	a0, 0(a0)
   11f7c: 81 45                        	mv	a1, zero
   11f7e: 63 0b b5 02                  	beq	a0, a1, 54
   11f82: 6f 00 40 00                  	j	4
   11f86: 03 35 04 fe                  	ld	a0, -32(s0)
   11f8a: 03 45 05 00                  	lbu	a0, 0(a0)
   11f8e: 83 45 c4 fd                  	lbu	a1, -36(s0)
   11f92: 63 1a b5 00                  	bne	a0, a1, 20
   11f96: 6f 00 40 00                  	j	4
   11f9a: 03 35 04 fe                  	ld	a0, -32(s0)
   11f9e: 23 34 a4 fe                  	sd	a0, -24(s0)
   11fa2: 6f 00 c0 01                  	j	28
   11fa6: 03 35 04 fe                  	ld	a0, -32(s0)
   11faa: 05 05                        	addi	a0, a0, 1
   11fac: 23 30 a4 fe                  	sd	a0, -32(s0)
   11fb0: 6f f0 5f fc                  	j	-60
   11fb4: 01 45                        	mv	a0, zero
   11fb6: 23 34 a4 fe                  	sd	a0, -24(s0)
   11fba: 6f 00 40 00                  	j	4
   11fbe: 03 35 84 fe                  	ld	a0, -24(s0)
   11fc2: 02 74                        	ld	s0, 32(sp)
   11fc4: a2 70                        	ld	ra, 40(sp)
   11fc6: 45 61                        	addi	sp, sp, 48
   11fc8: 82 80                        	ret

0000000000011fca strcmp:
   11fca: 39 71                        	addi	sp, sp, -64
   11fcc: 06 fc                        	sd	ra, 56(sp)
   11fce: 22 f8                        	sd	s0, 48(sp)
   11fd0: 80 00                        	addi	s0, sp, 64
   11fd2: 23 30 a4 fe                  	sd	a0, -32(s0)
   11fd6: 23 3c b4 fc                  	sd	a1, -40(s0)
   11fda: 6f 00 40 00                  	j	4
   11fde: 03 35 04 fe                  	ld	a0, -32(s0)
   11fe2: 03 45 05 00                  	lbu	a0, 0(a0)
   11fe6: 81 45                        	mv	a1, zero
   11fe8: 2e 86                        	add	a2, zero, a1
   11fea: 23 34 c4 fc                  	sd	a2, -56(s0)
   11fee: 63 0e b5 00                  	beq	a0, a1, 28
   11ff2: 6f 00 40 00                  	j	4
   11ff6: 03 35 84 fd                  	ld	a0, -40(s0)
   11ffa: 03 45 05 00                  	lbu	a0, 0(a0)
   11ffe: 33 35 a0 00                  	snez	a0, a0
   12002: 23 34 a4 fc                  	sd	a0, -56(s0)
   12006: 6f 00 40 00                  	j	4
   1200a: 03 35 84 fc                  	ld	a0, -56(s0)
   1200e: 05 89                        	andi	a0, a0, 1
   12010: 81 45                        	mv	a1, zero
   12012: 63 06 b5 04                  	beq	a0, a1, 76
   12016: 6f 00 40 00                  	j	4
   1201a: 03 35 04 fe                  	ld	a0, -32(s0)
   1201e: 93 05 15 00                  	addi	a1, a0, 1
   12022: 23 30 b4 fe                  	sd	a1, -32(s0)
   12026: 03 45 05 00                  	lbu	a0, 0(a0)
   1202a: 83 35 84 fd                  	ld	a1, -40(s0)
   1202e: 13 86 15 00                  	addi	a2, a1, 1
   12032: 23 3c c4 fc                  	sd	a2, -40(s0)
   12036: 83 c5 05 00                  	lbu	a1, 0(a1)
   1203a: 0d 8d                        	sub	a0, a0, a1
   1203c: 23 2a a4 fc                  	sw	a0, -44(s0)
   12040: 03 25 44 fd                  	lw	a0, -44(s0)
   12044: 81 45                        	mv	a1, zero
   12046: 63 0a b5 00                  	beq	a0, a1, 20
   1204a: 6f 00 40 00                  	j	4
   1204e: 03 25 44 fd                  	lw	a0, -44(s0)
   12052: 23 26 a4 fe                  	sw	a0, -20(s0)
   12056: 6f 00 40 04                  	j	68
   1205a: 6f f0 5f f8                  	j	-124
   1205e: 03 35 04 fe                  	ld	a0, -32(s0)
   12062: 03 45 05 00                  	lbu	a0, 0(a0)
   12066: 83 35 84 fd                  	ld	a1, -40(s0)
   1206a: 83 c5 05 00                  	lbu	a1, 0(a1)
   1206e: 63 01 b5 02                  	beq	a0, a1, 34
   12072: 6f 00 40 00                  	j	4
   12076: 03 35 04 fe                  	ld	a0, -32(s0)
   1207a: 03 45 05 00                  	lbu	a0, 0(a0)
   1207e: 83 35 84 fd                  	ld	a1, -40(s0)
   12082: 83 c5 05 00                  	lbu	a1, 0(a1)
   12086: 0d 8d                        	sub	a0, a0, a1
   12088: 23 26 a4 fe                  	sw	a0, -20(s0)
   1208c: 6f 00 e0 00                  	j	14
   12090: 01 45                        	mv	a0, zero
   12092: 23 26 a4 fe                  	sw	a0, -20(s0)
   12096: 6f 00 40 00                  	j	4
   1209a: 03 25 c4 fe                  	lw	a0, -20(s0)
   1209e: 42 74                        	ld	s0, 48(sp)
   120a0: e2 70                        	ld	ra, 56(sp)
   120a2: 21 61                        	addi	sp, sp, 64
   120a4: 82 80                        	ret

00000000000120a6 strcpy:
   120a6: 79 71                        	addi	sp, sp, -48
   120a8: 06 f4                        	sd	ra, 40(sp)
   120aa: 22 f0                        	sd	s0, 32(sp)
   120ac: 00 18                        	addi	s0, sp, 48
   120ae: 23 34 a4 fe                  	sd	a0, -24(s0)
   120b2: 23 30 b4 fe                  	sd	a1, -32(s0)
   120b6: 03 35 84 fe                  	ld	a0, -24(s0)
   120ba: 23 3c a4 fc                  	sd	a0, -40(s0)
   120be: 6f 00 40 00                  	j	4
   120c2: 03 35 04 fe                  	ld	a0, -32(s0)
   120c6: 93 05 15 00                  	addi	a1, a0, 1
   120ca: 23 30 b4 fe                  	sd	a1, -32(s0)
   120ce: 03 45 05 00                  	lbu	a0, 0(a0)
   120d2: 83 35 84 fe                  	ld	a1, -24(s0)
   120d6: 13 86 15 00                  	addi	a2, a1, 1
   120da: 23 34 c4 fe                  	sd	a2, -24(s0)
   120de: 23 80 a5 00                  	sb	a0, 0(a1)
   120e2: 81 45                        	mv	a1, zero
   120e4: 63 06 b5 00                  	beq	a0, a1, 12
   120e8: 6f 00 40 00                  	j	4
   120ec: 6f f0 7f fd                  	j	-42
   120f0: 03 35 84 fd                  	ld	a0, -40(s0)
   120f4: 02 74                        	ld	s0, 32(sp)
   120f6: a2 70                        	ld	ra, 40(sp)
   120f8: 45 61                        	addi	sp, sp, 48
   120fa: 82 80                        	ret

00000000000120fc strcspn:
   120fc: 39 71                        	addi	sp, sp, -64
   120fe: 06 fc                        	sd	ra, 56(sp)
   12100: 22 f8                        	sd	s0, 48(sp)
   12102: 80 00                        	addi	s0, sp, 64
   12104: 23 30 a4 fe                  	sd	a0, -32(s0)
   12108: 23 3c b4 fc                  	sd	a1, -40(s0)
   1210c: 01 45                        	mv	a0, zero
   1210e: 23 38 a4 fc                  	sd	a0, -48(s0)
   12112: 6f 00 40 00                  	j	4
   12116: 01 45                        	mv	a0, zero
   12118: 63 11 05 0a                  	bnez	a0, 162
   1211c: 6f 00 40 00                  	j	4
   12120: 01 45                        	mv	a0, zero
   12122: 23 26 a4 fc                  	sw	a0, -52(s0)
   12126: 6f 00 40 00                  	j	4
   1212a: 03 35 84 fd                  	ld	a0, -40(s0)
   1212e: 83 25 c4 fc                  	lw	a1, -52(s0)
   12132: 2e 95                        	add	a0, a0, a1
   12134: 03 45 05 00                  	lbu	a0, 0(a0)
   12138: 81 45                        	mv	a1, zero
   1213a: 63 05 b5 04                  	beq	a0, a1, 74
   1213e: 6f 00 40 00                  	j	4
   12142: 03 35 04 fe                  	ld	a0, -32(s0)
   12146: 83 35 04 fd                  	ld	a1, -48(s0)
   1214a: 2e 95                        	add	a0, a0, a1
   1214c: 03 45 05 00                  	lbu	a0, 0(a0)
   12150: 83 35 84 fd                  	ld	a1, -40(s0)
   12154: 03 26 c4 fc                  	lw	a2, -52(s0)
   12158: b2 95                        	add	a1, a1, a2
   1215a: 83 c5 05 00                  	lbu	a1, 0(a1)
   1215e: 63 1a b5 00                  	bne	a0, a1, 20
   12162: 6f 00 40 00                  	j	4
   12166: 03 35 04 fd                  	ld	a0, -48(s0)
   1216a: 23 34 a4 fe                  	sd	a0, -24(s0)
   1216e: 6f 00 c0 04                  	j	76
   12172: 6f 00 40 00                  	j	4
   12176: 03 25 c4 fc                  	lw	a0, -52(s0)
   1217a: 05 05                        	addi	a0, a0, 1
   1217c: 23 26 a4 fc                  	sw	a0, -52(s0)
   12180: 6f f0 bf fa                  	j	-86
   12184: 03 35 04 fe                  	ld	a0, -32(s0)
   12188: 83 35 04 fd                  	ld	a1, -48(s0)
   1218c: 2e 95                        	add	a0, a0, a1
   1218e: 03 45 05 00                  	lbu	a0, 0(a0)
   12192: 81 45                        	mv	a1, zero
   12194: 63 1a b5 00                  	bne	a0, a1, 20
   12198: 6f 00 40 00                  	j	4
   1219c: 03 35 04 fd                  	ld	a0, -48(s0)
   121a0: 23 34 a4 fe                  	sd	a0, -24(s0)
   121a4: 6f 00 60 01                  	j	22
   121a8: 6f 00 40 00                  	j	4
   121ac: 03 35 04 fd                  	ld	a0, -48(s0)
   121b0: 05 05                        	addi	a0, a0, 1
   121b2: 23 38 a4 fc                  	sd	a0, -48(s0)
   121b6: 6f f0 1f f6                  	j	-160
   121ba: 03 35 84 fe                  	ld	a0, -24(s0)
   121be: 42 74                        	ld	s0, 48(sp)
   121c0: e2 70                        	ld	ra, 56(sp)
   121c2: 21 61                        	addi	sp, sp, 64
   121c4: 82 80                        	ret

00000000000121c6 strdup:
   121c6: 01 11                        	addi	sp, sp, -32
   121c8: 06 ec                        	sd	ra, 24(sp)
   121ca: 22 e8                        	sd	s0, 16(sp)
   121cc: 00 10                        	addi	s0, sp, 32
   121ce: 23 34 a4 fe                  	sd	a0, -24(s0)

00000000000121d2 .LBB11_1:
   121d2: 17 65 00 00                  	auipc	a0, 6
   121d6: 13 05 e5 78                  	addi	a0, a0, 1934

00000000000121da .LBB11_2:
   121da: 97 e5 ff ff                  	auipc	a1, 1048574
   121de: 93 85 a5 50                  	addi	a1, a1, 1290

00000000000121e2 .LBB11_3:
   121e2: 97 e6 ff ff                  	auipc	a3, 1048574
   121e6: 93 86 46 28                  	addi	a3, a3, 644
   121ea: 13 06 90 0f                  	addi	a2, zero, 249
   121ee: 97 20 00 00                  	auipc	ra, 2
   121f2: e7 80 a0 a8                  	jalr	-1398(ra)
   121f6: 85 45                        	addi	a1, zero, 1
   121f8: 23 30 a4 fe                  	sd	a0, -32(s0)
   121fc: 2e 85                        	add	a0, zero, a1
   121fe: 97 20 00 00                  	auipc	ra, 2
   12202: e7 80 20 90                  	jalr	-1790(ra)

0000000000012206 strerror:
   12206: 79 71                        	addi	sp, sp, -48
   12208: 06 f4                        	sd	ra, 40(sp)
   1220a: 22 f0                        	sd	s0, 32(sp)
   1220c: 00 18                        	addi	s0, sp, 48
   1220e: aa 85                        	add	a1, zero, a0
   12210: 23 22 a4 fe                  	sw	a0, -28(s0)
   12214: 03 65 44 fe                  	lwu	a0, -28(s0)
   12218: 05 46                        	addi	a2, zero, 1
   1221a: 23 3c a4 fc                  	sd	a0, -40(s0)
   1221e: e3 0e c5 20                  	beq	a0, a2, 2588
   12222: 6f 00 40 00                  	j	4
   12226: 03 35 84 fd                  	ld	a0, -40(s0)
   1222a: 93 15 05 02                  	slli	a1, a0, 32
   1222e: 81 91                        	srli	a1, a1, 32
   12230: 09 46                        	addi	a2, zero, 2
   12232: e3 8c c5 20                  	beq	a1, a2, 2584
   12236: 6f 00 40 00                  	j	4
   1223a: 03 35 84 fd                  	ld	a0, -40(s0)
   1223e: 93 15 05 02                  	slli	a1, a0, 32
   12242: 81 91                        	srli	a1, a1, 32
   12244: 0d 46                        	addi	a2, zero, 3
   12246: e3 8a c5 20                  	beq	a1, a2, 2580
   1224a: 6f 00 40 00                  	j	4
   1224e: 03 35 84 fd                  	ld	a0, -40(s0)
   12252: 93 15 05 02                  	slli	a1, a0, 32
   12256: 81 91                        	srli	a1, a1, 32
   12258: 11 46                        	addi	a2, zero, 4
   1225a: e3 88 c5 20                  	beq	a1, a2, 2576
   1225e: 6f 00 40 00                  	j	4
   12262: 03 35 84 fd                  	ld	a0, -40(s0)
   12266: 93 15 05 02                  	slli	a1, a0, 32
   1226a: 81 91                        	srli	a1, a1, 32
   1226c: 15 46                        	addi	a2, zero, 5
   1226e: e3 86 c5 20                  	beq	a1, a2, 2572
   12272: 6f 00 40 00                  	j	4
   12276: 03 35 84 fd                  	ld	a0, -40(s0)
   1227a: 93 15 05 02                  	slli	a1, a0, 32
   1227e: 81 91                        	srli	a1, a1, 32
   12280: 19 46                        	addi	a2, zero, 6
   12282: e3 84 c5 20                  	beq	a1, a2, 2568
   12286: 6f 00 40 00                  	j	4
   1228a: 03 35 84 fd                  	ld	a0, -40(s0)
   1228e: 93 15 05 02                  	slli	a1, a0, 32
   12292: 81 91                        	srli	a1, a1, 32
   12294: 1d 46                        	addi	a2, zero, 7
   12296: e3 82 c5 20                  	beq	a1, a2, 2564
   1229a: 6f 00 40 00                  	j	4
   1229e: 03 35 84 fd                  	ld	a0, -40(s0)
   122a2: 93 15 05 02                  	slli	a1, a0, 32
   122a6: 81 91                        	srli	a1, a1, 32
   122a8: 21 46                        	addi	a2, zero, 8
   122aa: e3 80 c5 20                  	beq	a1, a2, 2560
   122ae: 6f 00 40 00                  	j	4
   122b2: 03 35 84 fd                  	ld	a0, -40(s0)
   122b6: 93 15 05 02                  	slli	a1, a0, 32
   122ba: 81 91                        	srli	a1, a1, 32
   122bc: 25 46                        	addi	a2, zero, 9
   122be: e3 8e c5 1e                  	beq	a1, a2, 2556
   122c2: 6f 00 40 00                  	j	4
   122c6: 03 35 84 fd                  	ld	a0, -40(s0)
   122ca: 93 15 05 02                  	slli	a1, a0, 32
   122ce: 81 91                        	srli	a1, a1, 32
   122d0: 29 46                        	addi	a2, zero, 10
   122d2: e3 8c c5 1e                  	beq	a1, a2, 2552
   122d6: 6f 00 40 00                  	j	4
   122da: 03 35 84 fd                  	ld	a0, -40(s0)
   122de: 93 15 05 02                  	slli	a1, a0, 32
   122e2: 81 91                        	srli	a1, a1, 32
   122e4: 2d 46                        	addi	a2, zero, 11
   122e6: e3 8a c5 1e                  	beq	a1, a2, 2548
   122ea: 6f 00 40 00                  	j	4
   122ee: 03 35 84 fd                  	ld	a0, -40(s0)
   122f2: 93 15 05 02                  	slli	a1, a0, 32
   122f6: 81 91                        	srli	a1, a1, 32
   122f8: 31 46                        	addi	a2, zero, 12
   122fa: e3 88 c5 1e                  	beq	a1, a2, 2544
   122fe: 6f 00 40 00                  	j	4
   12302: 03 35 84 fd                  	ld	a0, -40(s0)
   12306: 93 15 05 02                  	slli	a1, a0, 32
   1230a: 81 91                        	srli	a1, a1, 32
   1230c: 35 46                        	addi	a2, zero, 13
   1230e: e3 86 c5 1e                  	beq	a1, a2, 2540
   12312: 6f 00 40 00                  	j	4
   12316: 03 35 84 fd                  	ld	a0, -40(s0)
   1231a: 93 15 05 02                  	slli	a1, a0, 32
   1231e: 81 91                        	srli	a1, a1, 32
   12320: 39 46                        	addi	a2, zero, 14
   12322: e3 84 c5 1e                  	beq	a1, a2, 2536
   12326: 6f 00 40 00                  	j	4
   1232a: 03 35 84 fd                  	ld	a0, -40(s0)
   1232e: 93 15 05 02                  	slli	a1, a0, 32
   12332: 81 91                        	srli	a1, a1, 32
   12334: 3d 46                        	addi	a2, zero, 15
   12336: e3 82 c5 1e                  	beq	a1, a2, 2532
   1233a: 6f 00 40 00                  	j	4
   1233e: 03 35 84 fd                  	ld	a0, -40(s0)
   12342: 93 15 05 02                  	slli	a1, a0, 32
   12346: 81 91                        	srli	a1, a1, 32
   12348: 41 46                        	addi	a2, zero, 16
   1234a: e3 80 c5 1e                  	beq	a1, a2, 2528
   1234e: 6f 00 40 00                  	j	4
   12352: 03 35 84 fd                  	ld	a0, -40(s0)
   12356: 93 15 05 02                  	slli	a1, a0, 32
   1235a: 81 91                        	srli	a1, a1, 32
   1235c: 45 46                        	addi	a2, zero, 17
   1235e: e3 8e c5 1c                  	beq	a1, a2, 2524
   12362: 6f 00 40 00                  	j	4
   12366: 03 35 84 fd                  	ld	a0, -40(s0)
   1236a: 93 15 05 02                  	slli	a1, a0, 32
   1236e: 81 91                        	srli	a1, a1, 32
   12370: 49 46                        	addi	a2, zero, 18
   12372: e3 8c c5 1c                  	beq	a1, a2, 2520
   12376: 6f 00 40 00                  	j	4
   1237a: 03 35 84 fd                  	ld	a0, -40(s0)
   1237e: 93 15 05 02                  	slli	a1, a0, 32
   12382: 81 91                        	srli	a1, a1, 32
   12384: 4d 46                        	addi	a2, zero, 19
   12386: e3 8a c5 1c                  	beq	a1, a2, 2516
   1238a: 6f 00 40 00                  	j	4
   1238e: 03 35 84 fd                  	ld	a0, -40(s0)
   12392: 93 15 05 02                  	slli	a1, a0, 32
   12396: 81 91                        	srli	a1, a1, 32
   12398: 51 46                        	addi	a2, zero, 20
   1239a: e3 88 c5 1c                  	beq	a1, a2, 2512
   1239e: 6f 00 40 00                  	j	4
   123a2: 03 35 84 fd                  	ld	a0, -40(s0)
   123a6: 93 15 05 02                  	slli	a1, a0, 32
   123aa: 81 91                        	srli	a1, a1, 32
   123ac: 55 46                        	addi	a2, zero, 21
   123ae: e3 86 c5 1c                  	beq	a1, a2, 2508
   123b2: 6f 00 40 00                  	j	4
   123b6: 03 35 84 fd                  	ld	a0, -40(s0)
   123ba: 93 15 05 02                  	slli	a1, a0, 32
   123be: 81 91                        	srli	a1, a1, 32
   123c0: 59 46                        	addi	a2, zero, 22
   123c2: e3 84 c5 1c                  	beq	a1, a2, 2504
   123c6: 6f 00 40 00                  	j	4
   123ca: 03 35 84 fd                  	ld	a0, -40(s0)
   123ce: 93 15 05 02                  	slli	a1, a0, 32
   123d2: 81 91                        	srli	a1, a1, 32
   123d4: 5d 46                        	addi	a2, zero, 23
   123d6: e3 82 c5 1c                  	beq	a1, a2, 2500
   123da: 6f 00 40 00                  	j	4
   123de: 03 35 84 fd                  	ld	a0, -40(s0)
   123e2: 93 15 05 02                  	slli	a1, a0, 32
   123e6: 81 91                        	srli	a1, a1, 32
   123e8: 61 46                        	addi	a2, zero, 24
   123ea: e3 80 c5 1c                  	beq	a1, a2, 2496
   123ee: 6f 00 40 00                  	j	4
   123f2: 03 35 84 fd                  	ld	a0, -40(s0)
   123f6: 93 15 05 02                  	slli	a1, a0, 32
   123fa: 81 91                        	srli	a1, a1, 32
   123fc: 65 46                        	addi	a2, zero, 25
   123fe: e3 8e c5 1a                  	beq	a1, a2, 2492
   12402: 6f 00 40 00                  	j	4
   12406: 03 35 84 fd                  	ld	a0, -40(s0)
   1240a: 93 15 05 02                  	slli	a1, a0, 32
   1240e: 81 91                        	srli	a1, a1, 32
   12410: 69 46                        	addi	a2, zero, 26
   12412: e3 8c c5 1a                  	beq	a1, a2, 2488
   12416: 6f 00 40 00                  	j	4
   1241a: 03 35 84 fd                  	ld	a0, -40(s0)
   1241e: 93 15 05 02                  	slli	a1, a0, 32
   12422: 81 91                        	srli	a1, a1, 32
   12424: 6d 46                        	addi	a2, zero, 27
   12426: e3 8a c5 1a                  	beq	a1, a2, 2484
   1242a: 6f 00 40 00                  	j	4
   1242e: 03 35 84 fd                  	ld	a0, -40(s0)
   12432: 93 15 05 02                  	slli	a1, a0, 32
   12436: 81 91                        	srli	a1, a1, 32
   12438: 71 46                        	addi	a2, zero, 28
   1243a: e3 88 c5 1a                  	beq	a1, a2, 2480
   1243e: 6f 00 40 00                  	j	4
   12442: 03 35 84 fd                  	ld	a0, -40(s0)
   12446: 93 15 05 02                  	slli	a1, a0, 32
   1244a: 81 91                        	srli	a1, a1, 32
   1244c: 75 46                        	addi	a2, zero, 29
   1244e: e3 86 c5 1a                  	beq	a1, a2, 2476
   12452: 6f 00 40 00                  	j	4
   12456: 03 35 84 fd                  	ld	a0, -40(s0)
   1245a: 93 15 05 02                  	slli	a1, a0, 32
   1245e: 81 91                        	srli	a1, a1, 32
   12460: 79 46                        	addi	a2, zero, 30
   12462: e3 84 c5 1a                  	beq	a1, a2, 2472
   12466: 6f 00 40 00                  	j	4
   1246a: 03 35 84 fd                  	ld	a0, -40(s0)
   1246e: 93 15 05 02                  	slli	a1, a0, 32
   12472: 81 91                        	srli	a1, a1, 32
   12474: 7d 46                        	addi	a2, zero, 31
   12476: e3 82 c5 1a                  	beq	a1, a2, 2468
   1247a: 6f 00 40 00                  	j	4
   1247e: 03 35 84 fd                  	ld	a0, -40(s0)
   12482: 93 15 05 02                  	slli	a1, a0, 32
   12486: 81 91                        	srli	a1, a1, 32
   12488: 13 06 00 02                  	addi	a2, zero, 32
   1248c: e3 8f c5 18                  	beq	a1, a2, 2462
   12490: 6f 00 40 00                  	j	4
   12494: 03 35 84 fd                  	ld	a0, -40(s0)
   12498: 93 15 05 02                  	slli	a1, a0, 32
   1249c: 81 91                        	srli	a1, a1, 32
   1249e: 13 06 10 02                  	addi	a2, zero, 33
   124a2: e3 8c c5 18                  	beq	a1, a2, 2456
   124a6: 6f 00 40 00                  	j	4
   124aa: 03 35 84 fd                  	ld	a0, -40(s0)
   124ae: 93 15 05 02                  	slli	a1, a0, 32
   124b2: 81 91                        	srli	a1, a1, 32
   124b4: 13 06 20 02                  	addi	a2, zero, 34
   124b8: e3 89 c5 18                  	beq	a1, a2, 2450
   124bc: 6f 00 40 00                  	j	4
   124c0: 03 35 84 fd                  	ld	a0, -40(s0)
   124c4: 93 15 05 02                  	slli	a1, a0, 32
   124c8: 81 91                        	srli	a1, a1, 32
   124ca: 13 06 30 02                  	addi	a2, zero, 35
   124ce: e3 86 c5 18                  	beq	a1, a2, 2444
   124d2: 6f 00 40 00                  	j	4
   124d6: 03 35 84 fd                  	ld	a0, -40(s0)
   124da: 93 15 05 02                  	slli	a1, a0, 32
   124de: 81 91                        	srli	a1, a1, 32
   124e0: 13 06 40 02                  	addi	a2, zero, 36
   124e4: e3 83 c5 18                  	beq	a1, a2, 2438
   124e8: 6f 00 40 00                  	j	4
   124ec: 03 35 84 fd                  	ld	a0, -40(s0)
   124f0: 93 15 05 02                  	slli	a1, a0, 32
   124f4: 81 91                        	srli	a1, a1, 32
   124f6: 13 06 50 02                  	addi	a2, zero, 37
   124fa: e3 80 c5 18                  	beq	a1, a2, 2432
   124fe: 6f 00 40 00                  	j	4
   12502: 03 35 84 fd                  	ld	a0, -40(s0)
   12506: 93 15 05 02                  	slli	a1, a0, 32
   1250a: 81 91                        	srli	a1, a1, 32
   1250c: 13 06 60 02                  	addi	a2, zero, 38
   12510: e3 8d c5 16                  	beq	a1, a2, 2426
   12514: 6f 00 40 00                  	j	4
   12518: 03 35 84 fd                  	ld	a0, -40(s0)
   1251c: 93 15 05 02                  	slli	a1, a0, 32
   12520: 81 91                        	srli	a1, a1, 32
   12522: 13 06 70 02                  	addi	a2, zero, 39
   12526: e3 8a c5 16                  	beq	a1, a2, 2420
   1252a: 6f 00 40 00                  	j	4
   1252e: 03 35 84 fd                  	ld	a0, -40(s0)
   12532: 93 15 05 02                  	slli	a1, a0, 32
   12536: 81 91                        	srli	a1, a1, 32
   12538: 13 06 80 02                  	addi	a2, zero, 40
   1253c: e3 87 c5 16                  	beq	a1, a2, 2414
   12540: 6f 00 40 00                  	j	4
   12544: 03 35 84 fd                  	ld	a0, -40(s0)
   12548: 93 15 05 02                  	slli	a1, a0, 32
   1254c: 81 91                        	srli	a1, a1, 32
   1254e: 13 06 90 02                  	addi	a2, zero, 41
   12552: e3 84 c5 16                  	beq	a1, a2, 2408
   12556: 6f 00 40 00                  	j	4
   1255a: 03 35 84 fd                  	ld	a0, -40(s0)
   1255e: 93 15 05 02                  	slli	a1, a0, 32
   12562: 81 91                        	srli	a1, a1, 32
   12564: 13 06 a0 02                  	addi	a2, zero, 42
   12568: e3 81 c5 16                  	beq	a1, a2, 2402
   1256c: 6f 00 40 00                  	j	4
   12570: 03 35 84 fd                  	ld	a0, -40(s0)
   12574: 93 15 05 02                  	slli	a1, a0, 32
   12578: 81 91                        	srli	a1, a1, 32
   1257a: 13 06 b0 02                  	addi	a2, zero, 43
   1257e: e3 8e c5 14                  	beq	a1, a2, 2396
   12582: 6f 00 40 00                  	j	4
   12586: 03 35 84 fd                  	ld	a0, -40(s0)
   1258a: 93 15 05 02                  	slli	a1, a0, 32
   1258e: 81 91                        	srli	a1, a1, 32
   12590: 13 06 c0 02                  	addi	a2, zero, 44
   12594: e3 8b c5 14                  	beq	a1, a2, 2390
   12598: 6f 00 40 00                  	j	4
   1259c: 03 35 84 fd                  	ld	a0, -40(s0)
   125a0: 93 15 05 02                  	slli	a1, a0, 32
   125a4: 81 91                        	srli	a1, a1, 32
   125a6: 13 06 d0 02                  	addi	a2, zero, 45
   125aa: e3 88 c5 14                  	beq	a1, a2, 2384
   125ae: 6f 00 40 00                  	j	4
   125b2: 03 35 84 fd                  	ld	a0, -40(s0)
   125b6: 93 15 05 02                  	slli	a1, a0, 32
   125ba: 81 91                        	srli	a1, a1, 32
   125bc: 13 06 e0 02                  	addi	a2, zero, 46
   125c0: e3 85 c5 14                  	beq	a1, a2, 2378
   125c4: 6f 00 40 00                  	j	4
   125c8: 03 35 84 fd                  	ld	a0, -40(s0)
   125cc: 93 15 05 02                  	slli	a1, a0, 32
   125d0: 81 91                        	srli	a1, a1, 32
   125d2: 13 06 f0 02                  	addi	a2, zero, 47
   125d6: e3 82 c5 14                  	beq	a1, a2, 2372
   125da: 6f 00 40 00                  	j	4
   125de: 03 35 84 fd                  	ld	a0, -40(s0)
   125e2: 93 15 05 02                  	slli	a1, a0, 32
   125e6: 81 91                        	srli	a1, a1, 32
   125e8: 13 06 00 03                  	addi	a2, zero, 48
   125ec: e3 8f c5 12                  	beq	a1, a2, 2366
   125f0: 6f 00 40 00                  	j	4
   125f4: 03 35 84 fd                  	ld	a0, -40(s0)
   125f8: 93 15 05 02                  	slli	a1, a0, 32
   125fc: 81 91                        	srli	a1, a1, 32
   125fe: 13 06 10 03                  	addi	a2, zero, 49
   12602: e3 8c c5 12                  	beq	a1, a2, 2360
   12606: 6f 00 40 00                  	j	4
   1260a: 03 35 84 fd                  	ld	a0, -40(s0)
   1260e: 93 15 05 02                  	slli	a1, a0, 32
   12612: 81 91                        	srli	a1, a1, 32
   12614: 13 06 20 03                  	addi	a2, zero, 50
   12618: e3 89 c5 12                  	beq	a1, a2, 2354
   1261c: 6f 00 40 00                  	j	4
   12620: 03 35 84 fd                  	ld	a0, -40(s0)
   12624: 93 15 05 02                  	slli	a1, a0, 32
   12628: 81 91                        	srli	a1, a1, 32
   1262a: 13 06 30 03                  	addi	a2, zero, 51
   1262e: e3 86 c5 12                  	beq	a1, a2, 2348
   12632: 6f 00 40 00                  	j	4
   12636: 03 35 84 fd                  	ld	a0, -40(s0)
   1263a: 93 15 05 02                  	slli	a1, a0, 32
   1263e: 81 91                        	srli	a1, a1, 32
   12640: 13 06 40 03                  	addi	a2, zero, 52
   12644: e3 83 c5 12                  	beq	a1, a2, 2342
   12648: 6f 00 40 00                  	j	4
   1264c: 03 35 84 fd                  	ld	a0, -40(s0)
   12650: 93 15 05 02                  	slli	a1, a0, 32
   12654: 81 91                        	srli	a1, a1, 32
   12656: 13 06 50 03                  	addi	a2, zero, 53
   1265a: e3 80 c5 12                  	beq	a1, a2, 2336
   1265e: 6f 00 40 00                  	j	4
   12662: 03 35 84 fd                  	ld	a0, -40(s0)
   12666: 93 15 05 02                  	slli	a1, a0, 32
   1266a: 81 91                        	srli	a1, a1, 32
   1266c: 13 06 60 03                  	addi	a2, zero, 54
   12670: e3 8d c5 10                  	beq	a1, a2, 2330
   12674: 6f 00 40 00                  	j	4
   12678: 03 35 84 fd                  	ld	a0, -40(s0)
   1267c: 93 15 05 02                  	slli	a1, a0, 32
   12680: 81 91                        	srli	a1, a1, 32
   12682: 13 06 70 03                  	addi	a2, zero, 55
   12686: e3 8a c5 10                  	beq	a1, a2, 2324
   1268a: 6f 00 40 00                  	j	4
   1268e: 03 35 84 fd                  	ld	a0, -40(s0)
   12692: 93 15 05 02                  	slli	a1, a0, 32
   12696: 81 91                        	srli	a1, a1, 32
   12698: 13 06 80 03                  	addi	a2, zero, 56
   1269c: e3 87 c5 10                  	beq	a1, a2, 2318
   126a0: 6f 00 40 00                  	j	4
   126a4: 03 35 84 fd                  	ld	a0, -40(s0)
   126a8: 93 15 05 02                  	slli	a1, a0, 32
   126ac: 81 91                        	srli	a1, a1, 32
   126ae: 13 06 90 03                  	addi	a2, zero, 57
   126b2: e3 84 c5 10                  	beq	a1, a2, 2312
   126b6: 6f 00 40 00                  	j	4
   126ba: 03 35 84 fd                  	ld	a0, -40(s0)
   126be: 93 15 05 02                  	slli	a1, a0, 32
   126c2: 81 91                        	srli	a1, a1, 32
   126c4: 13 06 a0 03                  	addi	a2, zero, 58
   126c8: e3 81 c5 10                  	beq	a1, a2, 2306
   126cc: 6f 00 40 00                  	j	4
   126d0: 03 35 84 fd                  	ld	a0, -40(s0)
   126d4: 93 15 05 02                  	slli	a1, a0, 32
   126d8: 81 91                        	srli	a1, a1, 32
   126da: 13 06 b0 03                  	addi	a2, zero, 59
   126de: e3 8e c5 0e                  	beq	a1, a2, 2300
   126e2: 6f 00 40 00                  	j	4
   126e6: 03 35 84 fd                  	ld	a0, -40(s0)
   126ea: 93 15 05 02                  	slli	a1, a0, 32
   126ee: 81 91                        	srli	a1, a1, 32
   126f0: 13 06 c0 03                  	addi	a2, zero, 60
   126f4: e3 8b c5 0e                  	beq	a1, a2, 2294
   126f8: 6f 00 40 00                  	j	4
   126fc: 03 35 84 fd                  	ld	a0, -40(s0)
   12700: 93 15 05 02                  	slli	a1, a0, 32
   12704: 81 91                        	srli	a1, a1, 32
   12706: 13 06 d0 03                  	addi	a2, zero, 61
   1270a: e3 88 c5 0e                  	beq	a1, a2, 2288
   1270e: 6f 00 40 00                  	j	4
   12712: 03 35 84 fd                  	ld	a0, -40(s0)
   12716: 93 15 05 02                  	slli	a1, a0, 32
   1271a: 81 91                        	srli	a1, a1, 32
   1271c: 13 06 e0 03                  	addi	a2, zero, 62
   12720: e3 85 c5 0e                  	beq	a1, a2, 2282
   12724: 6f 00 40 00                  	j	4
   12728: 03 35 84 fd                  	ld	a0, -40(s0)
   1272c: 93 15 05 02                  	slli	a1, a0, 32
   12730: 81 91                        	srli	a1, a1, 32
   12732: 13 06 f0 03                  	addi	a2, zero, 63
   12736: e3 82 c5 0e                  	beq	a1, a2, 2276
   1273a: 6f 00 40 00                  	j	4
   1273e: 03 35 84 fd                  	ld	a0, -40(s0)
   12742: 93 15 05 02                  	slli	a1, a0, 32
   12746: 81 91                        	srli	a1, a1, 32
   12748: 13 06 00 04                  	addi	a2, zero, 64
   1274c: e3 8f c5 0c                  	beq	a1, a2, 2270
   12750: 6f 00 40 00                  	j	4
   12754: 03 35 84 fd                  	ld	a0, -40(s0)
   12758: 93 15 05 02                  	slli	a1, a0, 32
   1275c: 81 91                        	srli	a1, a1, 32
   1275e: 13 06 10 04                  	addi	a2, zero, 65
   12762: e3 8c c5 0c                  	beq	a1, a2, 2264
   12766: 6f 00 40 00                  	j	4
   1276a: 03 35 84 fd                  	ld	a0, -40(s0)
   1276e: 93 15 05 02                  	slli	a1, a0, 32
   12772: 81 91                        	srli	a1, a1, 32
   12774: 13 06 20 04                  	addi	a2, zero, 66
   12778: e3 89 c5 0c                  	beq	a1, a2, 2258
   1277c: 6f 00 40 00                  	j	4
   12780: 03 35 84 fd                  	ld	a0, -40(s0)
   12784: 93 15 05 02                  	slli	a1, a0, 32
   12788: 81 91                        	srli	a1, a1, 32
   1278a: 13 06 30 04                  	addi	a2, zero, 67
   1278e: e3 86 c5 0c                  	beq	a1, a2, 2252
   12792: 6f 00 40 00                  	j	4
   12796: 03 35 84 fd                  	ld	a0, -40(s0)
   1279a: 93 15 05 02                  	slli	a1, a0, 32
   1279e: 81 91                        	srli	a1, a1, 32
   127a0: 13 06 40 04                  	addi	a2, zero, 68
   127a4: e3 83 c5 0c                  	beq	a1, a2, 2246
   127a8: 6f 00 40 00                  	j	4
   127ac: 03 35 84 fd                  	ld	a0, -40(s0)
   127b0: 93 15 05 02                  	slli	a1, a0, 32
   127b4: 81 91                        	srli	a1, a1, 32
   127b6: 13 06 50 04                  	addi	a2, zero, 69
   127ba: e3 80 c5 0c                  	beq	a1, a2, 2240
   127be: 6f 00 40 00                  	j	4
   127c2: 03 35 84 fd                  	ld	a0, -40(s0)
   127c6: 93 15 05 02                  	slli	a1, a0, 32
   127ca: 81 91                        	srli	a1, a1, 32
   127cc: 13 06 60 04                  	addi	a2, zero, 70
   127d0: e3 8d c5 0a                  	beq	a1, a2, 2234
   127d4: 6f 00 40 00                  	j	4
   127d8: 03 35 84 fd                  	ld	a0, -40(s0)
   127dc: 93 15 05 02                  	slli	a1, a0, 32
   127e0: 81 91                        	srli	a1, a1, 32
   127e2: 13 06 70 04                  	addi	a2, zero, 71
   127e6: e3 8a c5 0a                  	beq	a1, a2, 2228
   127ea: 6f 00 40 00                  	j	4
   127ee: 03 35 84 fd                  	ld	a0, -40(s0)
   127f2: 93 15 05 02                  	slli	a1, a0, 32
   127f6: 81 91                        	srli	a1, a1, 32
   127f8: 13 06 80 04                  	addi	a2, zero, 72
   127fc: e3 87 c5 0a                  	beq	a1, a2, 2222
   12800: 6f 00 40 00                  	j	4
   12804: 03 35 84 fd                  	ld	a0, -40(s0)
   12808: 93 15 05 02                  	slli	a1, a0, 32
   1280c: 81 91                        	srli	a1, a1, 32
   1280e: 13 06 90 04                  	addi	a2, zero, 73
   12812: e3 84 c5 0a                  	beq	a1, a2, 2216
   12816: 6f 00 40 00                  	j	4
   1281a: 03 35 84 fd                  	ld	a0, -40(s0)
   1281e: 93 15 05 02                  	slli	a1, a0, 32
   12822: 81 91                        	srli	a1, a1, 32
   12824: 13 06 a0 04                  	addi	a2, zero, 74
   12828: e3 81 c5 0a                  	beq	a1, a2, 2210
   1282c: 6f 00 40 00                  	j	4
   12830: 03 35 84 fd                  	ld	a0, -40(s0)
   12834: 93 15 05 02                  	slli	a1, a0, 32
   12838: 81 91                        	srli	a1, a1, 32
   1283a: 13 06 b0 04                  	addi	a2, zero, 75
   1283e: e3 8e c5 08                  	beq	a1, a2, 2204
   12842: 6f 00 40 00                  	j	4
   12846: 03 35 84 fd                  	ld	a0, -40(s0)
   1284a: 93 15 05 02                  	slli	a1, a0, 32
   1284e: 81 91                        	srli	a1, a1, 32
   12850: 13 06 c0 04                  	addi	a2, zero, 76
   12854: e3 8b c5 08                  	beq	a1, a2, 2198
   12858: 6f 00 40 00                  	j	4
   1285c: 03 35 84 fd                  	ld	a0, -40(s0)
   12860: 93 15 05 02                  	slli	a1, a0, 32
   12864: 81 91                        	srli	a1, a1, 32
   12866: 13 06 d0 04                  	addi	a2, zero, 77
   1286a: e3 88 c5 08                  	beq	a1, a2, 2192
   1286e: 6f 00 40 00                  	j	4
   12872: 03 35 84 fd                  	ld	a0, -40(s0)
   12876: 93 15 05 02                  	slli	a1, a0, 32
   1287a: 81 91                        	srli	a1, a1, 32
   1287c: 13 06 e0 04                  	addi	a2, zero, 78
   12880: e3 85 c5 08                  	beq	a1, a2, 2186
   12884: 6f 00 40 00                  	j	4
   12888: 03 35 84 fd                  	ld	a0, -40(s0)
   1288c: 93 15 05 02                  	slli	a1, a0, 32
   12890: 81 91                        	srli	a1, a1, 32
   12892: 13 06 f0 04                  	addi	a2, zero, 79
   12896: e3 82 c5 08                  	beq	a1, a2, 2180
   1289a: 6f 00 40 00                  	j	4
   1289e: 03 35 84 fd                  	ld	a0, -40(s0)
   128a2: 93 15 05 02                  	slli	a1, a0, 32
   128a6: 81 91                        	srli	a1, a1, 32
   128a8: 13 06 00 05                  	addi	a2, zero, 80
   128ac: e3 8f c5 06                  	beq	a1, a2, 2174
   128b0: 6f 00 40 00                  	j	4
   128b4: 03 35 84 fd                  	ld	a0, -40(s0)
   128b8: 93 15 05 02                  	slli	a1, a0, 32
   128bc: 81 91                        	srli	a1, a1, 32
   128be: 13 06 10 05                  	addi	a2, zero, 81
   128c2: e3 8c c5 06                  	beq	a1, a2, 2168
   128c6: 6f 00 40 00                  	j	4
   128ca: 03 35 84 fd                  	ld	a0, -40(s0)
   128ce: 93 15 05 02                  	slli	a1, a0, 32
   128d2: 81 91                        	srli	a1, a1, 32
   128d4: 13 06 20 05                  	addi	a2, zero, 82
   128d8: e3 89 c5 06                  	beq	a1, a2, 2162
   128dc: 6f 00 40 00                  	j	4
   128e0: 03 35 84 fd                  	ld	a0, -40(s0)
   128e4: 93 15 05 02                  	slli	a1, a0, 32
   128e8: 81 91                        	srli	a1, a1, 32
   128ea: 13 06 30 05                  	addi	a2, zero, 83
   128ee: e3 86 c5 06                  	beq	a1, a2, 2156
   128f2: 6f 00 40 00                  	j	4
   128f6: 03 35 84 fd                  	ld	a0, -40(s0)
   128fa: 93 15 05 02                  	slli	a1, a0, 32
   128fe: 81 91                        	srli	a1, a1, 32
   12900: 13 06 40 05                  	addi	a2, zero, 84
   12904: e3 83 c5 06                  	beq	a1, a2, 2150
   12908: 6f 00 40 00                  	j	4
   1290c: 03 35 84 fd                  	ld	a0, -40(s0)
   12910: 93 15 05 02                  	slli	a1, a0, 32
   12914: 81 91                        	srli	a1, a1, 32
   12916: 13 06 50 05                  	addi	a2, zero, 85
   1291a: e3 80 c5 06                  	beq	a1, a2, 2144
   1291e: 6f 00 40 00                  	j	4
   12922: 03 35 84 fd                  	ld	a0, -40(s0)
   12926: 93 15 05 02                  	slli	a1, a0, 32
   1292a: 81 91                        	srli	a1, a1, 32
   1292c: 13 06 60 05                  	addi	a2, zero, 86
   12930: e3 8d c5 04                  	beq	a1, a2, 2138
   12934: 6f 00 40 00                  	j	4
   12938: 03 35 84 fd                  	ld	a0, -40(s0)
   1293c: 93 15 05 02                  	slli	a1, a0, 32
   12940: 81 91                        	srli	a1, a1, 32
   12942: 13 06 70 05                  	addi	a2, zero, 87
   12946: e3 8a c5 04                  	beq	a1, a2, 2132
   1294a: 6f 00 40 00                  	j	4
   1294e: 03 35 84 fd                  	ld	a0, -40(s0)
   12952: 93 15 05 02                  	slli	a1, a0, 32
   12956: 81 91                        	srli	a1, a1, 32
   12958: 13 06 80 05                  	addi	a2, zero, 88
   1295c: e3 87 c5 04                  	beq	a1, a2, 2126
   12960: 6f 00 40 00                  	j	4
   12964: 03 35 84 fd                  	ld	a0, -40(s0)
   12968: 93 15 05 02                  	slli	a1, a0, 32
   1296c: 81 91                        	srli	a1, a1, 32
   1296e: 13 06 90 05                  	addi	a2, zero, 89
   12972: e3 84 c5 04                  	beq	a1, a2, 2120
   12976: 6f 00 40 00                  	j	4
   1297a: 03 35 84 fd                  	ld	a0, -40(s0)
   1297e: 93 15 05 02                  	slli	a1, a0, 32
   12982: 81 91                        	srli	a1, a1, 32
   12984: 13 06 a0 05                  	addi	a2, zero, 90
   12988: e3 81 c5 04                  	beq	a1, a2, 2114
   1298c: 6f 00 40 00                  	j	4
   12990: 03 35 84 fd                  	ld	a0, -40(s0)
   12994: 93 15 05 02                  	slli	a1, a0, 32
   12998: 81 91                        	srli	a1, a1, 32
   1299a: 13 06 b0 05                  	addi	a2, zero, 91
   1299e: e3 8e c5 02                  	beq	a1, a2, 2108
   129a2: 6f 00 40 00                  	j	4
   129a6: 03 35 84 fd                  	ld	a0, -40(s0)
   129aa: 93 15 05 02                  	slli	a1, a0, 32
   129ae: 81 91                        	srli	a1, a1, 32
   129b0: 13 06 c0 05                  	addi	a2, zero, 92
   129b4: e3 8b c5 02                  	beq	a1, a2, 2102
   129b8: 6f 00 40 00                  	j	4
   129bc: 03 35 84 fd                  	ld	a0, -40(s0)
   129c0: 93 15 05 02                  	slli	a1, a0, 32
   129c4: 81 91                        	srli	a1, a1, 32
   129c6: 13 06 d0 05                  	addi	a2, zero, 93
   129ca: e3 88 c5 02                  	beq	a1, a2, 2096
   129ce: 6f 00 40 00                  	j	4
   129d2: 03 35 84 fd                  	ld	a0, -40(s0)
   129d6: 93 15 05 02                  	slli	a1, a0, 32
   129da: 81 91                        	srli	a1, a1, 32
   129dc: 13 06 e0 05                  	addi	a2, zero, 94
   129e0: e3 85 c5 02                  	beq	a1, a2, 2090
   129e4: 6f 00 40 00                  	j	4
   129e8: 03 35 84 fd                  	ld	a0, -40(s0)
   129ec: 93 15 05 02                  	slli	a1, a0, 32
   129f0: 81 91                        	srli	a1, a1, 32
   129f2: 13 06 f0 05                  	addi	a2, zero, 95
   129f6: e3 82 c5 02                  	beq	a1, a2, 2084
   129fa: 6f 00 40 00                  	j	4
   129fe: 03 35 84 fd                  	ld	a0, -40(s0)
   12a02: 93 15 05 02                  	slli	a1, a0, 32
   12a06: 81 91                        	srli	a1, a1, 32
   12a08: 13 06 00 06                  	addi	a2, zero, 96
   12a0c: e3 8f c5 00                  	beq	a1, a2, 2078
   12a10: 6f 00 40 00                  	j	4
   12a14: 03 35 84 fd                  	ld	a0, -40(s0)
   12a18: 93 15 05 02                  	slli	a1, a0, 32
   12a1c: 81 91                        	srli	a1, a1, 32
   12a1e: 13 06 10 06                  	addi	a2, zero, 97
   12a22: e3 8c c5 00                  	beq	a1, a2, 2072
   12a26: 6f 00 40 00                  	j	4
   12a2a: 03 35 84 fd                  	ld	a0, -40(s0)
   12a2e: 93 15 05 02                  	slli	a1, a0, 32
   12a32: 81 91                        	srli	a1, a1, 32
   12a34: 13 06 20 06                  	addi	a2, zero, 98
   12a38: e3 89 c5 00                  	beq	a1, a2, 2066
   12a3c: 6f 00 40 00                  	j	4
   12a40: 03 35 84 fd                  	ld	a0, -40(s0)
   12a44: 93 15 05 02                  	slli	a1, a0, 32
   12a48: 81 91                        	srli	a1, a1, 32
   12a4a: 13 06 30 06                  	addi	a2, zero, 99
   12a4e: e3 86 c5 00                  	beq	a1, a2, 2060
   12a52: 6f 00 40 00                  	j	4
   12a56: 03 35 84 fd                  	ld	a0, -40(s0)
   12a5a: 93 15 05 02                  	slli	a1, a0, 32
   12a5e: 81 91                        	srli	a1, a1, 32
   12a60: 13 06 40 06                  	addi	a2, zero, 100
   12a64: e3 83 c5 00                  	beq	a1, a2, 2054
   12a68: 6f 00 40 00                  	j	4
   12a6c: 03 35 84 fd                  	ld	a0, -40(s0)
   12a70: 93 15 05 02                  	slli	a1, a0, 32
   12a74: 81 91                        	srli	a1, a1, 32
   12a76: 13 06 50 06                  	addi	a2, zero, 101
   12a7a: e3 80 c5 00                  	beq	a1, a2, 2048
   12a7e: 6f 00 40 00                  	j	4
   12a82: 03 35 84 fd                  	ld	a0, -40(s0)
   12a86: 93 15 05 02                  	slli	a1, a0, 32
   12a8a: 81 91                        	srli	a1, a1, 32
   12a8c: 13 06 60 06                  	addi	a2, zero, 102
   12a90: 63 8d c5 7e                  	beq	a1, a2, 2042
   12a94: 6f 00 40 00                  	j	4
   12a98: 03 35 84 fd                  	ld	a0, -40(s0)
   12a9c: 93 15 05 02                  	slli	a1, a0, 32
   12aa0: 81 91                        	srli	a1, a1, 32
   12aa2: 13 06 70 06                  	addi	a2, zero, 103
   12aa6: 63 8a c5 7e                  	beq	a1, a2, 2036
   12aaa: 6f 00 40 00                  	j	4
   12aae: 03 35 84 fd                  	ld	a0, -40(s0)
   12ab2: 93 15 05 02                  	slli	a1, a0, 32
   12ab6: 81 91                        	srli	a1, a1, 32
   12ab8: 13 06 80 06                  	addi	a2, zero, 104
   12abc: 63 87 c5 7e                  	beq	a1, a2, 2030
   12ac0: 6f 00 40 00                  	j	4
   12ac4: 03 35 84 fd                  	ld	a0, -40(s0)
   12ac8: 93 15 05 02                  	slli	a1, a0, 32
   12acc: 81 91                        	srli	a1, a1, 32
   12ace: 13 06 90 06                  	addi	a2, zero, 105
   12ad2: 63 84 c5 7e                  	beq	a1, a2, 2024
   12ad6: 6f 00 40 00                  	j	4
   12ada: 03 35 84 fd                  	ld	a0, -40(s0)
   12ade: 93 15 05 02                  	slli	a1, a0, 32
   12ae2: 81 91                        	srli	a1, a1, 32
   12ae4: 13 06 a0 06                  	addi	a2, zero, 106
   12ae8: 63 81 c5 7e                  	beq	a1, a2, 2018
   12aec: 6f 00 40 00                  	j	4
   12af0: 03 35 84 fd                  	ld	a0, -40(s0)
   12af4: 93 15 05 02                  	slli	a1, a0, 32
   12af8: 81 91                        	srli	a1, a1, 32
   12afa: 13 06 b0 06                  	addi	a2, zero, 107
   12afe: 63 8e c5 7c                  	beq	a1, a2, 2012
   12b02: 6f 00 40 00                  	j	4
   12b06: 03 35 84 fd                  	ld	a0, -40(s0)
   12b0a: 93 15 05 02                  	slli	a1, a0, 32
   12b0e: 81 91                        	srli	a1, a1, 32
   12b10: 13 06 c0 06                  	addi	a2, zero, 108
   12b14: 63 8b c5 7c                  	beq	a1, a2, 2006
   12b18: 6f 00 40 00                  	j	4
   12b1c: 03 35 84 fd                  	ld	a0, -40(s0)
   12b20: 93 15 05 02                  	slli	a1, a0, 32
   12b24: 81 91                        	srli	a1, a1, 32
   12b26: 13 06 d0 06                  	addi	a2, zero, 109
   12b2a: 63 88 c5 7c                  	beq	a1, a2, 2000
   12b2e: 6f 00 40 00                  	j	4
   12b32: 03 35 84 fd                  	ld	a0, -40(s0)
   12b36: 93 15 05 02                  	slli	a1, a0, 32
   12b3a: 81 91                        	srli	a1, a1, 32
   12b3c: 13 06 e0 06                  	addi	a2, zero, 110
   12b40: 63 85 c5 7c                  	beq	a1, a2, 1994
   12b44: 6f 00 40 00                  	j	4
   12b48: 03 35 84 fd                  	ld	a0, -40(s0)
   12b4c: 93 15 05 02                  	slli	a1, a0, 32
   12b50: 81 91                        	srli	a1, a1, 32
   12b52: 13 06 f0 06                  	addi	a2, zero, 111
   12b56: 63 82 c5 7c                  	beq	a1, a2, 1988
   12b5a: 6f 00 40 00                  	j	4
   12b5e: 03 35 84 fd                  	ld	a0, -40(s0)
   12b62: 93 15 05 02                  	slli	a1, a0, 32
   12b66: 81 91                        	srli	a1, a1, 32
   12b68: 13 06 00 07                  	addi	a2, zero, 112
   12b6c: 63 8f c5 7a                  	beq	a1, a2, 1982
   12b70: 6f 00 40 00                  	j	4
   12b74: 03 35 84 fd                  	ld	a0, -40(s0)
   12b78: 93 15 05 02                  	slli	a1, a0, 32
   12b7c: 81 91                        	srli	a1, a1, 32
   12b7e: 13 06 10 07                  	addi	a2, zero, 113
   12b82: 63 8c c5 7a                  	beq	a1, a2, 1976
   12b86: 6f 00 40 00                  	j	4
   12b8a: 03 35 84 fd                  	ld	a0, -40(s0)
   12b8e: 93 15 05 02                  	slli	a1, a0, 32
   12b92: 81 91                        	srli	a1, a1, 32
   12b94: 13 06 20 07                  	addi	a2, zero, 114
   12b98: 63 89 c5 7a                  	beq	a1, a2, 1970
   12b9c: 6f 00 40 00                  	j	4
   12ba0: 03 35 84 fd                  	ld	a0, -40(s0)
   12ba4: 93 15 05 02                  	slli	a1, a0, 32
   12ba8: 81 91                        	srli	a1, a1, 32
   12baa: 13 06 30 07                  	addi	a2, zero, 115
   12bae: 63 86 c5 7a                  	beq	a1, a2, 1964
   12bb2: 6f 00 40 00                  	j	4
   12bb6: 03 35 84 fd                  	ld	a0, -40(s0)
   12bba: 93 15 05 02                  	slli	a1, a0, 32
   12bbe: 81 91                        	srli	a1, a1, 32
   12bc0: 13 06 40 07                  	addi	a2, zero, 116
   12bc4: 63 83 c5 7a                  	beq	a1, a2, 1958
   12bc8: 6f 00 40 00                  	j	4
   12bcc: 03 35 84 fd                  	ld	a0, -40(s0)
   12bd0: 93 15 05 02                  	slli	a1, a0, 32
   12bd4: 81 91                        	srli	a1, a1, 32
   12bd6: 13 06 50 07                  	addi	a2, zero, 117
   12bda: 63 80 c5 7a                  	beq	a1, a2, 1952
   12bde: 6f 00 40 00                  	j	4
   12be2: 03 35 84 fd                  	ld	a0, -40(s0)
   12be6: 93 15 05 02                  	slli	a1, a0, 32
   12bea: 81 91                        	srli	a1, a1, 32
   12bec: 13 06 60 07                  	addi	a2, zero, 118
   12bf0: 63 8d c5 78                  	beq	a1, a2, 1946
   12bf4: 6f 00 40 00                  	j	4
   12bf8: 03 35 84 fd                  	ld	a0, -40(s0)
   12bfc: 93 15 05 02                  	slli	a1, a0, 32
   12c00: 81 91                        	srli	a1, a1, 32
   12c02: 13 06 70 07                  	addi	a2, zero, 119
   12c06: 63 8a c5 78                  	beq	a1, a2, 1940
   12c0a: 6f 00 40 00                  	j	4
   12c0e: 03 35 84 fd                  	ld	a0, -40(s0)
   12c12: 93 15 05 02                  	slli	a1, a0, 32
   12c16: 81 91                        	srli	a1, a1, 32
   12c18: 13 06 80 07                  	addi	a2, zero, 120
   12c1c: 63 87 c5 78                  	beq	a1, a2, 1934
   12c20: 6f 00 40 00                  	j	4
   12c24: 03 35 84 fd                  	ld	a0, -40(s0)
   12c28: 93 15 05 02                  	slli	a1, a0, 32
   12c2c: 81 91                        	srli	a1, a1, 32
   12c2e: 13 06 90 07                  	addi	a2, zero, 121
   12c32: 63 84 c5 78                  	beq	a1, a2, 1928
   12c36: 6f 00 40 79                  	j	1940

0000000000012c3a .LBB12_244:
   12c3a: 17 e5 ff ff                  	auipc	a0, 1048574
   12c3e: 13 05 e5 9d                  	addi	a0, a0, -1570
   12c42: 23 34 a4 fe                  	sd	a0, -24(s0)
   12c46: 6f 00 00 7a                  	j	1952

0000000000012c4a .LBB12_245:
   12c4a: 17 e5 ff ff                  	auipc	a0, 1048574
   12c4e: 13 05 a5 a1                  	addi	a0, a0, -1510
   12c52: 23 34 a4 fe                  	sd	a0, -24(s0)
   12c56: 6f 00 00 79                  	j	1936

0000000000012c5a .LBB12_246:
   12c5a: 17 e5 ff ff                  	auipc	a0, 1048574
   12c5e: 13 05 75 98                  	addi	a0, a0, -1657
   12c62: 23 34 a4 fe                  	sd	a0, -24(s0)
   12c66: 6f 00 00 78                  	j	1920

0000000000012c6a .LBB12_247:
   12c6a: 17 e5 ff ff                  	auipc	a0, 1048574
   12c6e: 13 05 95 9d                  	addi	a0, a0, -1575
   12c72: 23 34 a4 fe                  	sd	a0, -24(s0)
   12c76: 6f 00 00 77                  	j	1904

0000000000012c7a .LBB12_248:
   12c7a: 17 d5 ff ff                  	auipc	a0, 1048573
   12c7e: 13 05 35 70                  	addi	a0, a0, 1795
   12c82: 23 34 a4 fe                  	sd	a0, -24(s0)
   12c86: 6f 00 00 76                  	j	1888

0000000000012c8a .LBB12_249:
   12c8a: 17 d5 ff ff                  	auipc	a0, 1048573
   12c8e: 13 05 75 6f                  	addi	a0, a0, 1783
   12c92: 23 34 a4 fe                  	sd	a0, -24(s0)
   12c96: 6f 00 00 75                  	j	1872

0000000000012c9a .LBB12_250:
   12c9a: 17 d5 ff ff                  	auipc	a0, 1048573
   12c9e: 13 05 d5 6b                  	addi	a0, a0, 1725
   12ca2: 23 34 a4 fe                  	sd	a0, -24(s0)
   12ca6: 6f 00 00 74                  	j	1856

0000000000012caa .LBB12_251:
   12caa: 17 e5 ff ff                  	auipc	a0, 1048574
   12cae: 13 05 75 aa                  	addi	a0, a0, -1369
   12cb2: 23 34 a4 fe                  	sd	a0, -24(s0)
   12cb6: 6f 00 00 73                  	j	1840

0000000000012cba .LBB12_252:
   12cba: 17 d5 ff ff                  	auipc	a0, 1048573
   12cbe: 13 05 d5 6c                  	addi	a0, a0, 1741
   12cc2: 23 34 a4 fe                  	sd	a0, -24(s0)
   12cc6: 6f 00 00 72                  	j	1824

0000000000012cca .LBB12_253:
   12cca: 17 d5 ff ff                  	auipc	a0, 1048573
   12cce: 13 05 e5 6d                  	addi	a0, a0, 1758
   12cd2: 23 34 a4 fe                  	sd	a0, -24(s0)
   12cd6: 6f 00 00 71                  	j	1808

0000000000012cda .LBB12_254:
   12cda: 17 d5 ff ff                  	auipc	a0, 1048573
   12cde: 13 05 95 7d                  	addi	a0, a0, 2009
   12ce2: 23 34 a4 fe                  	sd	a0, -24(s0)
   12ce6: 6f 00 00 70                  	j	1792

0000000000012cea .LBB12_255:
   12cea: 17 d5 ff ff                  	auipc	a0, 1048573
   12cee: 13 05 05 7d                  	addi	a0, a0, 2000
   12cf2: 23 34 a4 fe                  	sd	a0, -24(s0)
   12cf6: 6f 00 00 6f                  	j	1776

0000000000012cfa .LBB12_256:
   12cfa: 17 d5 ff ff                  	auipc	a0, 1048573
   12cfe: 13 05 95 4e                  	addi	a0, a0, 1257
   12d02: 23 34 a4 fe                  	sd	a0, -24(s0)
   12d06: 6f 00 00 6e                  	j	1760

0000000000012d0a .LBB12_257:
   12d0a: 17 e5 ff ff                  	auipc	a0, 1048574
   12d0e: 13 05 45 91                  	addi	a0, a0, -1772
   12d12: 23 34 a4 fe                  	sd	a0, -24(s0)
   12d16: 6f 00 00 6d                  	j	1744

0000000000012d1a .LBB12_258:
   12d1a: 17 e5 ff ff                  	auipc	a0, 1048574
   12d1e: 13 05 45 88                  	addi	a0, a0, -1916
   12d22: 23 34 a4 fe                  	sd	a0, -24(s0)
   12d26: 6f 00 00 6c                  	j	1728

0000000000012d2a .LBB12_259:
   12d2a: 17 d5 ff ff                  	auipc	a0, 1048573
   12d2e: 13 05 a5 4e                  	addi	a0, a0, 1258
   12d32: 23 34 a4 fe                  	sd	a0, -24(s0)
   12d36: 6f 00 00 6b                  	j	1712

0000000000012d3a .LBB12_260:
   12d3a: 17 d5 ff ff                  	auipc	a0, 1048573
   12d3e: 13 05 35 70                  	addi	a0, a0, 1795
   12d42: 23 34 a4 fe                  	sd	a0, -24(s0)
   12d46: 6f 00 00 6a                  	j	1696

0000000000012d4a .LBB12_261:
   12d4a: 17 d5 ff ff                  	auipc	a0, 1048573
   12d4e: 13 05 55 50                  	addi	a0, a0, 1285
   12d52: 23 34 a4 fe                  	sd	a0, -24(s0)
   12d56: 6f 00 00 69                  	j	1680

0000000000012d5a .LBB12_262:
   12d5a: 17 e5 ff ff                  	auipc	a0, 1048574
   12d5e: 13 05 95 a0                  	addi	a0, a0, -1527
   12d62: 23 34 a4 fe                  	sd	a0, -24(s0)
   12d66: 6f 00 00 68                  	j	1664

0000000000012d6a .LBB12_263:
   12d6a: 17 e5 ff ff                  	auipc	a0, 1048574
   12d6e: 13 05 c5 83                  	addi	a0, a0, -1988
   12d72: 23 34 a4 fe                  	sd	a0, -24(s0)
   12d76: 6f 00 00 67                  	j	1648

0000000000012d7a .LBB12_264:
   12d7a: 17 d5 ff ff                  	auipc	a0, 1048573
   12d7e: 13 05 c5 50                  	addi	a0, a0, 1292
   12d82: 23 34 a4 fe                  	sd	a0, -24(s0)
   12d86: 6f 00 00 66                  	j	1632

0000000000012d8a .LBB12_265:
   12d8a: 17 e5 ff ff                  	auipc	a0, 1048574
   12d8e: 13 05 b5 89                  	addi	a0, a0, -1893
   12d92: 23 34 a4 fe                  	sd	a0, -24(s0)
   12d96: 6f 00 00 65                  	j	1616

0000000000012d9a .LBB12_266:
   12d9a: 17 d5 ff ff                  	auipc	a0, 1048573
   12d9e: 13 05 35 6e                  	addi	a0, a0, 1763
   12da2: 23 34 a4 fe                  	sd	a0, -24(s0)
   12da6: 6f 00 00 64                  	j	1600

0000000000012daa .LBB12_267:
   12daa: 17 d5 ff ff                  	auipc	a0, 1048573
   12dae: 13 05 75 71                  	addi	a0, a0, 1815
   12db2: 23 34 a4 fe                  	sd	a0, -24(s0)
   12db6: 6f 00 00 63                  	j	1584

0000000000012dba .LBB12_268:
   12dba: 17 d5 ff ff                  	auipc	a0, 1048573
   12dbe: 13 05 05 46                  	addi	a0, a0, 1120
   12dc2: 23 34 a4 fe                  	sd	a0, -24(s0)
   12dc6: 6f 00 00 62                  	j	1568

0000000000012dca .LBB12_269:
   12dca: 17 e5 ff ff                  	auipc	a0, 1048574
   12dce: 13 05 d5 81                  	addi	a0, a0, -2019
   12dd2: 23 34 a4 fe                  	sd	a0, -24(s0)
   12dd6: 6f 00 00 61                  	j	1552

0000000000012dda .LBB12_270:
   12dda: 17 d5 ff ff                  	auipc	a0, 1048573
   12dde: 13 05 e5 6e                  	addi	a0, a0, 1774
   12de2: 23 34 a4 fe                  	sd	a0, -24(s0)
   12de6: 6f 00 00 60                  	j	1536

0000000000012dea .LBB12_271:
   12dea: 17 d5 ff ff                  	auipc	a0, 1048573
   12dee: 13 05 35 4a                  	addi	a0, a0, 1187
   12df2: 23 34 a4 fe                  	sd	a0, -24(s0)
   12df6: 6f 00 00 5f                  	j	1520

0000000000012dfa .LBB12_272:
   12dfa: 17 e5 ff ff                  	auipc	a0, 1048574
   12dfe: 13 05 15 87                  	addi	a0, a0, -1935
   12e02: 23 34 a4 fe                  	sd	a0, -24(s0)
   12e06: 6f 00 00 5e                  	j	1504

0000000000012e0a .LBB12_273:
   12e0a: 17 d5 ff ff                  	auipc	a0, 1048573
   12e0e: 13 05 a5 63                  	addi	a0, a0, 1594
   12e12: 23 34 a4 fe                  	sd	a0, -24(s0)
   12e16: 6f 00 00 5d                  	j	1488

0000000000012e1a .LBB12_274:
   12e1a: 17 e5 ff ff                  	auipc	a0, 1048574
   12e1e: 13 05 05 95                  	addi	a0, a0, -1712
   12e22: 23 34 a4 fe                  	sd	a0, -24(s0)
   12e26: 6f 00 00 5c                  	j	1472

0000000000012e2a .LBB12_275:
   12e2a: 17 d5 ff ff                  	auipc	a0, 1048573
   12e2e: 13 05 05 3c                  	addi	a0, a0, 960
   12e32: 23 34 a4 fe                  	sd	a0, -24(s0)
   12e36: 6f 00 00 5b                  	j	1456

0000000000012e3a .LBB12_276:
   12e3a: 17 d5 ff ff                  	auipc	a0, 1048573
   12e3e: 13 05 a5 45                  	addi	a0, a0, 1114
   12e42: 23 34 a4 fe                  	sd	a0, -24(s0)
   12e46: 6f 00 00 5a                  	j	1440

0000000000012e4a .LBB12_277:
   12e4a: 17 d5 ff ff                  	auipc	a0, 1048573
   12e4e: 13 05 55 7a                  	addi	a0, a0, 1957
   12e52: 23 34 a4 fe                  	sd	a0, -24(s0)
   12e56: 6f 00 00 59                  	j	1424

0000000000012e5a .LBB12_278:
   12e5a: 17 d5 ff ff                  	auipc	a0, 1048573
   12e5e: 13 05 d5 6b                  	addi	a0, a0, 1725
   12e62: 23 34 a4 fe                  	sd	a0, -24(s0)
   12e66: 6f 00 00 58                  	j	1408

0000000000012e6a .LBB12_279:
   12e6a: 17 d5 ff ff                  	auipc	a0, 1048573
   12e6e: 13 05 e5 35                  	addi	a0, a0, 862
   12e72: 23 34 a4 fe                  	sd	a0, -24(s0)
   12e76: 6f 00 00 57                  	j	1392

0000000000012e7a .LBB12_280:
   12e7a: 17 d5 ff ff                  	auipc	a0, 1048573
   12e7e: 13 05 b5 35                  	addi	a0, a0, 859
   12e82: 23 34 a4 fe                  	sd	a0, -24(s0)
   12e86: 6f 00 00 56                  	j	1376

0000000000012e8a .LBB12_281:
   12e8a: 17 d5 ff ff                  	auipc	a0, 1048573
   12e8e: 13 05 f5 7b                  	addi	a0, a0, 1983
   12e92: 23 34 a4 fe                  	sd	a0, -24(s0)
   12e96: 6f 00 00 55                  	j	1360

0000000000012e9a .LBB12_282:
   12e9a: 17 e5 ff ff                  	auipc	a0, 1048574
   12e9e: 13 05 f5 8b                  	addi	a0, a0, -1857
   12ea2: 23 34 a4 fe                  	sd	a0, -24(s0)
   12ea6: 6f 00 00 54                  	j	1344

0000000000012eaa .LBB12_283:
   12eaa: 17 d5 ff ff                  	auipc	a0, 1048573
   12eae: 13 05 b5 3a                  	addi	a0, a0, 939
   12eb2: 23 34 a4 fe                  	sd	a0, -24(s0)
   12eb6: 6f 00 00 53                  	j	1328

0000000000012eba .LBB12_284:
   12eba: 17 d5 ff ff                  	auipc	a0, 1048573
   12ebe: 13 05 95 56                  	addi	a0, a0, 1385
   12ec2: 23 34 a4 fe                  	sd	a0, -24(s0)
   12ec6: 6f 00 00 52                  	j	1312

0000000000012eca .LBB12_285:
   12eca: 17 d5 ff ff                  	auipc	a0, 1048573
   12ece: 13 05 05 52                  	addi	a0, a0, 1312
   12ed2: 23 34 a4 fe                  	sd	a0, -24(s0)
   12ed6: 6f 00 00 51                  	j	1296

0000000000012eda .LBB12_286:
   12eda: 17 d5 ff ff                  	auipc	a0, 1048573
   12ede: 13 05 45 5f                  	addi	a0, a0, 1524
   12ee2: 23 34 a4 fe                  	sd	a0, -24(s0)
   12ee6: 6f 00 00 50                  	j	1280

0000000000012eea .LBB12_287:
   12eea: 17 d5 ff ff                  	auipc	a0, 1048573
   12eee: 13 05 65 7b                  	addi	a0, a0, 1974
   12ef2: 23 34 a4 fe                  	sd	a0, -24(s0)
   12ef6: 6f 00 00 4f                  	j	1264

0000000000012efa .LBB12_288:
   12efa: 17 d5 ff ff                  	auipc	a0, 1048573
   12efe: 13 05 35 46                  	addi	a0, a0, 1123
   12f02: 23 34 a4 fe                  	sd	a0, -24(s0)
   12f06: 6f 00 00 4e                  	j	1248

0000000000012f0a .LBB12_289:
   12f0a: 17 d5 ff ff                  	auipc	a0, 1048573
   12f0e: 13 05 65 2e                  	addi	a0, a0, 742
   12f12: 23 34 a4 fe                  	sd	a0, -24(s0)
   12f16: 6f 00 00 4d                  	j	1232

0000000000012f1a .LBB12_290:
   12f1a: 17 d5 ff ff                  	auipc	a0, 1048573
   12f1e: 13 05 55 60                  	addi	a0, a0, 1541
   12f22: 23 34 a4 fe                  	sd	a0, -24(s0)
   12f26: 6f 00 00 4c                  	j	1216

0000000000012f2a .LBB12_291:
   12f2a: 17 d5 ff ff                  	auipc	a0, 1048573
   12f2e: 13 05 55 50                  	addi	a0, a0, 1285
   12f32: 23 34 a4 fe                  	sd	a0, -24(s0)
   12f36: 6f 00 00 4b                  	j	1200

0000000000012f3a .LBB12_292:
   12f3a: 17 d5 ff ff                  	auipc	a0, 1048573
   12f3e: 13 05 45 67                  	addi	a0, a0, 1652
   12f42: 23 34 a4 fe                  	sd	a0, -24(s0)
   12f46: 6f 00 00 4a                  	j	1184

0000000000012f4a .LBB12_293:
   12f4a: 17 d5 ff ff                  	auipc	a0, 1048573
   12f4e: 13 05 55 33                  	addi	a0, a0, 821
   12f52: 23 34 a4 fe                  	sd	a0, -24(s0)
   12f56: 6f 00 00 49                  	j	1168

0000000000012f5a .LBB12_294:
   12f5a: 17 d5 ff ff                  	auipc	a0, 1048573
   12f5e: 13 05 75 49                  	addi	a0, a0, 1175
   12f62: 23 34 a4 fe                  	sd	a0, -24(s0)
   12f66: 6f 00 00 48                  	j	1152

0000000000012f6a .LBB12_295:
   12f6a: 17 d5 ff ff                  	auipc	a0, 1048573
   12f6e: 13 05 15 30                  	addi	a0, a0, 769
   12f72: 23 34 a4 fe                  	sd	a0, -24(s0)
   12f76: 6f 00 00 47                  	j	1136

0000000000012f7a .LBB12_296:
   12f7a: 17 d5 ff ff                  	auipc	a0, 1048573
   12f7e: 13 05 f5 31                  	addi	a0, a0, 799
   12f82: 23 34 a4 fe                  	sd	a0, -24(s0)
   12f86: 6f 00 00 46                  	j	1120

0000000000012f8a .LBB12_297:
   12f8a: 17 d5 ff ff                  	auipc	a0, 1048573
   12f8e: 13 05 25 6a                  	addi	a0, a0, 1698
   12f92: 23 34 a4 fe                  	sd	a0, -24(s0)
   12f96: 6f 00 00 45                  	j	1104

0000000000012f9a .LBB12_298:
   12f9a: 17 d5 ff ff                  	auipc	a0, 1048573
   12f9e: 13 05 a5 4e                  	addi	a0, a0, 1258
   12fa2: 23 34 a4 fe                  	sd	a0, -24(s0)
   12fa6: 6f 00 00 44                  	j	1088

0000000000012faa .LBB12_299:
   12faa: 17 d5 ff ff                  	auipc	a0, 1048573
   12fae: 13 05 75 2c                  	addi	a0, a0, 711
   12fb2: 23 34 a4 fe                  	sd	a0, -24(s0)
   12fb6: 6f 00 00 43                  	j	1072

0000000000012fba .LBB12_300:
   12fba: 17 d5 ff ff                  	auipc	a0, 1048573
   12fbe: 13 05 e5 43                  	addi	a0, a0, 1086
   12fc2: 23 34 a4 fe                  	sd	a0, -24(s0)
   12fc6: 6f 00 00 42                  	j	1056

0000000000012fca .LBB12_301:
   12fca: 17 d5 ff ff                  	auipc	a0, 1048573
   12fce: 13 05 c5 52                  	addi	a0, a0, 1324
   12fd2: 23 34 a4 fe                  	sd	a0, -24(s0)
   12fd6: 6f 00 00 41                  	j	1040

0000000000012fda .LBB12_302:
   12fda: 17 d5 ff ff                  	auipc	a0, 1048573
   12fde: 13 05 25 20                  	addi	a0, a0, 514
   12fe2: 23 34 a4 fe                  	sd	a0, -24(s0)
   12fe6: 6f 00 00 40                  	j	1024

0000000000012fea .LBB12_303:
   12fea: 17 d5 ff ff                  	auipc	a0, 1048573
   12fee: 13 05 c5 44                  	addi	a0, a0, 1100
   12ff2: 23 34 a4 fe                  	sd	a0, -24(s0)
   12ff6: 6f 00 00 3f                  	j	1008

0000000000012ffa .LBB12_304:
   12ffa: 17 d5 ff ff                  	auipc	a0, 1048573
   12ffe: 13 05 15 26                  	addi	a0, a0, 609
   13002: 23 34 a4 fe                  	sd	a0, -24(s0)
   13006: 6f 00 00 3e                  	j	992

000000000001300a .LBB12_305:
   1300a: 17 d5 ff ff                  	auipc	a0, 1048573
   1300e: 13 05 75 76                  	addi	a0, a0, 1895
   13012: 23 34 a4 fe                  	sd	a0, -24(s0)
   13016: 6f 00 00 3d                  	j	976

000000000001301a .LBB12_306:
   1301a: 17 d5 ff ff                  	auipc	a0, 1048573
   1301e: 13 05 65 4e                  	addi	a0, a0, 1254
   13022: 23 34 a4 fe                  	sd	a0, -24(s0)
   13026: 6f 00 00 3c                  	j	960

000000000001302a .LBB12_307:
   1302a: 17 d5 ff ff                  	auipc	a0, 1048573
   1302e: 13 05 35 63                  	addi	a0, a0, 1587
   13032: 23 34 a4 fe                  	sd	a0, -24(s0)
   13036: 6f 00 00 3b                  	j	944

000000000001303a .LBB12_308:
   1303a: 17 d5 ff ff                  	auipc	a0, 1048573
   1303e: 13 05 35 35                  	addi	a0, a0, 851
   13042: 23 34 a4 fe                  	sd	a0, -24(s0)
   13046: 6f 00 00 3a                  	j	928

000000000001304a .LBB12_309:
   1304a: 17 d5 ff ff                  	auipc	a0, 1048573
   1304e: 13 05 c5 5a                  	addi	a0, a0, 1452
   13052: 23 34 a4 fe                  	sd	a0, -24(s0)
   13056: 6f 00 00 39                  	j	912

000000000001305a .LBB12_310:
   1305a: 17 d5 ff ff                  	auipc	a0, 1048573
   1305e: 13 05 15 43                  	addi	a0, a0, 1073
   13062: 23 34 a4 fe                  	sd	a0, -24(s0)
   13066: 6f 00 00 38                  	j	896

000000000001306a .LBB12_311:
   1306a: 17 d5 ff ff                  	auipc	a0, 1048573
   1306e: 13 05 d5 18                  	addi	a0, a0, 397
   13072: 23 34 a4 fe                  	sd	a0, -24(s0)
   13076: 6f 00 00 37                  	j	880

000000000001307a .LBB12_312:
   1307a: 17 d5 ff ff                  	auipc	a0, 1048573
   1307e: 13 05 c5 2e                  	addi	a0, a0, 748
   13082: 23 34 a4 fe                  	sd	a0, -24(s0)
   13086: 6f 00 00 36                  	j	864

000000000001308a .LBB12_313:
   1308a: 17 d5 ff ff                  	auipc	a0, 1048573
   1308e: 13 05 f5 1e                  	addi	a0, a0, 495
   13092: 23 34 a4 fe                  	sd	a0, -24(s0)
   13096: 6f 00 00 35                  	j	848

000000000001309a .LBB12_314:
   1309a: 17 d5 ff ff                  	auipc	a0, 1048573
   1309e: 13 05 d5 6d                  	addi	a0, a0, 1757
   130a2: 23 34 a4 fe                  	sd	a0, -24(s0)
   130a6: 6f 00 00 34                  	j	832

00000000000130aa .LBB12_315:
   130aa: 17 d5 ff ff                  	auipc	a0, 1048573
   130ae: 13 05 a5 42                  	addi	a0, a0, 1066
   130b2: 23 34 a4 fe                  	sd	a0, -24(s0)
   130b6: 6f 00 00 33                  	j	816

00000000000130ba .LBB12_316:
   130ba: 17 d5 ff ff                  	auipc	a0, 1048573
   130be: 13 05 25 14                  	addi	a0, a0, 322
   130c2: 23 34 a4 fe                  	sd	a0, -24(s0)
   130c6: 6f 00 00 32                  	j	800

00000000000130ca .LBB12_317:
   130ca: 17 d5 ff ff                  	auipc	a0, 1048573
   130ce: 13 05 85 5a                  	addi	a0, a0, 1448
   130d2: 23 34 a4 fe                  	sd	a0, -24(s0)
   130d6: 6f 00 00 31                  	j	784

00000000000130da .LBB12_318:
   130da: 17 d5 ff ff                  	auipc	a0, 1048573
   130de: 13 05 45 52                  	addi	a0, a0, 1316
   130e2: 23 34 a4 fe                  	sd	a0, -24(s0)
   130e6: 6f 00 00 30                  	j	768

00000000000130ea .LBB12_319:
   130ea: 17 d5 ff ff                  	auipc	a0, 1048573
   130ee: 13 05 a5 11                  	addi	a0, a0, 282
   130f2: 23 34 a4 fe                  	sd	a0, -24(s0)
   130f6: 6f 00 00 2f                  	j	752

00000000000130fa .LBB12_320:
   130fa: 17 d5 ff ff                  	auipc	a0, 1048573
   130fe: 13 05 d5 5a                  	addi	a0, a0, 1453
   13102: 23 34 a4 fe                  	sd	a0, -24(s0)
   13106: 6f 00 00 2e                  	j	736

000000000001310a .LBB12_321:
   1310a: 17 d5 ff ff                  	auipc	a0, 1048573
   1310e: 13 05 75 47                  	addi	a0, a0, 1143
   13112: 23 34 a4 fe                  	sd	a0, -24(s0)
   13116: 6f 00 00 2d                  	j	720

000000000001311a .LBB12_322:
   1311a: 17 d5 ff ff                  	auipc	a0, 1048573
   1311e: 13 05 95 14                  	addi	a0, a0, 329
   13122: 23 34 a4 fe                  	sd	a0, -24(s0)
   13126: 6f 00 00 2c                  	j	704

000000000001312a .LBB12_323:
   1312a: 17 d5 ff ff                  	auipc	a0, 1048573
   1312e: 13 05 c5 3d                  	addi	a0, a0, 988
   13132: 23 34 a4 fe                  	sd	a0, -24(s0)
   13136: 6f 00 00 2b                  	j	688

000000000001313a .LBB12_324:
   1313a: 17 d5 ff ff                  	auipc	a0, 1048573
   1313e: 13 05 c5 3e                  	addi	a0, a0, 1004
   13142: 23 34 a4 fe                  	sd	a0, -24(s0)
   13146: 6f 00 00 2a                  	j	672

000000000001314a .LBB12_325:
   1314a: 17 d5 ff ff                  	auipc	a0, 1048573
   1314e: 13 05 05 30                  	addi	a0, a0, 768
   13152: 23 34 a4 fe                  	sd	a0, -24(s0)
   13156: 6f 00 00 29                  	j	656

000000000001315a .LBB12_326:
   1315a: 17 d5 ff ff                  	auipc	a0, 1048573
   1315e: 13 05 a5 23                  	addi	a0, a0, 570
   13162: 23 34 a4 fe                  	sd	a0, -24(s0)
   13166: 6f 00 00 28                  	j	640

000000000001316a .LBB12_327:
   1316a: 17 d5 ff ff                  	auipc	a0, 1048573
   1316e: 13 05 95 4c                  	addi	a0, a0, 1225
   13172: 23 34 a4 fe                  	sd	a0, -24(s0)
   13176: 6f 00 00 27                  	j	624

000000000001317a .LBB12_328:
   1317a: 17 d5 ff ff                  	auipc	a0, 1048573
   1317e: 13 05 65 28                  	addi	a0, a0, 646
   13182: 23 34 a4 fe                  	sd	a0, -24(s0)
   13186: 6f 00 00 26                  	j	608

000000000001318a .LBB12_329:
   1318a: 17 d5 ff ff                  	auipc	a0, 1048573
   1318e: 13 05 05 4b                  	addi	a0, a0, 1200
   13192: 23 34 a4 fe                  	sd	a0, -24(s0)
   13196: 6f 00 00 25                  	j	592

000000000001319a .LBB12_330:
   1319a: 17 d5 ff ff                  	auipc	a0, 1048573
   1319e: 13 05 c5 41                  	addi	a0, a0, 1052
   131a2: 23 34 a4 fe                  	sd	a0, -24(s0)
   131a6: 6f 00 00 24                  	j	576

00000000000131aa .LBB12_331:
   131aa: 17 d5 ff ff                  	auipc	a0, 1048573
   131ae: 13 05 45 33                  	addi	a0, a0, 820
   131b2: 23 34 a4 fe                  	sd	a0, -24(s0)
   131b6: 6f 00 00 23                  	j	560

00000000000131ba .LBB12_332:
   131ba: 17 d5 ff ff                  	auipc	a0, 1048573
   131be: 13 05 45 50                  	addi	a0, a0, 1284
   131c2: 23 34 a4 fe                  	sd	a0, -24(s0)
   131c6: 6f 00 00 22                  	j	544

00000000000131ca .LBB12_333:
   131ca: 17 d5 ff ff                  	auipc	a0, 1048573
   131ce: 13 05 95 2c                  	addi	a0, a0, 713
   131d2: 23 34 a4 fe                  	sd	a0, -24(s0)
   131d6: 6f 00 00 21                  	j	528

00000000000131da .LBB12_334:
   131da: 17 d5 ff ff                  	auipc	a0, 1048573
   131de: 13 05 55 0c                  	addi	a0, a0, 197
   131e2: 23 34 a4 fe                  	sd	a0, -24(s0)
   131e6: 6f 00 00 20                  	j	512

00000000000131ea .LBB12_335:
   131ea: 17 d5 ff ff                  	auipc	a0, 1048573
   131ee: 13 05 55 1c                  	addi	a0, a0, 453
   131f2: 23 34 a4 fe                  	sd	a0, -24(s0)
   131f6: 6f 00 00 1f                  	j	496

00000000000131fa .LBB12_336:
   131fa: 17 d5 ff ff                  	auipc	a0, 1048573
   131fe: 13 05 15 1c                  	addi	a0, a0, 449
   13202: 23 34 a4 fe                  	sd	a0, -24(s0)
   13206: 6f 00 00 1e                  	j	480

000000000001320a .LBB12_337:
   1320a: 17 d5 ff ff                  	auipc	a0, 1048573
   1320e: 13 05 e5 3f                  	addi	a0, a0, 1022
   13212: 23 34 a4 fe                  	sd	a0, -24(s0)
   13216: 6f 00 00 1d                  	j	464

000000000001321a .LBB12_338:
   1321a: 17 d5 ff ff                  	auipc	a0, 1048573
   1321e: 13 05 05 09                  	addi	a0, a0, 144
   13222: 23 34 a4 fe                  	sd	a0, -24(s0)
   13226: 6f 00 00 1c                  	j	448

000000000001322a .LBB12_339:
   1322a: 17 d5 ff ff                  	auipc	a0, 1048573
   1322e: 13 05 35 39                  	addi	a0, a0, 915
   13232: 23 34 a4 fe                  	sd	a0, -24(s0)
   13236: 6f 00 00 1b                  	j	432

000000000001323a .LBB12_340:
   1323a: 17 d5 ff ff                  	auipc	a0, 1048573
   1323e: 13 05 05 39                  	addi	a0, a0, 912
   13242: 23 34 a4 fe                  	sd	a0, -24(s0)
   13246: 6f 00 00 1a                  	j	416

000000000001324a .LBB12_341:
   1324a: 17 d5 ff ff                  	auipc	a0, 1048573
   1324e: 13 05 15 18                  	addi	a0, a0, 385
   13252: 23 34 a4 fe                  	sd	a0, -24(s0)
   13256: 6f 00 00 19                  	j	400

000000000001325a .LBB12_342:
   1325a: 17 d5 ff ff                  	auipc	a0, 1048573
   1325e: 13 05 75 fc                  	addi	a0, a0, -57
   13262: 23 34 a4 fe                  	sd	a0, -24(s0)
   13266: 6f 00 00 18                  	j	384

000000000001326a .LBB12_343:
   1326a: 17 d5 ff ff                  	auipc	a0, 1048573
   1326e: 13 05 85 05                  	addi	a0, a0, 88
   13272: 23 34 a4 fe                  	sd	a0, -24(s0)
   13276: 6f 00 00 17                  	j	368

000000000001327a .LBB12_344:
   1327a: 17 d5 ff ff                  	auipc	a0, 1048573
   1327e: 13 05 c5 15                  	addi	a0, a0, 348
   13282: 23 34 a4 fe                  	sd	a0, -24(s0)
   13286: 6f 00 00 16                  	j	352

000000000001328a .LBB12_345:
   1328a: 17 d5 ff ff                  	auipc	a0, 1048573
   1328e: 13 05 15 44                  	addi	a0, a0, 1089
   13292: 23 34 a4 fe                  	sd	a0, -24(s0)
   13296: 6f 00 00 15                  	j	336

000000000001329a .LBB12_346:
   1329a: 17 d5 ff ff                  	auipc	a0, 1048573
   1329e: 13 05 b5 01                  	addi	a0, a0, 27
   132a2: 23 34 a4 fe                  	sd	a0, -24(s0)
   132a6: 6f 00 00 14                  	j	320

00000000000132aa .LBB12_347:
   132aa: 17 d5 ff ff                  	auipc	a0, 1048573
   132ae: 13 05 35 0f                  	addi	a0, a0, 243
   132b2: 23 34 a4 fe                  	sd	a0, -24(s0)
   132b6: 6f 00 00 13                  	j	304

00000000000132ba .LBB12_348:
   132ba: 17 d5 ff ff                  	auipc	a0, 1048573
   132be: 13 05 f5 2c                  	addi	a0, a0, 719
   132c2: 23 34 a4 fe                  	sd	a0, -24(s0)
   132c6: 6f 00 00 12                  	j	288

00000000000132ca .LBB12_349:
   132ca: 17 d5 ff ff                  	auipc	a0, 1048573
   132ce: 13 05 35 0a                  	addi	a0, a0, 163
   132d2: 23 34 a4 fe                  	sd	a0, -24(s0)
   132d6: 6f 00 00 11                  	j	272

00000000000132da .LBB12_350:
   132da: 17 d5 ff ff                  	auipc	a0, 1048573
   132de: 13 05 45 23                  	addi	a0, a0, 564
   132e2: 23 34 a4 fe                  	sd	a0, -24(s0)
   132e6: 6f 00 00 10                  	j	256

00000000000132ea .LBB12_351:
   132ea: 17 d5 ff ff                  	auipc	a0, 1048573
   132ee: 13 05 15 fe                  	addi	a0, a0, -31
   132f2: 23 34 a4 fe                  	sd	a0, -24(s0)
   132f6: 6f 00 00 0f                  	j	240

00000000000132fa .LBB12_352:
   132fa: 17 d5 ff ff                  	auipc	a0, 1048573
   132fe: 13 05 25 1a                  	addi	a0, a0, 418
   13302: 23 34 a4 fe                  	sd	a0, -24(s0)
   13306: 6f 00 00 0e                  	j	224

000000000001330a .LBB12_353:
   1330a: 17 d5 ff ff                  	auipc	a0, 1048573
   1330e: 13 05 f5 19                  	addi	a0, a0, 415
   13312: 23 34 a4 fe                  	sd	a0, -24(s0)
   13316: 6f 00 00 0d                  	j	208

000000000001331a .LBB12_354:
   1331a: 17 d5 ff ff                  	auipc	a0, 1048573
   1331e: 13 05 75 27                  	addi	a0, a0, 631
   13322: 23 34 a4 fe                  	sd	a0, -24(s0)
   13326: 6f 00 00 0c                  	j	192

000000000001332a .LBB12_355:
   1332a: 17 d5 ff ff                  	auipc	a0, 1048573
   1332e: 13 05 85 12                  	addi	a0, a0, 296
   13332: 23 34 a4 fe                  	sd	a0, -24(s0)
   13336: 6f 00 00 0b                  	j	176

000000000001333a .LBB12_356:
   1333a: 17 d5 ff ff                  	auipc	a0, 1048573
   1333e: 13 05 65 31                  	addi	a0, a0, 790
   13342: 23 34 a4 fe                  	sd	a0, -24(s0)
   13346: 6f 00 00 0a                  	j	160

000000000001334a .LBB12_357:
   1334a: 17 d5 ff ff                  	auipc	a0, 1048573
   1334e: 13 05 45 1e                  	addi	a0, a0, 484
   13352: 23 34 a4 fe                  	sd	a0, -24(s0)
   13356: 6f 00 00 09                  	j	144

000000000001335a .LBB12_358:
   1335a: 17 d5 ff ff                  	auipc	a0, 1048573
   1335e: 13 05 f5 0a                  	addi	a0, a0, 175
   13362: 23 34 a4 fe                  	sd	a0, -24(s0)
   13366: 6f 00 00 08                  	j	128

000000000001336a .LBB12_359:
   1336a: 17 d5 ff ff                  	auipc	a0, 1048573
   1336e: 13 05 35 10                  	addi	a0, a0, 259
   13372: 23 34 a4 fe                  	sd	a0, -24(s0)
   13376: 6f 00 00 07                  	j	112

000000000001337a .LBB12_360:
   1337a: 17 d5 ff ff                  	auipc	a0, 1048573
   1337e: 13 05 85 06                  	addi	a0, a0, 104
   13382: 23 34 a4 fe                  	sd	a0, -24(s0)
   13386: 6f 00 00 06                  	j	96

000000000001338a .LBB12_361:
   1338a: 17 d5 ff ff                  	auipc	a0, 1048573
   1338e: 13 05 b5 f4                  	addi	a0, a0, -181
   13392: 23 34 a4 fe                  	sd	a0, -24(s0)
   13396: 6f 00 00 05                  	j	80

000000000001339a .LBB12_362:
   1339a: 17 d5 ff ff                  	auipc	a0, 1048573
   1339e: 13 05 b5 fd                  	addi	a0, a0, -37
   133a2: 23 34 a4 fe                  	sd	a0, -24(s0)
   133a6: 6f 00 00 04                  	j	64

00000000000133aa .LBB12_363:
   133aa: 17 d5 ff ff                  	auipc	a0, 1048573
   133ae: 13 05 35 e6                  	addi	a0, a0, -413
   133b2: 23 34 a4 fe                  	sd	a0, -24(s0)
   133b6: 6f 00 00 03                  	j	48

00000000000133ba .LBB12_364:
   133ba: 17 d5 ff ff                  	auipc	a0, 1048573
   133be: 13 05 25 0a                  	addi	a0, a0, 162
   133c2: 23 34 a4 fe                  	sd	a0, -24(s0)
   133c6: 6f 00 00 02                  	j	32

00000000000133ca .LBB12_365:
   133ca: 17 45 00 00                  	auipc	a0, 4
   133ce: 03 35 e5 58                  	ld	a0, 1422(a0)
   133d2: d9 45                        	addi	a1, zero, 22
   133d4: 0c c1                        	sw	a1, 0(a0)

00000000000133d6 .LBB12_366:
   133d6: 17 d5 ff ff                  	auipc	a0, 1048573
   133da: 13 05 95 e5                  	addi	a0, a0, -423
   133de: 23 34 a4 fe                  	sd	a0, -24(s0)
   133e2: 6f 00 40 00                  	j	4
   133e6: 03 35 84 fe                  	ld	a0, -24(s0)
   133ea: 02 74                        	ld	s0, 32(sp)
   133ec: a2 70                        	ld	ra, 40(sp)
   133ee: 45 61                        	addi	sp, sp, 48
   133f0: 82 80                        	ret

00000000000133f2 strlen:
   133f2: 01 11                        	addi	sp, sp, -32
   133f4: 06 ec                        	sd	ra, 24(sp)
   133f6: 22 e8                        	sd	s0, 16(sp)
   133f8: 00 10                        	addi	s0, sp, 32
   133fa: 23 34 a4 fe                  	sd	a0, -24(s0)
   133fe: 01 45                        	mv	a0, zero
   13400: 23 30 a4 fe                  	sd	a0, -32(s0)
   13404: 6f 00 40 00                  	j	4
   13408: 03 35 84 fe                  	ld	a0, -24(s0)
   1340c: 83 35 04 fe                  	ld	a1, -32(s0)
   13410: 2e 95                        	add	a0, a0, a1
   13412: 03 45 05 00                  	lbu	a0, 0(a0)
   13416: 81 45                        	mv	a1, zero
   13418: 63 0d b5 00                  	beq	a0, a1, 26
   1341c: 6f 00 40 00                  	j	4
   13420: 6f 00 40 00                  	j	4
   13424: 03 35 04 fe                  	ld	a0, -32(s0)
   13428: 05 05                        	addi	a0, a0, 1
   1342a: 23 30 a4 fe                  	sd	a0, -32(s0)
   1342e: 6f f0 bf fd                  	j	-38
   13432: 03 35 04 fe                  	ld	a0, -32(s0)
   13436: 42 64                        	ld	s0, 16(sp)
   13438: e2 60                        	ld	ra, 24(sp)
   1343a: 05 61                        	addi	sp, sp, 32
   1343c: 82 80                        	ret

000000000001343e strncat:
   1343e: 39 71                        	addi	sp, sp, -64
   13440: 06 fc                        	sd	ra, 56(sp)
   13442: 22 f8                        	sd	s0, 48(sp)
   13444: 80 00                        	addi	s0, sp, 64
   13446: 23 34 a4 fe                  	sd	a0, -24(s0)
   1344a: 23 30 b4 fe                  	sd	a1, -32(s0)
   1344e: 23 3c c4 fc                  	sd	a2, -40(s0)
   13452: 03 35 84 fe                  	ld	a0, -24(s0)
   13456: 23 38 a4 fc                  	sd	a0, -48(s0)
   1345a: 6f 00 40 00                  	j	4
   1345e: 03 35 84 fe                  	ld	a0, -24(s0)
   13462: 93 05 15 00                  	addi	a1, a0, 1
   13466: 23 34 b4 fe                  	sd	a1, -24(s0)
   1346a: 03 45 05 00                  	lbu	a0, 0(a0)
   1346e: 81 45                        	mv	a1, zero
   13470: 63 06 b5 00                  	beq	a0, a1, 12
   13474: 6f 00 40 00                  	j	4
   13478: 6f f0 7f fe                  	j	-26
   1347c: 01 45                        	mv	a0, zero
   1347e: 23 34 a4 fc                  	sd	a0, -56(s0)
   13482: 6f 00 40 00                  	j	4
   13486: 03 35 84 fc                  	ld	a0, -56(s0)
   1348a: 83 35 84 fd                  	ld	a1, -40(s0)
   1348e: 63 75 b5 04                  	bgeu	a0, a1, 74
   13492: 6f 00 40 00                  	j	4
   13496: 03 35 04 fe                  	ld	a0, -32(s0)
   1349a: 93 05 15 00                  	addi	a1, a0, 1
   1349e: 23 30 b4 fe                  	sd	a1, -32(s0)
   134a2: 03 45 05 00                  	lbu	a0, 0(a0)
   134a6: 83 35 84 fe                  	ld	a1, -24(s0)
   134aa: 23 80 a5 00                  	sb	a0, 0(a1)
   134ae: 81 45                        	mv	a1, zero
   134b0: 63 16 b5 00                  	bne	a0, a1, 12
   134b4: 6f 00 40 00                  	j	4
   134b8: 6f 00 00 02                  	j	32
   134bc: 03 35 84 fe                  	ld	a0, -24(s0)
   134c0: 05 05                        	addi	a0, a0, 1
   134c2: 23 34 a4 fe                  	sd	a0, -24(s0)
   134c6: 6f 00 40 00                  	j	4
   134ca: 03 35 84 fc                  	ld	a0, -56(s0)
   134ce: 05 05                        	addi	a0, a0, 1
   134d0: 23 34 a4 fc                  	sd	a0, -56(s0)
   134d4: 6f f0 3f fb                  	j	-78
   134d8: 03 35 84 fe                  	ld	a0, -24(s0)
   134dc: 81 45                        	mv	a1, zero
   134de: 23 00 b5 00                  	sb	a1, 0(a0)
   134e2: 03 35 04 fd                  	ld	a0, -48(s0)
   134e6: 42 74                        	ld	s0, 48(sp)
   134e8: e2 70                        	ld	ra, 56(sp)
   134ea: 21 61                        	addi	sp, sp, 64
   134ec: 82 80                        	ret

00000000000134ee strncmp:
   134ee: 39 71                        	addi	sp, sp, -64
   134f0: 06 fc                        	sd	ra, 56(sp)
   134f2: 22 f8                        	sd	s0, 48(sp)
   134f4: 80 00                        	addi	s0, sp, 64
   134f6: 23 30 a4 fe                  	sd	a0, -32(s0)
   134fa: 23 3c b4 fc                  	sd	a1, -40(s0)
   134fe: 23 38 c4 fc                  	sd	a2, -48(s0)
   13502: 6f 00 40 00                  	j	4
   13506: 03 35 04 fe                  	ld	a0, -32(s0)
   1350a: 03 45 05 00                  	lbu	a0, 0(a0)
   1350e: 81 45                        	mv	a1, zero
   13510: 2e 86                        	add	a2, zero, a1
   13512: 23 30 c4 fc                  	sd	a2, -64(s0)
   13516: 63 0c b5 02                  	beq	a0, a1, 56
   1351a: 6f 00 40 00                  	j	4
   1351e: 03 35 84 fd                  	ld	a0, -40(s0)
   13522: 03 45 05 00                  	lbu	a0, 0(a0)
   13526: 81 45                        	mv	a1, zero
   13528: 2e 86                        	add	a2, zero, a1
   1352a: 23 30 c4 fc                  	sd	a2, -64(s0)
   1352e: 63 00 b5 02                  	beq	a0, a1, 32
   13532: 6f 00 40 00                  	j	4
   13536: 03 35 04 fd                  	ld	a0, -48(s0)
   1353a: 93 05 f5 ff                  	addi	a1, a0, -1
   1353e: 23 38 b4 fc                  	sd	a1, -48(s0)
   13542: 33 35 a0 00                  	snez	a0, a0
   13546: 23 30 a4 fc                  	sd	a0, -64(s0)
   1354a: 6f 00 40 00                  	j	4
   1354e: 03 35 04 fc                  	ld	a0, -64(s0)
   13552: 05 89                        	andi	a0, a0, 1
   13554: 81 45                        	mv	a1, zero
   13556: 63 06 b5 04                  	beq	a0, a1, 76
   1355a: 6f 00 40 00                  	j	4
   1355e: 03 35 04 fe                  	ld	a0, -32(s0)
   13562: 93 05 15 00                  	addi	a1, a0, 1
   13566: 23 30 b4 fe                  	sd	a1, -32(s0)
   1356a: 03 45 05 00                  	lbu	a0, 0(a0)
   1356e: 83 35 84 fd                  	ld	a1, -40(s0)
   13572: 13 86 15 00                  	addi	a2, a1, 1
   13576: 23 3c c4 fc                  	sd	a2, -40(s0)
   1357a: 83 c5 05 00                  	lbu	a1, 0(a1)
   1357e: 0d 8d                        	sub	a0, a0, a1
   13580: 23 26 a4 fc                  	sw	a0, -52(s0)
   13584: 03 25 c4 fc                  	lw	a0, -52(s0)
   13588: 81 45                        	mv	a1, zero
   1358a: 63 0a b5 00                  	beq	a0, a1, 20
   1358e: 6f 00 40 00                  	j	4
   13592: 03 25 c4 fc                  	lw	a0, -52(s0)
   13596: 23 26 a4 fe                  	sw	a0, -20(s0)
   1359a: 6f 00 20 01                  	j	18
   1359e: 6f f0 9f f6                  	j	-152
   135a2: 01 45                        	mv	a0, zero
   135a4: 23 26 a4 fe                  	sw	a0, -20(s0)
   135a8: 6f 00 40 00                  	j	4
   135ac: 03 25 c4 fe                  	lw	a0, -20(s0)
   135b0: 42 74                        	ld	s0, 48(sp)
   135b2: e2 70                        	ld	ra, 56(sp)
   135b4: 21 61                        	addi	sp, sp, 64
   135b6: 82 80                        	ret

00000000000135b8 strncpy:
   135b8: 39 71                        	addi	sp, sp, -64
   135ba: 06 fc                        	sd	ra, 56(sp)
   135bc: 22 f8                        	sd	s0, 48(sp)
   135be: 80 00                        	addi	s0, sp, 64
   135c0: 23 34 a4 fe                  	sd	a0, -24(s0)
   135c4: 23 30 b4 fe                  	sd	a1, -32(s0)
   135c8: 23 3c c4 fc                  	sd	a2, -40(s0)
   135cc: 03 35 84 fe                  	ld	a0, -24(s0)
   135d0: 23 38 a4 fc                  	sd	a0, -48(s0)
   135d4: 6f 00 40 00                  	j	4
   135d8: 03 35 04 fe                  	ld	a0, -32(s0)
   135dc: 93 05 15 00                  	addi	a1, a0, 1
   135e0: 23 30 b4 fe                  	sd	a1, -32(s0)
   135e4: 03 45 05 00                  	lbu	a0, 0(a0)
   135e8: 81 45                        	mv	a1, zero
   135ea: 2e 86                        	add	a2, zero, a1
   135ec: 23 34 c4 fc                  	sd	a2, -56(s0)
   135f0: 63 00 b5 02                  	beq	a0, a1, 32
   135f4: 6f 00 40 00                  	j	4
   135f8: 03 35 84 fd                  	ld	a0, -40(s0)
   135fc: 93 05 f5 ff                  	addi	a1, a0, -1
   13600: 23 3c b4 fc                  	sd	a1, -40(s0)
   13604: 33 35 a0 00                  	snez	a0, a0
   13608: 23 34 a4 fc                  	sd	a0, -56(s0)
   1360c: 6f 00 40 00                  	j	4
   13610: 03 35 84 fc                  	ld	a0, -56(s0)
   13614: 05 89                        	andi	a0, a0, 1
   13616: 83 35 84 fe                  	ld	a1, -24(s0)
   1361a: 13 86 15 00                  	addi	a2, a1, 1
   1361e: 23 34 c4 fe                  	sd	a2, -24(s0)
   13622: 23 80 a5 00                  	sb	a0, 0(a1)
   13626: 81 45                        	mv	a1, zero
   13628: 63 06 b5 00                  	beq	a0, a1, 12
   1362c: 6f 00 40 00                  	j	4
   13630: 6f f0 9f fa                  	j	-88
   13634: 03 35 04 fd                  	ld	a0, -48(s0)
   13638: 42 74                        	ld	s0, 48(sp)
   1363a: e2 70                        	ld	ra, 56(sp)
   1363c: 21 61                        	addi	sp, sp, 64
   1363e: 82 80                        	ret

0000000000013640 strpbrk:
   13640: 79 71                        	addi	sp, sp, -48
   13642: 06 f4                        	sd	ra, 40(sp)
   13644: 22 f0                        	sd	s0, 32(sp)
   13646: 00 18                        	addi	s0, sp, 48
   13648: 23 30 a4 fe                  	sd	a0, -32(s0)
   1364c: 23 3c b4 fc                  	sd	a1, -40(s0)
   13650: 6f 00 40 00                  	j	4
   13654: 03 35 04 fe                  	ld	a0, -32(s0)
   13658: 03 45 05 00                  	lbu	a0, 0(a0)
   1365c: 81 45                        	mv	a1, zero
   1365e: 63 08 b5 06                  	beq	a0, a1, 112
   13662: 6f 00 40 00                  	j	4
   13666: 01 45                        	mv	a0, zero
   13668: 23 38 a4 fc                  	sd	a0, -48(s0)
   1366c: 6f 00 40 00                  	j	4
   13670: 03 35 84 fd                  	ld	a0, -40(s0)
   13674: 83 35 04 fd                  	ld	a1, -48(s0)
   13678: 2e 95                        	add	a0, a0, a1
   1367a: 03 45 05 00                  	lbu	a0, 0(a0)
   1367e: 81 45                        	mv	a1, zero
   13680: 63 00 b5 04                  	beq	a0, a1, 64
   13684: 6f 00 40 00                  	j	4
   13688: 03 35 04 fe                  	ld	a0, -32(s0)
   1368c: 03 45 05 00                  	lbu	a0, 0(a0)
   13690: 83 35 84 fd                  	ld	a1, -40(s0)
   13694: 03 36 04 fd                  	ld	a2, -48(s0)
   13698: b2 95                        	add	a1, a1, a2
   1369a: 83 c5 05 00                  	lbu	a1, 0(a1)
   1369e: 63 1a b5 00                  	bne	a0, a1, 20
   136a2: 6f 00 40 00                  	j	4
   136a6: 03 35 04 fe                  	ld	a0, -32(s0)
   136aa: 23 34 a4 fe                  	sd	a0, -24(s0)
   136ae: 6f 00 a0 02                  	j	42
   136b2: 03 35 04 fd                  	ld	a0, -48(s0)
   136b6: 05 05                        	addi	a0, a0, 1
   136b8: 23 38 a4 fc                  	sd	a0, -48(s0)
   136bc: 6f f0 5f fb                  	j	-76
   136c0: 03 35 04 fe                  	ld	a0, -32(s0)
   136c4: 05 05                        	addi	a0, a0, 1
   136c6: 23 30 a4 fe                  	sd	a0, -32(s0)
   136ca: 6f f0 bf f8                  	j	-118
   136ce: 01 45                        	mv	a0, zero
   136d0: 23 34 a4 fe                  	sd	a0, -24(s0)
   136d4: 6f 00 40 00                  	j	4
   136d8: 03 35 84 fe                  	ld	a0, -24(s0)
   136dc: 02 74                        	ld	s0, 32(sp)
   136de: a2 70                        	ld	ra, 40(sp)
   136e0: 45 61                        	addi	sp, sp, 48
   136e2: 82 80                        	ret

00000000000136e4 strrchr:
   136e4: 79 71                        	addi	sp, sp, -48
   136e6: 06 f4                        	sd	ra, 40(sp)
   136e8: 22 f0                        	sd	s0, 32(sp)
   136ea: 00 18                        	addi	s0, sp, 48
   136ec: 2e 86                        	add	a2, zero, a1
   136ee: 23 34 a4 fe                  	sd	a0, -24(s0)
   136f2: 23 22 b4 fe                  	sw	a1, -28(s0)
   136f6: 01 45                        	mv	a0, zero
   136f8: 23 3c a4 fc                  	sd	a0, -40(s0)
   136fc: 6f 00 40 00                  	j	4
   13700: 03 35 84 fe                  	ld	a0, -24(s0)
   13704: 03 45 05 00                  	lbu	a0, 0(a0)
   13708: 81 45                        	mv	a1, zero
   1370a: 63 0b b5 02                  	beq	a0, a1, 54
   1370e: 6f 00 40 00                  	j	4
   13712: 03 35 84 fe                  	ld	a0, -24(s0)
   13716: 03 45 05 00                  	lbu	a0, 0(a0)
   1371a: 83 45 44 fe                  	lbu	a1, -28(s0)
   1371e: 63 1a b5 00                  	bne	a0, a1, 20
   13722: 6f 00 40 00                  	j	4
   13726: 03 35 84 fe                  	ld	a0, -24(s0)
   1372a: 23 3c a4 fc                  	sd	a0, -40(s0)
   1372e: 6f 00 40 00                  	j	4
   13732: 03 35 84 fe                  	ld	a0, -24(s0)
   13736: 05 05                        	addi	a0, a0, 1
   13738: 23 34 a4 fe                  	sd	a0, -24(s0)
   1373c: 6f f0 5f fc                  	j	-60
   13740: 03 35 84 fd                  	ld	a0, -40(s0)
   13744: 02 74                        	ld	s0, 32(sp)
   13746: a2 70                        	ld	ra, 40(sp)
   13748: 45 61                        	addi	sp, sp, 48
   1374a: 82 80                        	ret

000000000001374c strspn:
   1374c: 79 71                        	addi	sp, sp, -48
   1374e: 06 f4                        	sd	ra, 40(sp)
   13750: 22 f0                        	sd	s0, 32(sp)
   13752: 00 18                        	addi	s0, sp, 48
   13754: 23 34 a4 fe                  	sd	a0, -24(s0)
   13758: 23 30 b4 fe                  	sd	a1, -32(s0)
   1375c: 01 45                        	mv	a0, zero
   1375e: 23 3c a4 fc                  	sd	a0, -40(s0)
   13762: 6f 00 40 00                  	j	4
   13766: 03 35 84 fe                  	ld	a0, -24(s0)
   1376a: 83 35 84 fd                  	ld	a1, -40(s0)
   1376e: 2e 95                        	add	a0, a0, a1
   13770: 03 45 05 00                  	lbu	a0, 0(a0)
   13774: 81 45                        	mv	a1, zero
   13776: 63 05 b5 08                  	beq	a0, a1, 138
   1377a: 6f 00 40 00                  	j	4
   1377e: 01 45                        	mv	a0, zero
   13780: 23 38 a4 fc                  	sd	a0, -48(s0)
   13784: 6f 00 40 00                  	j	4
   13788: 03 35 04 fe                  	ld	a0, -32(s0)
   1378c: 83 35 04 fd                  	ld	a1, -48(s0)
   13790: 2e 95                        	add	a0, a0, a1
   13792: 03 45 05 00                  	lbu	a0, 0(a0)
   13796: 81 45                        	mv	a1, zero
   13798: 63 0f b5 02                  	beq	a0, a1, 62
   1379c: 6f 00 40 00                  	j	4
   137a0: 03 35 84 fe                  	ld	a0, -24(s0)
   137a4: 83 35 84 fd                  	ld	a1, -40(s0)
   137a8: 2e 95                        	add	a0, a0, a1
   137aa: 03 45 05 00                  	lbu	a0, 0(a0)
   137ae: 83 35 04 fe                  	ld	a1, -32(s0)
   137b2: 03 36 04 fd                  	ld	a2, -48(s0)
   137b6: b2 95                        	add	a1, a1, a2
   137b8: 83 c5 05 00                  	lbu	a1, 0(a1)
   137bc: 63 16 b5 00                  	bne	a0, a1, 12
   137c0: 6f 00 40 00                  	j	4
   137c4: 6f 00 20 01                  	j	18
   137c8: 03 35 04 fd                  	ld	a0, -48(s0)
   137cc: 05 05                        	addi	a0, a0, 1
   137ce: 23 38 a4 fc                  	sd	a0, -48(s0)
   137d2: 6f f0 7f fb                  	j	-74
   137d6: 03 35 04 fe                  	ld	a0, -32(s0)
   137da: 83 35 04 fd                  	ld	a1, -48(s0)
   137de: 2e 95                        	add	a0, a0, a1
   137e0: 03 45 05 00                  	lbu	a0, 0(a0)
   137e4: 81 45                        	mv	a1, zero
   137e6: 63 16 b5 00                  	bne	a0, a1, 12
   137ea: 6f 00 40 00                  	j	4
   137ee: 6f 00 20 01                  	j	18
   137f2: 03 35 84 fd                  	ld	a0, -40(s0)
   137f6: 05 05                        	addi	a0, a0, 1
   137f8: 23 3c a4 fc                  	sd	a0, -40(s0)
   137fc: 6f f0 bf f6                  	j	-150
   13800: 03 35 84 fd                  	ld	a0, -40(s0)
   13804: 02 74                        	ld	s0, 32(sp)
   13806: a2 70                        	ld	ra, 40(sp)
   13808: 45 61                        	addi	sp, sp, 48
   1380a: 82 80                        	ret

000000000001380c strstr:
   1380c: 39 71                        	addi	sp, sp, -64
   1380e: 06 fc                        	sd	ra, 56(sp)
   13810: 22 f8                        	sd	s0, 48(sp)
   13812: 80 00                        	addi	s0, sp, 64
   13814: 23 30 a4 fe                  	sd	a0, -32(s0)
   13818: 23 3c b4 fc                  	sd	a1, -40(s0)
   1381c: 01 45                        	mv	a0, zero
   1381e: 23 38 a4 fc                  	sd	a0, -48(s0)
   13822: 6f 00 40 00                  	j	4
   13826: 03 35 04 fe                  	ld	a0, -32(s0)
   1382a: 83 35 04 fd                  	ld	a1, -48(s0)
   1382e: 2e 95                        	add	a0, a0, a1
   13830: 03 45 05 00                  	lbu	a0, 0(a0)
   13834: 81 45                        	mv	a1, zero
   13836: 63 09 b5 0a                  	beq	a0, a1, 178
   1383a: 6f 00 40 00                  	j	4
   1383e: 01 45                        	mv	a0, zero
   13840: 23 34 a4 fc                  	sd	a0, -56(s0)
   13844: 6f 00 40 00                  	j	4
   13848: 03 35 84 fd                  	ld	a0, -40(s0)
   1384c: 83 35 84 fc                  	ld	a1, -56(s0)
   13850: 2e 95                        	add	a0, a0, a1
   13852: 03 45 05 00                  	lbu	a0, 0(a0)
   13856: 81 45                        	mv	a1, zero
   13858: 63 1d b5 00                  	bne	a0, a1, 26
   1385c: 6f 00 40 00                  	j	4
   13860: 03 35 04 fe                  	ld	a0, -32(s0)
   13864: 83 35 04 fd                  	ld	a1, -48(s0)
   13868: 2e 95                        	add	a0, a0, a1
   1386a: 23 34 a4 fe                  	sd	a0, -24(s0)
   1386e: 6f 00 40 08                  	j	132
   13872: 03 35 04 fe                  	ld	a0, -32(s0)
   13876: 83 35 04 fd                  	ld	a1, -48(s0)
   1387a: 03 36 84 fc                  	ld	a2, -56(s0)
   1387e: b2 95                        	add	a1, a1, a2
   13880: 2e 95                        	add	a0, a0, a1
   13882: 03 45 05 00                  	lbu	a0, 0(a0)
   13886: 81 45                        	mv	a1, zero
   13888: 63 19 b5 00                  	bne	a0, a1, 18
   1388c: 6f 00 40 00                  	j	4
   13890: 01 45                        	mv	a0, zero
   13892: 23 34 a4 fe                  	sd	a0, -24(s0)
   13896: 6f 00 c0 05                  	j	92
   1389a: 03 35 04 fe                  	ld	a0, -32(s0)
   1389e: 83 35 04 fd                  	ld	a1, -48(s0)
   138a2: 03 36 84 fc                  	ld	a2, -56(s0)
   138a6: b2 95                        	add	a1, a1, a2
   138a8: 2e 95                        	add	a0, a0, a1
   138aa: 03 45 05 00                  	lbu	a0, 0(a0)
   138ae: 83 35 84 fd                  	ld	a1, -40(s0)
   138b2: b2 95                        	add	a1, a1, a2
   138b4: 83 c5 05 00                  	lbu	a1, 0(a1)
   138b8: 63 06 b5 00                  	beq	a0, a1, 12
   138bc: 6f 00 40 00                  	j	4
   138c0: 6f 00 60 01                  	j	22
   138c4: 6f 00 40 00                  	j	4
   138c8: 03 35 84 fc                  	ld	a0, -56(s0)
   138cc: 05 05                        	addi	a0, a0, 1
   138ce: 23 34 a4 fc                  	sd	a0, -56(s0)
   138d2: 6f f0 7f f7                  	j	-138
   138d6: 6f 00 40 00                  	j	4
   138da: 03 35 04 fd                  	ld	a0, -48(s0)
   138de: 05 05                        	addi	a0, a0, 1
   138e0: 23 38 a4 fc                  	sd	a0, -48(s0)
   138e4: 6f f0 3f f4                  	j	-190
   138e8: 01 45                        	mv	a0, zero
   138ea: 23 34 a4 fe                  	sd	a0, -24(s0)
   138ee: 6f 00 40 00                  	j	4
   138f2: 03 35 84 fe                  	ld	a0, -24(s0)
   138f6: 42 74                        	ld	s0, 48(sp)
   138f8: e2 70                        	ld	ra, 56(sp)
   138fa: 21 61                        	addi	sp, sp, 64
   138fc: 82 80                        	ret

00000000000138fe strtok:
   138fe: 39 71                        	addi	sp, sp, -64
   13900: 06 fc                        	sd	ra, 56(sp)
   13902: 22 f8                        	sd	s0, 48(sp)
   13904: 80 00                        	addi	s0, sp, 64
   13906: 23 30 a4 fe                  	sd	a0, -32(s0)
   1390a: 23 3c b4 fc                  	sd	a1, -40(s0)
   1390e: 03 35 04 fe                  	ld	a0, -32(s0)
   13912: 81 45                        	mv	a1, zero
   13914: 63 1d b5 00                  	bne	a0, a1, 26
   13918: 6f 00 40 00                  	j	4

000000000001391c .LBB21_13:
   1391c: 17 55 00 00                  	auipc	a0, 5
   13920: 13 05 45 05                  	addi	a0, a0, 84
   13924: 08 61                        	ld	a0, 0(a0)
   13926: 23 30 a4 fe                  	sd	a0, -32(s0)
   1392a: 6f 00 40 00                  	j	4
   1392e: 03 35 04 fe                  	ld	a0, -32(s0)
   13932: 81 45                        	mv	a1, zero
   13934: 63 0d b5 00                  	beq	a0, a1, 26
   13938: 6f 00 40 00                  	j	4
   1393c: 03 35 04 fe                  	ld	a0, -32(s0)
   13940: 03 45 05 00                  	lbu	a0, 0(a0)
   13944: 81 45                        	mv	a1, zero
   13946: 63 19 b5 00                  	bne	a0, a1, 18
   1394a: 6f 00 40 00                  	j	4
   1394e: 01 45                        	mv	a0, zero
   13950: 23 34 a4 fe                  	sd	a0, -24(s0)
   13954: 6f 00 00 0b                  	j	176
   13958: 03 35 04 fe                  	ld	a0, -32(s0)
   1395c: 83 35 84 fd                  	ld	a1, -40(s0)
   13960: 97 00 00 00                  	auipc	ra, 0
   13964: e7 80 c0 de                  	jalr	-532(ra)
   13968: 23 38 a4 fc                  	sd	a0, -48(s0)
   1396c: 03 35 04 fd                  	ld	a0, -48(s0)
   13970: 83 35 04 fe                  	ld	a1, -32(s0)
   13974: 2e 95                        	add	a0, a0, a1
   13976: 23 30 a4 fe                  	sd	a0, -32(s0)
   1397a: 03 35 04 fe                  	ld	a0, -32(s0)
   1397e: 83 35 84 fd                  	ld	a1, -40(s0)
   13982: 97 00 00 00                  	auipc	ra, 0
   13986: e7 80 e0 cb                  	jalr	-834(ra)
   1398a: 23 34 a4 fc                  	sd	a0, -56(s0)
   1398e: 03 35 84 fc                  	ld	a0, -56(s0)
   13992: 81 45                        	mv	a1, zero
   13994: 63 1c b5 00                  	bne	a0, a1, 24
   13998: 6f 00 40 00                  	j	4

000000000001399c .LBB21_14:
   1399c: 17 55 00 00                  	auipc	a0, 5
   139a0: 13 05 45 fd                  	addi	a0, a0, -44
   139a4: 81 45                        	mv	a1, zero
   139a6: 0c e1                        	sd	a1, 0(a0)
   139a8: 6f 00 00 05                  	j	80
   139ac: 03 35 84 fc                  	ld	a0, -56(s0)
   139b0: 03 45 05 00                  	lbu	a0, 0(a0)
   139b4: 81 45                        	mv	a1, zero
   139b6: 63 10 b5 02                  	bne	a0, a1, 32
   139ba: 6f 00 40 00                  	j	4
   139be: 03 35 04 fe                  	ld	a0, -32(s0)
   139c2: 83 35 04 fd                  	ld	a1, -48(s0)
   139c6: 2e 95                        	add	a0, a0, a1

00000000000139c8 .LBB21_15:
   139c8: 97 55 00 00                  	auipc	a1, 5
   139cc: 93 85 85 fa                  	addi	a1, a1, -88
   139d0: 88 e1                        	sd	a0, 0(a1)
   139d2: 6f 00 20 02                  	j	34
   139d6: 03 35 84 fc                  	ld	a0, -56(s0)
   139da: 81 45                        	mv	a1, zero
   139dc: 23 00 b5 00                  	sb	a1, 0(a0)
   139e0: 03 35 84 fc                  	ld	a0, -56(s0)
   139e4: 05 05                        	addi	a0, a0, 1

00000000000139e6 .LBB21_16:
   139e6: 97 55 00 00                  	auipc	a1, 5
   139ea: 93 85 a5 f8                  	addi	a1, a1, -118
   139ee: 88 e1                        	sd	a0, 0(a1)
   139f0: 6f 00 40 00                  	j	4
   139f4: 6f 00 40 00                  	j	4
   139f8: 03 35 04 fe                  	ld	a0, -32(s0)
   139fc: 23 34 a4 fe                  	sd	a0, -24(s0)
   13a00: 6f 00 40 00                  	j	4
   13a04: 03 35 84 fe                  	ld	a0, -24(s0)
   13a08: 42 74                        	ld	s0, 48(sp)
   13a0a: e2 70                        	ld	ra, 56(sp)
   13a0c: 21 61                        	addi	sp, sp, 64
   13a0e: 82 80                        	ret

0000000000013a10 strtok_r:
   13a10: 79 71                        	addi	sp, sp, -48
   13a12: 06 f4                        	sd	ra, 40(sp)
   13a14: 22 f0                        	sd	s0, 32(sp)
   13a16: 00 18                        	addi	s0, sp, 48
   13a18: 23 34 a4 fe                  	sd	a0, -24(s0)
   13a1c: 23 30 b4 fe                  	sd	a1, -32(s0)
   13a20: 23 3c c4 fc                  	sd	a2, -40(s0)

0000000000013a24 .LBB22_1:
   13a24: 17 55 00 00                  	auipc	a0, 5
   13a28: 13 05 c5 f3                  	addi	a0, a0, -196

0000000000013a2c .LBB22_2:
   13a2c: 97 d5 ff ff                  	auipc	a1, 1048573
   13a30: 93 85 15 8b                  	addi	a1, a1, -1871

0000000000013a34 .LBB22_3:
   13a34: 97 d6 ff ff                  	auipc	a3, 1048573
   13a38: 93 86 06 a4                  	addi	a3, a3, -1472
   13a3c: 13 06 30 2e                  	addi	a2, zero, 739
   13a40: 97 00 00 00                  	auipc	ra, 0
   13a44: e7 80 80 23                  	jalr	568(ra)
   13a48: 85 45                        	addi	a1, zero, 1
   13a4a: 23 38 a4 fc                  	sd	a0, -48(s0)
   13a4e: 2e 85                        	add	a0, zero, a1
   13a50: 97 00 00 00                  	auipc	ra, 0
   13a54: e7 80 00 0b                  	jalr	176(ra)

0000000000013a58 syscall:
   13a58: aa 88                        	add	a7, zero, a0
   13a5a: 2e 85                        	add	a0, zero, a1
   13a5c: b2 85                        	add	a1, zero, a2
   13a5e: 36 86                        	add	a2, zero, a3
   13a60: ba 86                        	add	a3, zero, a4
   13a62: 3e 87                        	add	a4, zero, a5
   13a64: c2 87                        	add	a5, zero, a6
   13a66: 73 00 00 00                  	ecall	
   13a6a: 82 80                        	ret

0000000000013a6c read:
   13a6c: 81 48                        	mv	a7, zero
   13a6e: 73 00 00 00                  	ecall	
   13a72: 82 80                        	ret

0000000000013a74 write:
   13a74: 85 48                        	addi	a7, zero, 1
   13a76: 73 00 00 00                  	ecall	
   13a7a: 82 80                        	ret

0000000000013a7c open:
   13a7c: 89 48                        	addi	a7, zero, 2
   13a7e: 73 00 00 00                  	ecall	
   13a82: 82 80                        	ret

0000000000013a84 close:
   13a84: 8d 48                        	addi	a7, zero, 3
   13a86: 73 00 00 00                  	ecall	
   13a8a: 82 80                        	ret

0000000000013a8c lseek:
   13a8c: a1 48                        	addi	a7, zero, 8
   13a8e: 73 00 00 00                  	ecall	
   13a92: 82 80                        	ret

0000000000013a94 mmap:
   13a94: a5 48                        	addi	a7, zero, 9
   13a96: 73 00 00 00                  	ecall	
   13a9a: 82 80                        	ret

0000000000013a9c munmap:
   13a9c: ad 48                        	addi	a7, zero, 11
   13a9e: 73 00 00 00                  	ecall	
   13aa2: 82 80                        	ret

0000000000013aa4 sigaction:
   13aa4: b5 48                        	addi	a7, zero, 13
   13aa6: 73 00 00 00                  	ecall	
   13aaa: 82 80                        	ret

0000000000013aac sigreturn:
   13aac: bd 48                        	addi	a7, zero, 15
   13aae: 73 00 00 00                  	ecall	
   13ab2: 82 80                        	ret

0000000000013ab4 ioctl:
   13ab4: c1 48                        	addi	a7, zero, 16
   13ab6: 73 00 00 00                  	ecall	
   13aba: 82 80                        	ret

0000000000013abc pipe:
   13abc: d9 48                        	addi	a7, zero, 22
   13abe: 73 00 00 00                  	ecall	
   13ac2: 82 80                        	ret

0000000000013ac4 dup:
   13ac4: 93 08 00 02                  	addi	a7, zero, 32
   13ac8: 73 00 00 00                  	ecall	
   13acc: 82 80                        	ret

0000000000013ace dup2:
   13ace: 93 08 10 02                  	addi	a7, zero, 33
   13ad2: 73 00 00 00                  	ecall	
   13ad6: 82 80                        	ret

0000000000013ad8 pause:
   13ad8: 93 08 20 02                  	addi	a7, zero, 34
   13adc: 73 00 00 00                  	ecall	
   13ae0: 82 80                        	ret

0000000000013ae2 nanosleep:
   13ae2: 93 08 30 02                  	addi	a7, zero, 35
   13ae6: 73 00 00 00                  	ecall	
   13aea: 82 80                        	ret

0000000000013aec fork:
   13aec: 93 08 90 03                  	addi	a7, zero, 57
   13af0: 73 00 00 00                  	ecall	
   13af4: 82 80                        	ret

0000000000013af6 execve:
   13af6: 93 08 b0 03                  	addi	a7, zero, 59
   13afa: 73 00 00 00                  	ecall	
   13afe: 82 80                        	ret

0000000000013b00 exit:
   13b00: 93 08 c0 03                  	addi	a7, zero, 60
   13b04: 73 00 00 00                  	ecall	

0000000000013b08 exit_loop:
   13b08: 01 a0                        	j	0

0000000000013b0a wait:
   13b0a: 93 08 d0 03                  	addi	a7, zero, 61
   13b0e: 73 00 00 00                  	ecall	
   13b12: 82 80                        	ret

0000000000013b14 kill:
   13b14: 93 08 e0 03                  	addi	a7, zero, 62
   13b18: 73 00 00 00                  	ecall	
   13b1c: 82 80                        	ret

0000000000013b1e getdents:
   13b1e: 93 08 e0 04                  	addi	a7, zero, 78
   13b22: 73 00 00 00                  	ecall	
   13b26: 82 80                        	ret

0000000000013b28 getcwd:
   13b28: 93 08 f0 04                  	addi	a7, zero, 79
   13b2c: 73 00 00 00                  	ecall	
   13b30: 82 80                        	ret

0000000000013b32 chdir:
   13b32: 93 08 00 05                  	addi	a7, zero, 80
   13b36: 73 00 00 00                  	ecall	
   13b3a: 82 80                        	ret

0000000000013b3c mkdir:
   13b3c: 93 08 30 05                  	addi	a7, zero, 83
   13b40: 73 00 00 00                  	ecall	
   13b44: 82 80                        	ret

0000000000013b46 sync:
   13b46: 93 08 20 0a                  	addi	a7, zero, 162
   13b4a: 73 00 00 00                  	ecall	
   13b4e: 82 80                        	ret

0000000000013b50 local_put:
   13b50: 01 11                        	addi	sp, sp, -32
   13b52: 06 ec                        	sd	ra, 24(sp)
   13b54: 22 e8                        	sd	s0, 16(sp)
   13b56: 00 10                        	addi	s0, sp, 32
   13b58: 2e 86                        	add	a2, zero, a1
   13b5a: 23 34 a4 fe                  	sd	a0, -24(s0)
   13b5e: 23 22 b4 fe                  	sw	a1, -28(s0)
   13b62: 01 45                        	mv	a0, zero
   13b64: 23 20 a4 fe                  	sw	a0, -32(s0)
   13b68: 6f 00 40 00                  	j	4
   13b6c: 03 35 84 fe                  	ld	a0, -24(s0)
   13b70: 83 25 04 fe                  	lw	a1, -32(s0)
   13b74: 2e 95                        	add	a0, a0, a1
   13b76: 03 45 05 00                  	lbu	a0, 0(a0)
   13b7a: 81 45                        	mv	a1, zero
   13b7c: 63 0b b5 00                  	beq	a0, a1, 22
   13b80: 6f 00 40 00                  	j	4
   13b84: 03 25 04 fe                  	lw	a0, -32(s0)
   13b88: 05 05                        	addi	a0, a0, 1
   13b8a: 23 20 a4 fe                  	sw	a0, -32(s0)
   13b8e: 6f f0 ff fd                  	j	-34
   13b92: 03 25 44 fe                  	lw	a0, -28(s0)
   13b96: 83 35 84 fe                  	ld	a1, -24(s0)
   13b9a: 03 26 04 fe                  	lw	a2, -32(s0)
   13b9e: 97 00 00 00                  	auipc	ra, 0
   13ba2: e7 80 60 ed                  	jalr	-298(ra)
   13ba6: 42 64                        	ld	s0, 16(sp)
   13ba8: e2 60                        	ld	ra, 24(sp)
   13baa: 05 61                        	addi	sp, sp, 32
   13bac: 82 80                        	ret

0000000000013bae printf_helper:
   13bae: 79 71                        	addi	sp, sp, -48
   13bb0: 06 f4                        	sd	ra, 40(sp)
   13bb2: 22 f0                        	sd	s0, 32(sp)
   13bb4: 00 18                        	addi	s0, sp, 48
   13bb6: 36 87                        	add	a4, zero, a3
   13bb8: b2 87                        	add	a5, zero, a2
   13bba: 23 34 a4 fe                  	sd	a0, -24(s0)
   13bbe: 23 30 b4 fe                  	sd	a1, -32(s0)
   13bc2: a3 0f c4 fc                  	sb	a2, -33(s0)
   13bc6: 23 2c d4 fc                  	sw	a3, -40(s0)
   13bca: 03 05 f4 fd                  	lb	a0, -33(s0)
   13bce: 83 35 84 fe                  	ld	a1, -24(s0)
   13bd2: 03 36 04 fe                  	ld	a2, -32(s0)
   13bd6: 83 66 06 00                  	lwu	a3, 0(a2)
   13bda: 13 88 16 00                  	addi	a6, a3, 1
   13bde: 23 20 06 01                  	sw	a6, 0(a2)
   13be2: 37 16 04 41                  	lui	a2, 266305
   13be6: 1b 06 16 04                  	addiw	a2, a2, 65
   13bea: 32 06                        	slli	a2, a2, 12
   13bec: 13 06 16 04                  	addi	a2, a2, 65
   13bf0: 42 06                        	slli	a2, a2, 16
   13bf2: 13 06 16 41                  	addi	a2, a2, 1041
   13bf6: 33 b8 c6 02                  	<unknown>
   13bfa: b3 88 06 41                  	sub	a7, a3, a6
   13bfe: 93 d8 18 00                  	srli	a7, a7, 1
   13c02: 46 98                        	add	a6, a6, a7
   13c04: 13 58 58 00                  	srli	a6, a6, 5
   13c08: 93 18 68 00                  	slli	a7, a6, 6
   13c0c: 33 08 18 41                  	sub	a6, a6, a7
   13c10: c2 96                        	add	a3, a3, a6
   13c12: b6 95                        	add	a1, a1, a3
   13c14: 23 80 a5 00                  	sb	a0, 0(a1)
   13c18: 03 35 04 fe                  	ld	a0, -32(s0)
   13c1c: 03 65 05 00                  	lwu	a0, 0(a0)
   13c20: b7 f5 fb fe                  	lui	a1, 1044415
   13c24: 9b 85 f5 fb                  	addiw	a1, a1, -65
   13c28: b2 05                        	slli	a1, a1, 12
   13c2a: 93 85 f5 fb                  	addi	a1, a1, -65
   13c2e: b2 05                        	slli	a1, a1, 12
   13c30: 93 85 f5 fb                  	addi	a1, a1, -65
   13c34: b2 05                        	slli	a1, a1, 12
   13c36: 93 85 f5 fb                  	addi	a1, a1, -65
   13c3a: 33 05 b5 02                  	<unknown>
   13c3e: 63 6b c5 00                  	bltu	a0, a2, 22
   13c42: 6f 00 40 00                  	j	4
   13c46: 03 45 f4 fd                  	lbu	a0, -33(s0)
   13c4a: 81 45                        	mv	a1, zero
   13c4c: 63 12 b5 02                  	bne	a0, a1, 36
   13c50: 6f 00 40 00                  	j	4
   13c54: 03 35 84 fe                  	ld	a0, -24(s0)
   13c58: 83 25 84 fd                  	lw	a1, -40(s0)
   13c5c: 97 00 00 00                  	auipc	ra, 0
   13c60: e7 80 40 ef                  	jalr	-268(ra)
   13c64: 03 35 04 fe                  	ld	a0, -32(s0)
   13c68: 81 45                        	mv	a1, zero
   13c6a: 0c c1                        	sw	a1, 0(a0)
   13c6c: 6f 00 40 00                  	j	4
   13c70: 02 74                        	ld	s0, 32(sp)
   13c72: a2 70                        	ld	ra, 40(sp)
   13c74: 45 61                        	addi	sp, sp, 48
   13c76: 82 80                        	ret

0000000000013c78 fprintf:
   13c78: 0d 71                        	addi	sp, sp, -352
   13c7a: 06 f6                        	sd	ra, 296(sp)
   13c7c: 22 f2                        	sd	s0, 288(sp)
   13c7e: 00 1a                        	addi	s0, sp, 304
   13c80: 23 34 14 03                  	sd	a7, 40(s0)
   13c84: 23 30 04 03                  	sd	a6, 32(s0)
   13c88: 1c ec                        	sd	a5, 24(s0)
   13c8a: 18 e8                        	sd	a4, 16(s0)
   13c8c: 14 e4                        	sd	a3, 8(s0)
   13c8e: 10 e0                        	sd	a2, 0(s0)
   13c90: 23 34 a4 fe                  	sd	a0, -24(s0)
   13c94: 23 30 b4 fe                  	sd	a1, -32(s0)
   13c98: 01 45                        	mv	a0, zero
   13c9a: 23 2e a4 fc                  	sw	a0, -36(s0)
   13c9e: a2 85                        	add	a1, zero, s0
   13ca0: 23 38 b4 fc                  	sd	a1, -48(s0)
   13ca4: 23 2e a4 fa                  	sw	a0, -68(s0)
   13ca8: 23 2c a4 f6                  	sw	a0, -136(s0)
   13cac: 23 2a a4 f6                  	sw	a0, -140(s0)
   13cb0: 6f 00 40 00                  	j	4
   13cb4: 03 25 44 f7                  	lw	a0, -140(s0)
   13cb8: 93 05 f0 03                  	addi	a1, zero, 63
   13cbc: 63 c5 a5 02                  	blt	a1, a0, 42
   13cc0: 6f 00 40 00                  	j	4
   13cc4: 03 25 44 f7                  	lw	a0, -140(s0)
   13cc8: 93 05 c4 f7                  	addi	a1, s0, -132
   13ccc: 2e 95                        	add	a0, a0, a1
   13cce: 81 45                        	mv	a1, zero
   13cd0: 23 00 b5 00                  	sb	a1, 0(a0)
   13cd4: 6f 00 40 00                  	j	4
   13cd8: 03 25 44 f7                  	lw	a0, -140(s0)
   13cdc: 05 05                        	addi	a0, a0, 1
   13cde: 23 2a a4 f6                  	sw	a0, -140(s0)
   13ce2: 6f f0 3f fd                  	j	-46
   13ce6: 01 45                        	mv	a0, zero
   13ce8: a3 09 a4 f6                  	sb	a0, -141(s0)
   13cec: 23 09 a4 f6                  	sb	a0, -142(s0)
   13cf0: 23 26 a4 f6                  	sw	a0, -148(s0)
   13cf4: 05 45                        	addi	a0, zero, 1
   13cf6: a3 05 a4 f6                  	sb	a0, -149(s0)
   13cfa: 6f 00 40 00                  	j	4
   13cfe: 03 45 b4 f6                  	lbu	a0, -149(s0)
   13d02: 81 45                        	mv	a1, zero
   13d04: e3 0b b5 1a                  	beq	a0, a1, 2486
   13d08: 6f 00 40 00                  	j	4
   13d0c: 03 35 04 fe                  	ld	a0, -32(s0)
   13d10: 93 05 15 00                  	addi	a1, a0, 1
   13d14: 23 30 b4 fe                  	sd	a1, -32(s0)
   13d18: 03 05 05 00                  	lb	a0, 0(a0)
   13d1c: a3 05 a4 f6                  	sb	a0, -149(s0)
   13d20: 03 45 34 f7                  	lbu	a0, -141(s0)
   13d24: 81 45                        	mv	a1, zero
   13d26: 63 10 b5 04                  	bne	a0, a1, 64
   13d2a: 6f 00 40 00                  	j	4
   13d2e: 03 45 b4 f6                  	lbu	a0, -149(s0)
   13d32: 93 05 50 02                  	addi	a1, zero, 37
   13d36: 63 12 b5 02                  	bne	a0, a1, 36
   13d3a: 6f 00 40 00                  	j	4
   13d3e: 05 45                        	addi	a0, zero, 1
   13d40: a3 09 a4 f6                  	sb	a0, -141(s0)
   13d44: 03 05 b4 f6                  	lb	a0, -149(s0)
   13d48: 23 09 a4 f6                  	sb	a0, -142(s0)
   13d4c: 01 45                        	mv	a0, zero
   13d4e: 23 2e a4 fa                  	sw	a0, -68(s0)
   13d52: 23 26 a4 f6                  	sw	a0, -148(s0)
   13d56: 6f f0 9f fa                  	j	-88
   13d5a: 03 05 b4 f6                  	lb	a0, -149(s0)
   13d5e: 23 09 a4 f6                  	sb	a0, -142(s0)
   13d62: 6f 00 10 13                  	j	2352
   13d66: 03 45 b4 f6                  	lbu	a0, -149(s0)
   13d6a: 93 05 90 06                  	addi	a1, zero, 105
   13d6e: 63 15 b5 20                  	bne	a0, a1, 522
   13d72: 6f 00 40 00                  	j	4
   13d76: 03 35 04 fd                  	ld	a0, -48(s0)
   13d7a: 93 05 85 00                  	addi	a1, a0, 8
   13d7e: 23 38 b4 fc                  	sd	a1, -48(s0)
   13d82: 08 41                        	lw	a0, 0(a0)
   13d84: 23 22 a4 f6                  	sw	a0, -156(s0)
   13d88: 03 25 44 f6                  	lw	a0, -156(s0)
   13d8c: fd 55                        	addi	a1, zero, -1
   13d8e: 63 cf a5 02                  	blt	a1, a0, 62
   13d92: 6f 00 40 00                  	j	4
   13d96: 03 25 44 f6                  	lw	a0, -156(s0)
   13d9a: 81 45                        	mv	a1, zero
   13d9c: 33 85 a5 40                  	sub	a0, a1, a0
   13da0: 23 22 a4 f6                  	sw	a0, -156(s0)
   13da4: 03 35 84 fe                  	ld	a0, -24(s0)
   13da8: 14 41                        	lw	a3, 0(a0)
   13daa: 13 05 c4 f7                  	addi	a0, s0, -132
   13dae: 93 05 84 f7                  	addi	a1, s0, -136
   13db2: 13 06 d0 02                  	addi	a2, zero, 45
   13db6: 97 00 00 00                  	auipc	ra, 0
   13dba: e7 80 80 df                  	jalr	-520(ra)
   13dbe: 03 25 c4 fd                  	lw	a0, -36(s0)
   13dc2: 05 05                        	addi	a0, a0, 1
   13dc4: 23 2e a4 fc                  	sw	a0, -36(s0)
   13dc8: 6f 00 40 00                  	j	4
   13dcc: 05 45                        	addi	a0, zero, 1
   13dce: 23 20 a4 f6                  	sw	a0, -160(s0)
   13dd2: 23 2e a4 f4                  	sw	a0, -164(s0)
   13dd6: 6f 00 40 00                  	j	4
   13dda: 03 25 04 f6                  	lw	a0, -160(s0)
   13dde: 83 25 44 f6                  	lw	a1, -156(s0)
   13de2: 37 36 33 03                  	lui	a2, 13107
   13de6: 1b 06 36 33                  	addiw	a2, a2, 819
   13dea: 32 06                        	slli	a2, a2, 12
   13dec: 13 06 36 33                  	addi	a2, a2, 819
   13df0: 32 06                        	slli	a2, a2, 12
   13df2: 13 06 36 33                  	addi	a2, a2, 819
   13df6: 36 06                        	slli	a2, a2, 13
   13df8: 13 06 76 66                  	addi	a2, a2, 1639
   13dfc: b3 95 c5 02                  	<unknown>
   13e00: 13 d6 f5 03                  	srli	a2, a1, 63
   13e04: 89 81                        	srli	a1, a1, 2
   13e06: b1 9d                        	addw	a1, a1, a2
   13e08: 63 c2 a5 02                  	blt	a1, a0, 36
   13e0c: 6f 00 40 00                  	j	4
   13e10: 03 25 04 f6                  	lw	a0, -160(s0)
   13e14: a9 45                        	addi	a1, zero, 10
   13e16: 33 05 b5 02                  	<unknown>
   13e1a: 23 20 a4 f6                  	sw	a0, -160(s0)
   13e1e: 03 25 c4 f5                  	lw	a0, -164(s0)
   13e22: 05 05                        	addi	a0, a0, 1
   13e24: 23 2e a4 f4                  	sw	a0, -164(s0)
   13e28: 6f f0 3f fb                  	j	-78
   13e2c: 6f 00 40 00                  	j	4
   13e30: 03 25 c4 f5                  	lw	a0, -164(s0)
   13e34: 83 25 c4 f6                  	lw	a1, -148(s0)
   13e38: 63 5f b5 02                  	bge	a0, a1, 62
   13e3c: 6f 00 40 00                  	j	4
   13e40: 03 35 84 fe                  	ld	a0, -24(s0)
   13e44: 14 41                        	lw	a3, 0(a0)
   13e46: 13 05 c4 f7                  	addi	a0, s0, -132
   13e4a: 93 05 84 f7                  	addi	a1, s0, -136
   13e4e: 13 06 00 02                  	addi	a2, zero, 32
   13e52: 97 00 00 00                  	auipc	ra, 0
   13e56: e7 80 c0 d5                  	jalr	-676(ra)
   13e5a: 03 25 c4 fd                  	lw	a0, -36(s0)
   13e5e: 05 05                        	addi	a0, a0, 1
   13e60: 23 2e a4 fc                  	sw	a0, -36(s0)
   13e64: 6f 00 40 00                  	j	4
   13e68: 03 25 c4 f5                  	lw	a0, -164(s0)
   13e6c: 05 05                        	addi	a0, a0, 1
   13e6e: 23 2e a4 f4                  	sw	a0, -164(s0)
   13e72: 6f f0 ff fb                  	j	-66
   13e76: 03 25 c4 fb                  	lw	a0, -68(s0)
   13e7a: 89 45                        	addi	a1, zero, 2
   13e7c: 63 6e b5 04                  	bltu	a0, a1, 92
   13e80: 6f 00 40 00                  	j	4
   13e84: 05 45                        	addi	a0, zero, 1
   13e86: 23 2c a4 f4                  	sw	a0, -168(s0)
   13e8a: 6f 00 40 00                  	j	4
   13e8e: 03 45 14 fc                  	lbu	a0, -63(s0)
   13e92: 93 05 f5 ff                  	addi	a1, a0, -1
   13e96: a3 00 b4 fc                  	sb	a1, -63(s0)
   13e9a: 93 05 20 03                  	addi	a1, zero, 50
   13e9e: 63 4d b5 00                  	blt	a0, a1, 26
   13ea2: 6f 00 40 00                  	j	4
   13ea6: 03 25 84 f5                  	lw	a0, -168(s0)
   13eaa: a9 45                        	addi	a1, zero, 10
   13eac: 33 05 b5 02                  	<unknown>
   13eb0: 23 2c a4 f4                  	sw	a0, -168(s0)
   13eb4: 6f f0 bf fd                  	j	-38
   13eb8: 03 25 84 f5                  	lw	a0, -168(s0)
   13ebc: 83 25 04 f6                  	lw	a1, -160(s0)
   13ec0: 63 da a5 00                  	bge	a1, a0, 20
   13ec4: 6f 00 40 00                  	j	4
   13ec8: 03 25 84 f5                  	lw	a0, -168(s0)
   13ecc: 23 20 a4 f6                  	sw	a0, -160(s0)
   13ed0: 6f 00 40 00                  	j	4
   13ed4: 6f 00 40 00                  	j	4
   13ed8: 6f 00 40 00                  	j	4
   13edc: 03 25 04 f6                  	lw	a0, -160(s0)
   13ee0: 85 45                        	addi	a1, zero, 1
   13ee2: 63 46 b5 08                  	blt	a0, a1, 140
   13ee6: 6f 00 40 00                  	j	4
   13eea: 03 25 44 f6                  	lw	a0, -156(s0)
   13eee: 83 25 04 f6                  	lw	a1, -160(s0)
   13ef2: 3b 45 b5 02                  	<unknown>
   13ef6: b7 35 33 03                  	lui	a1, 13107
   13efa: 9b 85 35 33                  	addiw	a1, a1, 819
   13efe: b2 05                        	slli	a1, a1, 12
   13f00: 93 85 35 33                  	addi	a1, a1, 819
   13f04: b2 05                        	slli	a1, a1, 12
   13f06: 93 85 35 33                  	addi	a1, a1, 819
   13f0a: b6 05                        	slli	a1, a1, 13
   13f0c: 93 85 75 66                  	addi	a1, a1, 1639
   13f10: 33 16 b5 02                  	<unknown>
   13f14: 93 56 f6 03                  	srli	a3, a2, 63
   13f18: 09 82                        	srli	a2, a2, 2
   13f1a: 36 96                        	add	a2, a2, a3
   13f1c: a9 46                        	addi	a3, zero, 10
   13f1e: 33 06 d6 02                  	<unknown>
   13f22: 11 8d                        	sub	a0, a0, a2
   13f24: 13 05 05 03                  	addi	a0, a0, 48
   13f28: 03 36 84 fe                  	ld	a2, -24(s0)
   13f2c: 14 42                        	lw	a3, 0(a2)
   13f2e: 13 76 f5 0f                  	andi	a2, a0, 255
   13f32: 13 05 c4 f7                  	addi	a0, s0, -132
   13f36: 13 07 84 f7                  	addi	a4, s0, -136
   13f3a: 23 3c b4 ee                  	sd	a1, -264(s0)
   13f3e: ba 85                        	add	a1, zero, a4
   13f40: 97 00 00 00                  	auipc	ra, 0
   13f44: e7 80 e0 c6                  	jalr	-914(ra)
   13f48: 03 25 c4 fd                  	lw	a0, -36(s0)
   13f4c: 05 05                        	addi	a0, a0, 1
   13f4e: 23 2e a4 fc                  	sw	a0, -36(s0)
   13f52: 03 25 04 f6                  	lw	a0, -160(s0)
   13f56: 83 35 84 ef                  	ld	a1, -264(s0)
   13f5a: 33 15 b5 02                  	<unknown>
   13f5e: 13 56 f5 03                  	srli	a2, a0, 63
   13f62: 09 81                        	srli	a0, a0, 2
   13f64: 32 95                        	add	a0, a0, a2
   13f66: 23 20 a4 f6                  	sw	a0, -160(s0)
   13f6a: 6f f0 3f f7                  	j	-142
   13f6e: 01 45                        	mv	a0, zero
   13f70: a3 09 a4 f6                  	sb	a0, -141(s0)
   13f74: 6f 00 80 6f                  	j	1784
   13f78: 03 45 b4 f6                  	lbu	a0, -149(s0)
   13f7c: 93 05 c0 06                  	addi	a1, zero, 108
   13f80: 63 19 b5 00                  	bne	a0, a1, 18
   13f84: 6f 00 40 00                  	j	4
   13f88: 05 45                        	addi	a0, zero, 1
   13f8a: a3 09 a4 f6                  	sb	a0, -141(s0)
   13f8e: 6f 00 a0 6d                  	j	1754
   13f92: 03 45 b4 f6                  	lbu	a0, -149(s0)
   13f96: 93 05 40 06                  	addi	a1, zero, 100
   13f9a: 63 1c b5 1a                  	bne	a0, a1, 440
   13f9e: 6f 00 40 00                  	j	4
   13fa2: 03 45 24 f7                  	lbu	a0, -142(s0)
   13fa6: 93 05 c0 06                  	addi	a1, zero, 108
   13faa: 63 14 b5 1a                  	bne	a0, a1, 424
   13fae: 6f 00 40 00                  	j	4
   13fb2: 03 35 04 fd                  	ld	a0, -48(s0)
   13fb6: 93 05 85 00                  	addi	a1, a0, 8
   13fba: 23 38 b4 fc                  	sd	a1, -48(s0)
   13fbe: 08 61                        	ld	a0, 0(a0)
   13fc0: 23 38 a4 f4                  	sd	a0, -176(s0)
   13fc4: 03 35 04 f5                  	ld	a0, -176(s0)
   13fc8: fd 55                        	addi	a1, zero, -1
   13fca: 63 cf a5 02                  	blt	a1, a0, 62
   13fce: 6f 00 40 00                  	j	4
   13fd2: 03 35 04 f5                  	ld	a0, -176(s0)
   13fd6: 81 45                        	mv	a1, zero
   13fd8: 33 85 a5 40                  	sub	a0, a1, a0
   13fdc: 23 38 a4 f4                  	sd	a0, -176(s0)
   13fe0: 03 35 84 fe                  	ld	a0, -24(s0)
   13fe4: 14 41                        	lw	a3, 0(a0)
   13fe6: 13 05 c4 f7                  	addi	a0, s0, -132
   13fea: 93 05 84 f7                  	addi	a1, s0, -136
   13fee: 13 06 d0 02                  	addi	a2, zero, 45
   13ff2: 97 00 00 00                  	auipc	ra, 0
   13ff6: e7 80 c0 bb                  	jalr	-1092(ra)
   13ffa: 03 25 c4 fd                  	lw	a0, -36(s0)
   13ffe: 05 05                        	addi	a0, a0, 1
   14000: 23 2e a4 fc                  	sw	a0, -36(s0)
   14004: 6f 00 40 00                  	j	4
   14008: 05 45                        	addi	a0, zero, 1
   1400a: 23 34 a4 f4                  	sd	a0, -184(s0)
   1400e: 23 22 a4 f4                  	sw	a0, -188(s0)
   14012: 6f 00 40 00                  	j	4
   14016: 03 35 84 f4                  	ld	a0, -184(s0)
   1401a: 83 35 04 f5                  	ld	a1, -176(s0)
   1401e: 37 36 33 03                  	lui	a2, 13107
   14022: 1b 06 36 33                  	addiw	a2, a2, 819
   14026: 32 06                        	slli	a2, a2, 12
   14028: 13 06 36 33                  	addi	a2, a2, 819
   1402c: 32 06                        	slli	a2, a2, 12
   1402e: 13 06 36 33                  	addi	a2, a2, 819
   14032: 36 06                        	slli	a2, a2, 13
   14034: 13 06 76 66                  	addi	a2, a2, 1639
   14038: b3 95 c5 02                  	<unknown>
   1403c: 13 d6 f5 03                  	srli	a2, a1, 63
   14040: 89 85                        	srai	a1, a1, 2
   14042: b2 95                        	add	a1, a1, a2
   14044: 63 c2 a5 02                  	blt	a1, a0, 36
   14048: 6f 00 40 00                  	j	4
   1404c: 03 35 84 f4                  	ld	a0, -184(s0)
   14050: a9 45                        	addi	a1, zero, 10
   14052: 33 05 b5 02                  	<unknown>
   14056: 23 34 a4 f4                  	sd	a0, -184(s0)
   1405a: 03 25 44 f4                  	lw	a0, -188(s0)
   1405e: 05 05                        	addi	a0, a0, 1
   14060: 23 22 a4 f4                  	sw	a0, -188(s0)
   14064: 6f f0 3f fb                  	j	-78
   14068: 6f 00 40 00                  	j	4
   1406c: 03 25 44 f4                  	lw	a0, -188(s0)
   14070: 83 25 c4 f6                  	lw	a1, -148(s0)
   14074: 63 5f b5 02                  	bge	a0, a1, 62
   14078: 6f 00 40 00                  	j	4
   1407c: 03 35 84 fe                  	ld	a0, -24(s0)
   14080: 14 41                        	lw	a3, 0(a0)
   14082: 13 05 c4 f7                  	addi	a0, s0, -132
   14086: 93 05 84 f7                  	addi	a1, s0, -136
   1408a: 13 06 00 02                  	addi	a2, zero, 32
   1408e: 97 00 00 00                  	auipc	ra, 0
   14092: e7 80 00 b2                  	jalr	-1248(ra)
   14096: 03 25 c4 fd                  	lw	a0, -36(s0)
   1409a: 05 05                        	addi	a0, a0, 1
   1409c: 23 2e a4 fc                  	sw	a0, -36(s0)
   140a0: 6f 00 40 00                  	j	4
   140a4: 03 25 44 f4                  	lw	a0, -188(s0)
   140a8: 05 05                        	addi	a0, a0, 1
   140aa: 23 22 a4 f4                  	sw	a0, -188(s0)
   140ae: 6f f0 ff fb                  	j	-66
   140b2: 6f 00 40 00                  	j	4
   140b6: 03 35 84 f4                  	ld	a0, -184(s0)
   140ba: 85 45                        	addi	a1, zero, 1
   140bc: 63 46 b5 08                  	blt	a0, a1, 140
   140c0: 6f 00 40 00                  	j	4
   140c4: 03 35 04 f5                  	ld	a0, -176(s0)
   140c8: 83 35 84 f4                  	ld	a1, -184(s0)
   140cc: 33 45 b5 02                  	<unknown>
   140d0: b7 35 33 03                  	lui	a1, 13107
   140d4: 9b 85 35 33                  	addiw	a1, a1, 819
   140d8: b2 05                        	slli	a1, a1, 12
   140da: 93 85 35 33                  	addi	a1, a1, 819
   140de: b2 05                        	slli	a1, a1, 12
   140e0: 93 85 35 33                  	addi	a1, a1, 819
   140e4: b6 05                        	slli	a1, a1, 13
   140e6: 93 85 75 66                  	addi	a1, a1, 1639
   140ea: 33 16 b5 02                  	<unknown>
   140ee: 93 56 f6 03                  	srli	a3, a2, 63
   140f2: 09 82                        	srli	a2, a2, 2
   140f4: 36 96                        	add	a2, a2, a3
   140f6: a9 46                        	addi	a3, zero, 10
   140f8: 33 06 d6 02                  	<unknown>
   140fc: 11 8d                        	sub	a0, a0, a2
   140fe: 13 05 05 03                  	addi	a0, a0, 48
   14102: 03 36 84 fe                  	ld	a2, -24(s0)
   14106: 14 42                        	lw	a3, 0(a2)
   14108: 13 76 f5 0f                  	andi	a2, a0, 255
   1410c: 13 05 c4 f7                  	addi	a0, s0, -132
   14110: 13 07 84 f7                  	addi	a4, s0, -136
   14114: 23 38 b4 ee                  	sd	a1, -272(s0)
   14118: ba 85                        	add	a1, zero, a4
   1411a: 97 00 00 00                  	auipc	ra, 0
   1411e: e7 80 40 a9                  	jalr	-1388(ra)
   14122: 03 25 c4 fd                  	lw	a0, -36(s0)
   14126: 05 05                        	addi	a0, a0, 1
   14128: 23 2e a4 fc                  	sw	a0, -36(s0)
   1412c: 03 35 84 f4                  	ld	a0, -184(s0)
   14130: 83 35 04 ef                  	ld	a1, -272(s0)
   14134: 33 15 b5 02                  	<unknown>
   14138: 13 56 f5 03                  	srli	a2, a0, 63
   1413c: 09 85                        	srai	a0, a0, 2
   1413e: 32 95                        	add	a0, a0, a2
   14140: 23 34 a4 f4                  	sd	a0, -184(s0)
   14144: 6f f0 3f f7                  	j	-142
   14148: 01 45                        	mv	a0, zero
   1414a: a3 09 a4 f6                  	sb	a0, -141(s0)
   1414e: 6f 00 60 51                  	j	1302
   14152: 03 45 b4 f6                  	lbu	a0, -149(s0)
   14156: 93 05 00 07                  	addi	a1, zero, 112
   1415a: 63 1b b5 18                  	bne	a0, a1, 406
   1415e: 6f 00 40 00                  	j	4
   14162: 03 35 04 fd                  	ld	a0, -48(s0)
   14166: 93 05 85 00                  	addi	a1, a0, 8
   1416a: 23 38 b4 fc                  	sd	a1, -48(s0)
   1416e: 08 61                        	ld	a0, 0(a0)
   14170: 23 3c a4 f2                  	sd	a0, -200(s0)
   14174: 03 35 84 fe                  	ld	a0, -24(s0)
   14178: 14 41                        	lw	a3, 0(a0)
   1417a: 13 05 c4 f7                  	addi	a0, s0, -132
   1417e: 93 05 84 f7                  	addi	a1, s0, -136
   14182: 13 06 00 03                  	addi	a2, zero, 48
   14186: 23 34 a4 ee                  	sd	a0, -280(s0)
   1418a: 23 30 b4 ee                  	sd	a1, -288(s0)
   1418e: 97 00 00 00                  	auipc	ra, 0
   14192: e7 80 00 a2                  	jalr	-1504(ra)
   14196: 03 25 c4 fd                  	lw	a0, -36(s0)
   1419a: 05 05                        	addi	a0, a0, 1
   1419c: 23 2e a4 fc                  	sw	a0, -36(s0)
   141a0: 03 35 84 fe                  	ld	a0, -24(s0)
   141a4: 14 41                        	lw	a3, 0(a0)
   141a6: 13 06 80 07                  	addi	a2, zero, 120
   141aa: 03 35 84 ee                  	ld	a0, -280(s0)
   141ae: 83 35 04 ee                  	ld	a1, -288(s0)
   141b2: 97 00 00 00                  	auipc	ra, 0
   141b6: e7 80 c0 9f                  	jalr	-1540(ra)
   141ba: 03 25 c4 fd                  	lw	a0, -36(s0)
   141be: 05 05                        	addi	a0, a0, 1
   141c0: 23 2e a4 fc                  	sw	a0, -36(s0)
   141c4: 05 45                        	addi	a0, zero, 1
   141c6: 23 38 a4 f2                  	sd	a0, -208(s0)
   141ca: 23 26 a4 f2                  	sw	a0, -212(s0)
   141ce: 6f 00 40 00                  	j	4
   141d2: 03 35 04 f3                  	ld	a0, -208(s0)
   141d6: 83 35 84 f3                  	ld	a1, -200(s0)
   141da: 91 81                        	srli	a1, a1, 4
   141dc: 63 e0 a5 02                  	bltu	a1, a0, 32
   141e0: 6f 00 40 00                  	j	4
   141e4: 03 35 04 f3                  	ld	a0, -208(s0)
   141e8: 12 05                        	slli	a0, a0, 4
   141ea: 23 38 a4 f2                  	sd	a0, -208(s0)
   141ee: 03 25 c4 f2                  	lw	a0, -212(s0)
   141f2: 05 05                        	addi	a0, a0, 1
   141f4: 23 26 a4 f2                  	sw	a0, -212(s0)
   141f8: 6f f0 bf fd                  	j	-38
   141fc: 6f 00 40 00                  	j	4
   14200: 03 25 c4 f2                  	lw	a0, -212(s0)
   14204: 83 25 c4 f6                  	lw	a1, -148(s0)
   14208: 63 5f b5 02                  	bge	a0, a1, 62
   1420c: 6f 00 40 00                  	j	4
   14210: 03 35 84 fe                  	ld	a0, -24(s0)
   14214: 14 41                        	lw	a3, 0(a0)
   14216: 13 05 c4 f7                  	addi	a0, s0, -132
   1421a: 93 05 84 f7                  	addi	a1, s0, -136
   1421e: 13 06 00 02                  	addi	a2, zero, 32
   14222: 97 00 00 00                  	auipc	ra, 0
   14226: e7 80 c0 98                  	jalr	-1652(ra)
   1422a: 03 25 c4 fd                  	lw	a0, -36(s0)
   1422e: 05 05                        	addi	a0, a0, 1
   14230: 23 2e a4 fc                  	sw	a0, -36(s0)
   14234: 6f 00 40 00                  	j	4
   14238: 03 25 c4 f2                  	lw	a0, -212(s0)
   1423c: 05 05                        	addi	a0, a0, 1
   1423e: 23 26 a4 f2                  	sw	a0, -212(s0)
   14242: 6f f0 ff fb                  	j	-66
   14246: 6f 00 40 00                  	j	4
   1424a: 03 35 04 f3                  	ld	a0, -208(s0)
   1424e: 81 45                        	mv	a1, zero
   14250: 63 0b b5 08                  	beq	a0, a1, 150
   14254: 6f 00 40 00                  	j	4
   14258: 03 35 84 f3                  	ld	a0, -200(s0)
   1425c: 83 35 04 f3                  	ld	a1, -208(s0)
   14260: 33 55 b5 02                  	<unknown>
   14264: 3d 89                        	andi	a0, a0, 15
   14266: a3 05 a4 f2                  	sb	a0, -213(s0)
   1426a: 03 45 b4 f2                  	lbu	a0, -213(s0)
   1426e: a5 45                        	addi	a1, zero, 9
   14270: 63 cc a5 02                  	blt	a1, a0, 56
   14274: 6f 00 40 00                  	j	4
   14278: 03 05 b4 f2                  	lb	a0, -213(s0)
   1427c: 13 05 05 03                  	addi	a0, a0, 48
   14280: 83 35 84 fe                  	ld	a1, -24(s0)
   14284: 94 41                        	lw	a3, 0(a1)
   14286: 13 76 f5 0f                  	andi	a2, a0, 255
   1428a: 13 05 c4 f7                  	addi	a0, s0, -132
   1428e: 93 05 84 f7                  	addi	a1, s0, -136
   14292: 97 00 00 00                  	auipc	ra, 0
   14296: e7 80 c0 91                  	jalr	-1764(ra)
   1429a: 03 25 c4 fd                  	lw	a0, -36(s0)
   1429e: 05 05                        	addi	a0, a0, 1
   142a0: 23 2e a4 fc                  	sw	a0, -36(s0)
   142a4: 6f 00 40 03                  	j	52
   142a8: 03 05 b4 f2                  	lb	a0, -213(s0)
   142ac: 13 05 75 03                  	addi	a0, a0, 55
   142b0: 83 35 84 fe                  	ld	a1, -24(s0)
   142b4: 94 41                        	lw	a3, 0(a1)
   142b6: 13 76 f5 0f                  	andi	a2, a0, 255
   142ba: 13 05 c4 f7                  	addi	a0, s0, -132
   142be: 93 05 84 f7                  	addi	a1, s0, -136
   142c2: 97 00 00 00                  	auipc	ra, 0
   142c6: e7 80 c0 8e                  	jalr	-1812(ra)
   142ca: 03 25 c4 fd                  	lw	a0, -36(s0)
   142ce: 05 05                        	addi	a0, a0, 1
   142d0: 23 2e a4 fc                  	sw	a0, -36(s0)
   142d4: 6f 00 40 00                  	j	4
   142d8: 03 35 04 f3                  	ld	a0, -208(s0)
   142dc: 11 81                        	srli	a0, a0, 4
   142de: 23 38 a4 f2                  	sd	a0, -208(s0)
   142e2: 6f f0 9f f6                  	j	-152
   142e6: 01 45                        	mv	a0, zero
   142e8: a3 09 a4 f6                  	sb	a0, -141(s0)
   142ec: 6f 00 40 37                  	j	884
   142f0: 03 45 b4 f6                  	lbu	a0, -149(s0)
   142f4: 93 05 80 07                  	addi	a1, zero, 120
   142f8: 63 18 b5 16                  	bne	a0, a1, 368
   142fc: 6f 00 40 00                  	j	4
   14300: 03 35 04 fd                  	ld	a0, -48(s0)
   14304: 93 05 85 00                  	addi	a1, a0, 8
   14308: 23 38 b4 fc                  	sd	a1, -48(s0)
   1430c: 08 41                        	lw	a0, 0(a0)
   1430e: 23 22 a4 f2                  	sw	a0, -220(s0)
   14312: 05 45                        	addi	a0, zero, 1
   14314: 23 20 a4 f2                  	sw	a0, -224(s0)
   14318: 23 2e a4 f0                  	sw	a0, -228(s0)
   1431c: 6f 00 40 00                  	j	4
   14320: 03 25 04 f2                  	lw	a0, -224(s0)
   14324: 83 65 44 f2                  	lwu	a1, -220(s0)
   14328: 91 81                        	srli	a1, a1, 4
   1432a: 63 e0 a5 02                  	bltu	a1, a0, 32
   1432e: 6f 00 40 00                  	j	4
   14332: 03 25 04 f2                  	lw	a0, -224(s0)
   14336: 12 05                        	slli	a0, a0, 4
   14338: 23 20 a4 f2                  	sw	a0, -224(s0)
   1433c: 03 25 c4 f1                  	lw	a0, -228(s0)
   14340: 05 05                        	addi	a0, a0, 1
   14342: 23 2e a4 f0                  	sw	a0, -228(s0)
   14346: 6f f0 bf fd                  	j	-38
   1434a: 03 45 04 fc                  	lbu	a0, -64(s0)
   1434e: 93 05 00 02                  	addi	a1, zero, 32
   14352: 13 06 00 03                  	addi	a2, zero, 48
   14356: b2 86                        	add	a3, zero, a2
   14358: 23 3c b4 ec                  	sd	a1, -296(s0)
   1435c: 23 38 d4 ec                  	sd	a3, -304(s0)
   14360: 63 06 c5 00                  	beq	a0, a2, 12
   14364: 03 35 84 ed                  	ld	a0, -296(s0)
   14368: 23 38 a4 ec                  	sd	a0, -304(s0)
   1436c: 03 35 04 ed                  	ld	a0, -304(s0)
   14370: a3 0d a4 f0                  	sb	a0, -229(s0)
   14374: 6f 00 40 00                  	j	4
   14378: 03 25 c4 f1                  	lw	a0, -228(s0)
   1437c: 83 25 c4 f6                  	lw	a1, -148(s0)
   14380: 63 5f b5 02                  	bge	a0, a1, 62
   14384: 6f 00 40 00                  	j	4
   14388: 03 46 b4 f1                  	lbu	a2, -229(s0)
   1438c: 03 35 84 fe                  	ld	a0, -24(s0)
   14390: 14 41                        	lw	a3, 0(a0)
   14392: 13 05 c4 f7                  	addi	a0, s0, -132
   14396: 93 05 84 f7                  	addi	a1, s0, -136
   1439a: 97 00 00 00                  	auipc	ra, 0
   1439e: e7 80 40 81                  	jalr	-2028(ra)
   143a2: 03 25 c4 fd                  	lw	a0, -36(s0)
   143a6: 05 05                        	addi	a0, a0, 1
   143a8: 23 2e a4 fc                  	sw	a0, -36(s0)
   143ac: 6f 00 40 00                  	j	4
   143b0: 03 25 c4 f1                  	lw	a0, -228(s0)
   143b4: 05 05                        	addi	a0, a0, 1
   143b6: 23 2e a4 f0                  	sw	a0, -228(s0)
   143ba: 6f f0 ff fb                  	j	-66
   143be: 6f 00 40 00                  	j	4
   143c2: 03 25 04 f2                  	lw	a0, -224(s0)
   143c6: 81 45                        	mv	a1, zero
   143c8: 63 0b b5 08                  	beq	a0, a1, 150
   143cc: 6f 00 40 00                  	j	4
   143d0: 03 25 44 f2                  	lw	a0, -220(s0)
   143d4: 83 25 04 f2                  	lw	a1, -224(s0)
   143d8: 3b 55 b5 02                  	<unknown>
   143dc: 3d 89                        	andi	a0, a0, 15
   143de: 23 0d a4 f0                  	sb	a0, -230(s0)
   143e2: 03 45 a4 f1                  	lbu	a0, -230(s0)
   143e6: a5 45                        	addi	a1, zero, 9
   143e8: 63 cc a5 02                  	blt	a1, a0, 56
   143ec: 6f 00 40 00                  	j	4
   143f0: 03 05 a4 f1                  	lb	a0, -230(s0)
   143f4: 13 05 05 03                  	addi	a0, a0, 48
   143f8: 83 35 84 fe                  	ld	a1, -24(s0)
   143fc: 94 41                        	lw	a3, 0(a1)
   143fe: 13 76 f5 0f                  	andi	a2, a0, 255
   14402: 13 05 c4 f7                  	addi	a0, s0, -132
   14406: 93 05 84 f7                  	addi	a1, s0, -136
   1440a: 97 f0 ff ff                  	auipc	ra, 1048575
   1440e: e7 80 40 7a                  	jalr	1956(ra)
   14412: 03 25 c4 fd                  	lw	a0, -36(s0)
   14416: 05 05                        	addi	a0, a0, 1
   14418: 23 2e a4 fc                  	sw	a0, -36(s0)
   1441c: 6f 00 40 03                  	j	52
   14420: 03 05 a4 f1                  	lb	a0, -230(s0)
   14424: 13 05 75 03                  	addi	a0, a0, 55
   14428: 83 35 84 fe                  	ld	a1, -24(s0)
   1442c: 94 41                        	lw	a3, 0(a1)
   1442e: 13 76 f5 0f                  	andi	a2, a0, 255
   14432: 13 05 c4 f7                  	addi	a0, s0, -132
   14436: 93 05 84 f7                  	addi	a1, s0, -136
   1443a: 97 f0 ff ff                  	auipc	ra, 1048575
   1443e: e7 80 40 77                  	jalr	1908(ra)
   14442: 03 25 c4 fd                  	lw	a0, -36(s0)
   14446: 05 05                        	addi	a0, a0, 1
   14448: 23 2e a4 fc                  	sw	a0, -36(s0)
   1444c: 6f 00 40 00                  	j	4
   14450: 03 65 04 f2                  	lwu	a0, -224(s0)
   14454: 11 81                        	srli	a0, a0, 4
   14456: 23 20 a4 f2                  	sw	a0, -224(s0)
   1445a: 6f f0 9f f6                  	j	-152
   1445e: 01 45                        	mv	a0, zero
   14460: a3 09 a4 f6                  	sb	a0, -141(s0)
   14464: 6f 00 80 1f                  	j	504
   14468: 03 45 b4 f6                  	lbu	a0, -149(s0)
   1446c: 93 05 30 07                  	addi	a1, zero, 115
   14470: 63 1e b5 0e                  	bne	a0, a1, 252
   14474: 6f 00 40 00                  	j	4
   14478: 03 35 04 fd                  	ld	a0, -48(s0)
   1447c: 93 05 85 00                  	addi	a1, a0, 8
   14480: 23 38 b4 fc                  	sd	a1, -48(s0)
   14484: 08 61                        	ld	a0, 0(a0)
   14486: 23 38 a4 f0                  	sd	a0, -240(s0)
   1448a: 01 45                        	mv	a0, zero
   1448c: 23 26 a4 f0                  	sw	a0, -244(s0)
   14490: 6f 00 40 00                  	j	4
   14494: 03 35 04 f1                  	ld	a0, -240(s0)
   14498: 83 25 c4 f0                  	lw	a1, -244(s0)
   1449c: 2e 95                        	add	a0, a0, a1
   1449e: 03 45 05 00                  	lbu	a0, 0(a0)
   144a2: 81 45                        	mv	a1, zero
   144a4: 63 02 b5 02                  	beq	a0, a1, 36
   144a8: 6f 00 40 00                  	j	4
   144ac: 03 25 c4 f6                  	lw	a0, -148(s0)
   144b0: 7d 15                        	addi	a0, a0, -1
   144b2: 23 26 a4 f6                  	sw	a0, -148(s0)
   144b6: 6f 00 40 00                  	j	4
   144ba: 03 25 c4 f0                  	lw	a0, -244(s0)
   144be: 05 05                        	addi	a0, a0, 1
   144c0: 23 26 a4 f0                  	sw	a0, -244(s0)
   144c4: 6f f0 1f fd                  	j	-48
   144c8: 01 45                        	mv	a0, zero
   144ca: 23 24 a4 f0                  	sw	a0, -248(s0)
   144ce: 6f 00 40 00                  	j	4
   144d2: 03 25 84 f0                  	lw	a0, -248(s0)
   144d6: 83 25 c4 f6                  	lw	a1, -148(s0)
   144da: 63 5f b5 02                  	bge	a0, a1, 62
   144de: 6f 00 40 00                  	j	4
   144e2: 03 35 84 fe                  	ld	a0, -24(s0)
   144e6: 14 41                        	lw	a3, 0(a0)
   144e8: 13 05 c4 f7                  	addi	a0, s0, -132
   144ec: 93 05 84 f7                  	addi	a1, s0, -136
   144f0: 13 06 00 02                  	addi	a2, zero, 32
   144f4: 97 f0 ff ff                  	auipc	ra, 1048575
   144f8: e7 80 a0 6b                  	jalr	1722(ra)
   144fc: 03 25 c4 fd                  	lw	a0, -36(s0)
   14500: 05 05                        	addi	a0, a0, 1
   14502: 23 2e a4 fc                  	sw	a0, -36(s0)
   14506: 6f 00 40 00                  	j	4
   1450a: 03 25 84 f0                  	lw	a0, -248(s0)
   1450e: 05 05                        	addi	a0, a0, 1
   14510: 23 24 a4 f0                  	sw	a0, -248(s0)
   14514: 6f f0 ff fb                  	j	-66
   14518: 6f 00 40 00                  	j	4
   1451c: 03 35 04 f1                  	ld	a0, -240(s0)
   14520: 03 45 05 00                  	lbu	a0, 0(a0)
   14524: 81 45                        	mv	a1, zero
   14526: 63 0e b5 02                  	beq	a0, a1, 60
   1452a: 6f 00 40 00                  	j	4
   1452e: 03 35 04 f1                  	ld	a0, -240(s0)
   14532: 93 05 15 00                  	addi	a1, a0, 1
   14536: 23 38 b4 f0                  	sd	a1, -240(s0)
   1453a: 03 46 05 00                  	lbu	a2, 0(a0)
   1453e: 03 35 84 fe                  	ld	a0, -24(s0)
   14542: 14 41                        	lw	a3, 0(a0)
   14544: 13 05 c4 f7                  	addi	a0, s0, -132
   14548: 93 05 84 f7                  	addi	a1, s0, -136
   1454c: 97 f0 ff ff                  	auipc	ra, 1048575
   14550: e7 80 20 66                  	jalr	1634(ra)
   14554: 03 25 c4 fd                  	lw	a0, -36(s0)
   14558: 05 05                        	addi	a0, a0, 1
   1455a: 23 2e a4 fc                  	sw	a0, -36(s0)
   1455e: 6f f0 ff fb                  	j	-66
   14562: 01 45                        	mv	a0, zero
   14564: a3 09 a4 f6                  	sb	a0, -141(s0)
   14568: 6f 00 00 0f                  	j	240
   1456c: 03 45 b4 f6                  	lbu	a0, -149(s0)
   14570: 93 05 30 06                  	addi	a1, zero, 99
   14574: 63 1c b5 08                  	bne	a0, a1, 152
   14578: 6f 00 40 00                  	j	4
   1457c: 03 35 04 fd                  	ld	a0, -48(s0)
   14580: 93 05 85 00                  	addi	a1, a0, 8
   14584: 23 38 b4 fc                  	sd	a1, -48(s0)
   14588: 08 41                        	lw	a0, 0(a0)
   1458a: 23 22 a4 f0                  	sw	a0, -252(s0)
   1458e: 05 45                        	addi	a0, zero, 1
   14590: 23 20 a4 f0                  	sw	a0, -256(s0)
   14594: 6f 00 40 00                  	j	4
   14598: 03 25 04 f0                  	lw	a0, -256(s0)
   1459c: 83 25 c4 f6                  	lw	a1, -148(s0)
   145a0: 63 5f b5 02                  	bge	a0, a1, 62
   145a4: 6f 00 40 00                  	j	4
   145a8: 03 35 84 fe                  	ld	a0, -24(s0)
   145ac: 14 41                        	lw	a3, 0(a0)
   145ae: 13 05 c4 f7                  	addi	a0, s0, -132
   145b2: 93 05 84 f7                  	addi	a1, s0, -136
   145b6: 13 06 00 02                  	addi	a2, zero, 32
   145ba: 97 f0 ff ff                  	auipc	ra, 1048575
   145be: e7 80 40 5f                  	jalr	1524(ra)
   145c2: 03 25 c4 fd                  	lw	a0, -36(s0)
   145c6: 05 05                        	addi	a0, a0, 1
   145c8: 23 2e a4 fc                  	sw	a0, -36(s0)
   145cc: 6f 00 40 00                  	j	4
   145d0: 03 25 04 f0                  	lw	a0, -256(s0)
   145d4: 05 05                        	addi	a0, a0, 1
   145d6: 23 20 a4 f0                  	sw	a0, -256(s0)
   145da: 6f f0 ff fb                  	j	-66
   145de: 03 46 44 f0                  	lbu	a2, -252(s0)
   145e2: 03 35 84 fe                  	ld	a0, -24(s0)
   145e6: 14 41                        	lw	a3, 0(a0)
   145e8: 13 05 c4 f7                  	addi	a0, s0, -132
   145ec: 93 05 84 f7                  	addi	a1, s0, -136
   145f0: 97 f0 ff ff                  	auipc	ra, 1048575
   145f4: e7 80 e0 5b                  	jalr	1470(ra)
   145f8: 03 25 c4 fd                  	lw	a0, -36(s0)
   145fc: 05 05                        	addi	a0, a0, 1
   145fe: 23 2e a4 fc                  	sw	a0, -36(s0)
   14602: 01 45                        	mv	a0, zero
   14604: a3 09 a4 f6                  	sb	a0, -141(s0)
   14608: 6f 00 c0 04                  	j	76
   1460c: 03 45 b4 f6                  	lbu	a0, -149(s0)
   14610: 93 05 00 03                  	addi	a1, zero, 48
   14614: 63 4e b5 02                  	blt	a0, a1, 60
   14618: 6f 00 40 00                  	j	4
   1461c: 03 45 b4 f6                  	lbu	a0, -149(s0)
   14620: 93 05 90 03                  	addi	a1, zero, 57
   14624: 63 c6 a5 02                  	blt	a1, a0, 44
   14628: 6f 00 40 00                  	j	4
   1462c: 03 25 c4 f6                  	lw	a0, -148(s0)
   14630: a9 45                        	addi	a1, zero, 10
   14632: 33 05 b5 02                  	<unknown>
   14636: 23 26 a4 f6                  	sw	a0, -148(s0)
   1463a: 03 45 b4 f6                  	lbu	a0, -149(s0)
   1463e: 83 25 c4 f6                  	lw	a1, -148(s0)
   14642: 2e 95                        	add	a0, a0, a1
   14644: 13 05 05 fd                  	addi	a0, a0, -48
   14648: 23 26 a4 f6                  	sw	a0, -148(s0)
   1464c: 6f 00 40 00                  	j	4
   14650: 6f 00 40 00                  	j	4
   14654: 6f 00 40 00                  	j	4
   14658: 6f 00 40 00                  	j	4
   1465c: 6f 00 40 00                  	j	4
   14660: 6f 00 40 00                  	j	4
   14664: 6f 00 40 00                  	j	4
   14668: 6f 00 40 00                  	j	4
   1466c: 03 05 b4 f6                  	lb	a0, -149(s0)
   14670: 83 65 c4 fb                  	lwu	a1, -68(s0)
   14674: 13 86 15 00                  	addi	a2, a1, 1
   14678: 23 2e c4 fa                  	sw	a2, -68(s0)
   1467c: 13 06 04 fc                  	addi	a2, s0, -64
   14680: b2 95                        	add	a1, a1, a2
   14682: 23 80 a5 00                  	sb	a0, 0(a1)
   14686: 03 05 b4 f6                  	lb	a0, -149(s0)
   1468a: 23 09 a4 f6                  	sb	a0, -142(s0)
   1468e: 6f f0 0f e7                  	j	-2448
   14692: 03 46 b4 f6                  	lbu	a2, -149(s0)
   14696: 03 35 84 fe                  	ld	a0, -24(s0)
   1469a: 14 41                        	lw	a3, 0(a0)
   1469c: 13 05 c4 f7                  	addi	a0, s0, -132
   146a0: 93 05 84 f7                  	addi	a1, s0, -136
   146a4: 97 f0 ff ff                  	auipc	ra, 1048575
   146a8: e7 80 a0 50                  	jalr	1290(ra)
   146ac: 03 25 c4 fd                  	lw	a0, -36(s0)
   146b0: 05 05                        	addi	a0, a0, 1
   146b2: 23 2e a4 fc                  	sw	a0, -36(s0)
   146b6: 6f f0 8f e4                  	j	-2488
   146ba: 03 25 c4 fd                  	lw	a0, -36(s0)
   146be: 12 74                        	ld	s0, 288(sp)
   146c0: b2 70                        	ld	ra, 296(sp)
   146c2: 35 61                        	addi	sp, sp, 352
   146c4: 82 80                        	ret

00000000000146c6 raw_fprintf:
   146c6: 0d 71                        	addi	sp, sp, -352
   146c8: 06 f6                        	sd	ra, 296(sp)
   146ca: 22 f2                        	sd	s0, 288(sp)
   146cc: 00 1a                        	addi	s0, sp, 304
   146ce: 23 34 14 03                  	sd	a7, 40(s0)
   146d2: 23 30 04 03                  	sd	a6, 32(s0)
   146d6: 1c ec                        	sd	a5, 24(s0)
   146d8: 18 e8                        	sd	a4, 16(s0)
   146da: 14 e4                        	sd	a3, 8(s0)
   146dc: 10 e0                        	sd	a2, 0(s0)
   146de: 2a 86                        	add	a2, zero, a0
   146e0: 23 26 a4 fe                  	sw	a0, -20(s0)
   146e4: 23 30 b4 fe                  	sd	a1, -32(s0)
   146e8: 01 45                        	mv	a0, zero
   146ea: 23 2e a4 fc                  	sw	a0, -36(s0)
   146ee: a2 85                        	add	a1, zero, s0
   146f0: 23 38 b4 fc                  	sd	a1, -48(s0)
   146f4: 23 2e a4 fa                  	sw	a0, -68(s0)
   146f8: 23 2c a4 f6                  	sw	a0, -136(s0)
   146fc: 23 2a a4 f6                  	sw	a0, -140(s0)
   14700: 6f 00 40 00                  	j	4
   14704: 03 25 44 f7                  	lw	a0, -140(s0)
   14708: 93 05 f0 03                  	addi	a1, zero, 63
   1470c: 63 c5 a5 02                  	blt	a1, a0, 42
   14710: 6f 00 40 00                  	j	4
   14714: 03 25 44 f7                  	lw	a0, -140(s0)
   14718: 93 05 c4 f7                  	addi	a1, s0, -132
   1471c: 2e 95                        	add	a0, a0, a1
   1471e: 81 45                        	mv	a1, zero
   14720: 23 00 b5 00                  	sb	a1, 0(a0)
   14724: 6f 00 40 00                  	j	4
   14728: 03 25 44 f7                  	lw	a0, -140(s0)
   1472c: 05 05                        	addi	a0, a0, 1
   1472e: 23 2a a4 f6                  	sw	a0, -140(s0)
   14732: 6f f0 3f fd                  	j	-46
   14736: 01 45                        	mv	a0, zero
   14738: a3 09 a4 f6                  	sb	a0, -141(s0)
   1473c: 23 09 a4 f6                  	sb	a0, -142(s0)
   14740: 23 26 a4 f6                  	sw	a0, -148(s0)
   14744: 05 45                        	addi	a0, zero, 1
   14746: a3 05 a4 f6                  	sb	a0, -149(s0)
   1474a: 6f 00 40 00                  	j	4
   1474e: 03 45 b4 f6                  	lbu	a0, -149(s0)
   14752: 81 45                        	mv	a1, zero
   14754: e3 08 b5 18                  	beq	a0, a1, 2448
   14758: 6f 00 40 00                  	j	4
   1475c: 03 35 04 fe                  	ld	a0, -32(s0)
   14760: 93 05 15 00                  	addi	a1, a0, 1
   14764: 23 30 b4 fe                  	sd	a1, -32(s0)
   14768: 03 05 05 00                  	lb	a0, 0(a0)
   1476c: a3 05 a4 f6                  	sb	a0, -149(s0)
   14770: 03 45 34 f7                  	lbu	a0, -141(s0)
   14774: 81 45                        	mv	a1, zero
   14776: 63 10 b5 04                  	bne	a0, a1, 64
   1477a: 6f 00 40 00                  	j	4
   1477e: 03 45 b4 f6                  	lbu	a0, -149(s0)
   14782: 93 05 50 02                  	addi	a1, zero, 37
   14786: 63 12 b5 02                  	bne	a0, a1, 36
   1478a: 6f 00 40 00                  	j	4
   1478e: 05 45                        	addi	a0, zero, 1
   14790: a3 09 a4 f6                  	sb	a0, -141(s0)
   14794: 03 05 b4 f6                  	lb	a0, -149(s0)
   14798: 23 09 a4 f6                  	sb	a0, -142(s0)
   1479c: 01 45                        	mv	a0, zero
   1479e: 23 2e a4 fa                  	sw	a0, -68(s0)
   147a2: 23 26 a4 f6                  	sw	a0, -148(s0)
   147a6: 6f f0 9f fa                  	j	-88
   147aa: 03 05 b4 f6                  	lb	a0, -149(s0)
   147ae: 23 09 a4 f6                  	sb	a0, -142(s0)
   147b2: 6f 00 d0 10                  	j	2316
   147b6: 03 45 b4 f6                  	lbu	a0, -149(s0)
   147ba: 93 05 90 06                  	addi	a1, zero, 105
   147be: 63 12 b5 20                  	bne	a0, a1, 516
   147c2: 6f 00 40 00                  	j	4
   147c6: 03 35 04 fd                  	ld	a0, -48(s0)
   147ca: 93 05 85 00                  	addi	a1, a0, 8
   147ce: 23 38 b4 fc                  	sd	a1, -48(s0)
   147d2: 08 41                        	lw	a0, 0(a0)
   147d4: 23 22 a4 f6                  	sw	a0, -156(s0)
   147d8: 03 25 44 f6                  	lw	a0, -156(s0)
   147dc: fd 55                        	addi	a1, zero, -1
   147de: 63 ce a5 02                  	blt	a1, a0, 60
   147e2: 6f 00 40 00                  	j	4
   147e6: 03 25 44 f6                  	lw	a0, -156(s0)
   147ea: 81 45                        	mv	a1, zero
   147ec: 33 85 a5 40                  	sub	a0, a1, a0
   147f0: 23 22 a4 f6                  	sw	a0, -156(s0)
   147f4: 83 26 c4 fe                  	lw	a3, -20(s0)
   147f8: 13 05 c4 f7                  	addi	a0, s0, -132
   147fc: 93 05 84 f7                  	addi	a1, s0, -136
   14800: 13 06 d0 02                  	addi	a2, zero, 45
   14804: 97 f0 ff ff                  	auipc	ra, 1048575
   14808: e7 80 a0 3a                  	jalr	938(ra)
   1480c: 03 25 c4 fd                  	lw	a0, -36(s0)
   14810: 05 05                        	addi	a0, a0, 1
   14812: 23 2e a4 fc                  	sw	a0, -36(s0)
   14816: 6f 00 40 00                  	j	4
   1481a: 05 45                        	addi	a0, zero, 1
   1481c: 23 20 a4 f6                  	sw	a0, -160(s0)
   14820: 23 2e a4 f4                  	sw	a0, -164(s0)
   14824: 6f 00 40 00                  	j	4
   14828: 03 25 04 f6                  	lw	a0, -160(s0)
   1482c: 83 25 44 f6                  	lw	a1, -156(s0)
   14830: 37 36 33 03                  	lui	a2, 13107
   14834: 1b 06 36 33                  	addiw	a2, a2, 819
   14838: 32 06                        	slli	a2, a2, 12
   1483a: 13 06 36 33                  	addi	a2, a2, 819
   1483e: 32 06                        	slli	a2, a2, 12
   14840: 13 06 36 33                  	addi	a2, a2, 819
   14844: 36 06                        	slli	a2, a2, 13
   14846: 13 06 76 66                  	addi	a2, a2, 1639
   1484a: b3 95 c5 02                  	<unknown>
   1484e: 13 d6 f5 03                  	srli	a2, a1, 63
   14852: 89 81                        	srli	a1, a1, 2
   14854: b1 9d                        	addw	a1, a1, a2
   14856: 63 c2 a5 02                  	blt	a1, a0, 36
   1485a: 6f 00 40 00                  	j	4
   1485e: 03 25 04 f6                  	lw	a0, -160(s0)
   14862: a9 45                        	addi	a1, zero, 10
   14864: 33 05 b5 02                  	<unknown>
   14868: 23 20 a4 f6                  	sw	a0, -160(s0)
   1486c: 03 25 c4 f5                  	lw	a0, -164(s0)
   14870: 05 05                        	addi	a0, a0, 1
   14872: 23 2e a4 f4                  	sw	a0, -164(s0)
   14876: 6f f0 3f fb                  	j	-78
   1487a: 6f 00 40 00                  	j	4
   1487e: 03 25 c4 f5                  	lw	a0, -164(s0)
   14882: 83 25 c4 f6                  	lw	a1, -148(s0)
   14886: 63 5e b5 02                  	bge	a0, a1, 60
   1488a: 6f 00 40 00                  	j	4
   1488e: 83 26 c4 fe                  	lw	a3, -20(s0)
   14892: 13 05 c4 f7                  	addi	a0, s0, -132
   14896: 93 05 84 f7                  	addi	a1, s0, -136
   1489a: 13 06 00 02                  	addi	a2, zero, 32
   1489e: 97 f0 ff ff                  	auipc	ra, 1048575
   148a2: e7 80 00 31                  	jalr	784(ra)
   148a6: 03 25 c4 fd                  	lw	a0, -36(s0)
   148aa: 05 05                        	addi	a0, a0, 1
   148ac: 23 2e a4 fc                  	sw	a0, -36(s0)
   148b0: 6f 00 40 00                  	j	4
   148b4: 03 25 c4 f5                  	lw	a0, -164(s0)
   148b8: 05 05                        	addi	a0, a0, 1
   148ba: 23 2e a4 f4                  	sw	a0, -164(s0)
   148be: 6f f0 1f fc                  	j	-64
   148c2: 03 25 c4 fb                  	lw	a0, -68(s0)
   148c6: 89 45                        	addi	a1, zero, 2
   148c8: 63 6e b5 04                  	bltu	a0, a1, 92
   148cc: 6f 00 40 00                  	j	4
   148d0: 05 45                        	addi	a0, zero, 1
   148d2: 23 2c a4 f4                  	sw	a0, -168(s0)
   148d6: 6f 00 40 00                  	j	4
   148da: 03 45 14 fc                  	lbu	a0, -63(s0)
   148de: 93 05 f5 ff                  	addi	a1, a0, -1
   148e2: a3 00 b4 fc                  	sb	a1, -63(s0)
   148e6: 93 05 20 03                  	addi	a1, zero, 50
   148ea: 63 4d b5 00                  	blt	a0, a1, 26
   148ee: 6f 00 40 00                  	j	4
   148f2: 03 25 84 f5                  	lw	a0, -168(s0)
   148f6: a9 45                        	addi	a1, zero, 10
   148f8: 33 05 b5 02                  	<unknown>
   148fc: 23 2c a4 f4                  	sw	a0, -168(s0)
   14900: 6f f0 bf fd                  	j	-38
   14904: 03 25 84 f5                  	lw	a0, -168(s0)
   14908: 83 25 04 f6                  	lw	a1, -160(s0)
   1490c: 63 da a5 00                  	bge	a1, a0, 20
   14910: 6f 00 40 00                  	j	4
   14914: 03 25 84 f5                  	lw	a0, -168(s0)
   14918: 23 20 a4 f6                  	sw	a0, -160(s0)
   1491c: 6f 00 40 00                  	j	4
   14920: 6f 00 40 00                  	j	4
   14924: 6f 00 40 00                  	j	4
   14928: 03 25 04 f6                  	lw	a0, -160(s0)
   1492c: 85 45                        	addi	a1, zero, 1
   1492e: 63 45 b5 08                  	blt	a0, a1, 138
   14932: 6f 00 40 00                  	j	4
   14936: 03 25 44 f6                  	lw	a0, -156(s0)
   1493a: 83 25 04 f6                  	lw	a1, -160(s0)
   1493e: 3b 45 b5 02                  	<unknown>
   14942: b7 35 33 03                  	lui	a1, 13107
   14946: 9b 85 35 33                  	addiw	a1, a1, 819
   1494a: b2 05                        	slli	a1, a1, 12
   1494c: 93 85 35 33                  	addi	a1, a1, 819
   14950: b2 05                        	slli	a1, a1, 12
   14952: 93 85 35 33                  	addi	a1, a1, 819
   14956: b6 05                        	slli	a1, a1, 13
   14958: 93 85 75 66                  	addi	a1, a1, 1639
   1495c: 33 16 b5 02                  	<unknown>
   14960: 93 56 f6 03                  	srli	a3, a2, 63
   14964: 09 82                        	srli	a2, a2, 2
   14966: 36 96                        	add	a2, a2, a3
   14968: a9 46                        	addi	a3, zero, 10
   1496a: 33 06 d6 02                  	<unknown>
   1496e: 11 8d                        	sub	a0, a0, a2
   14970: 13 05 05 03                  	addi	a0, a0, 48
   14974: 83 26 c4 fe                  	lw	a3, -20(s0)
   14978: 13 76 f5 0f                  	andi	a2, a0, 255
   1497c: 13 05 c4 f7                  	addi	a0, s0, -132
   14980: 13 07 84 f7                  	addi	a4, s0, -136
   14984: 23 3c b4 ee                  	sd	a1, -264(s0)
   14988: ba 85                        	add	a1, zero, a4
   1498a: 97 f0 ff ff                  	auipc	ra, 1048575
   1498e: e7 80 40 22                  	jalr	548(ra)
   14992: 03 25 c4 fd                  	lw	a0, -36(s0)
   14996: 05 05                        	addi	a0, a0, 1
   14998: 23 2e a4 fc                  	sw	a0, -36(s0)
   1499c: 03 25 04 f6                  	lw	a0, -160(s0)
   149a0: 83 35 84 ef                  	ld	a1, -264(s0)
   149a4: 33 15 b5 02                  	<unknown>
   149a8: 13 56 f5 03                  	srli	a2, a0, 63
   149ac: 09 81                        	srli	a0, a0, 2
   149ae: 32 95                        	add	a0, a0, a2
   149b0: 23 20 a4 f6                  	sw	a0, -160(s0)
   149b4: 6f f0 5f f7                  	j	-140
   149b8: 01 45                        	mv	a0, zero
   149ba: a3 09 a4 f6                  	sb	a0, -141(s0)
   149be: 6f 00 a0 6d                  	j	1754
   149c2: 03 45 b4 f6                  	lbu	a0, -149(s0)
   149c6: 93 05 c0 06                  	addi	a1, zero, 108
   149ca: 63 19 b5 00                  	bne	a0, a1, 18
   149ce: 6f 00 40 00                  	j	4
   149d2: 05 45                        	addi	a0, zero, 1
   149d4: a3 09 a4 f6                  	sb	a0, -141(s0)
   149d8: 6f 00 c0 6b                  	j	1724
   149dc: 03 45 b4 f6                  	lbu	a0, -149(s0)
   149e0: 93 05 40 06                  	addi	a1, zero, 100
   149e4: 63 19 b5 1a                  	bne	a0, a1, 434
   149e8: 6f 00 40 00                  	j	4
   149ec: 03 45 24 f7                  	lbu	a0, -142(s0)
   149f0: 93 05 c0 06                  	addi	a1, zero, 108
   149f4: 63 11 b5 1a                  	bne	a0, a1, 418
   149f8: 6f 00 40 00                  	j	4
   149fc: 03 35 04 fd                  	ld	a0, -48(s0)
   14a00: 93 05 85 00                  	addi	a1, a0, 8
   14a04: 23 38 b4 fc                  	sd	a1, -48(s0)
   14a08: 08 61                        	ld	a0, 0(a0)
   14a0a: 23 38 a4 f4                  	sd	a0, -176(s0)
   14a0e: 03 35 04 f5                  	ld	a0, -176(s0)
   14a12: fd 55                        	addi	a1, zero, -1
   14a14: 63 ce a5 02                  	blt	a1, a0, 60
   14a18: 6f 00 40 00                  	j	4
   14a1c: 03 35 04 f5                  	ld	a0, -176(s0)
   14a20: 81 45                        	mv	a1, zero
   14a22: 33 85 a5 40                  	sub	a0, a1, a0
   14a26: 23 38 a4 f4                  	sd	a0, -176(s0)
   14a2a: 83 26 c4 fe                  	lw	a3, -20(s0)
   14a2e: 13 05 c4 f7                  	addi	a0, s0, -132
   14a32: 93 05 84 f7                  	addi	a1, s0, -136
   14a36: 13 06 d0 02                  	addi	a2, zero, 45
   14a3a: 97 f0 ff ff                  	auipc	ra, 1048575
   14a3e: e7 80 40 17                  	jalr	372(ra)
   14a42: 03 25 c4 fd                  	lw	a0, -36(s0)
   14a46: 05 05                        	addi	a0, a0, 1
   14a48: 23 2e a4 fc                  	sw	a0, -36(s0)
   14a4c: 6f 00 40 00                  	j	4
   14a50: 05 45                        	addi	a0, zero, 1
   14a52: 23 34 a4 f4                  	sd	a0, -184(s0)
   14a56: 23 22 a4 f4                  	sw	a0, -188(s0)
   14a5a: 6f 00 40 00                  	j	4
   14a5e: 03 35 84 f4                  	ld	a0, -184(s0)
   14a62: 83 35 04 f5                  	ld	a1, -176(s0)
   14a66: 37 36 33 03                  	lui	a2, 13107
   14a6a: 1b 06 36 33                  	addiw	a2, a2, 819
   14a6e: 32 06                        	slli	a2, a2, 12
   14a70: 13 06 36 33                  	addi	a2, a2, 819
   14a74: 32 06                        	slli	a2, a2, 12
   14a76: 13 06 36 33                  	addi	a2, a2, 819
   14a7a: 36 06                        	slli	a2, a2, 13
   14a7c: 13 06 76 66                  	addi	a2, a2, 1639
   14a80: b3 95 c5 02                  	<unknown>
   14a84: 13 d6 f5 03                  	srli	a2, a1, 63
   14a88: 89 85                        	srai	a1, a1, 2
   14a8a: b2 95                        	add	a1, a1, a2
   14a8c: 63 c2 a5 02                  	blt	a1, a0, 36
   14a90: 6f 00 40 00                  	j	4
   14a94: 03 35 84 f4                  	ld	a0, -184(s0)
   14a98: a9 45                        	addi	a1, zero, 10
   14a9a: 33 05 b5 02                  	<unknown>
   14a9e: 23 34 a4 f4                  	sd	a0, -184(s0)
   14aa2: 03 25 44 f4                  	lw	a0, -188(s0)
   14aa6: 05 05                        	addi	a0, a0, 1
   14aa8: 23 22 a4 f4                  	sw	a0, -188(s0)
   14aac: 6f f0 3f fb                  	j	-78
   14ab0: 6f 00 40 00                  	j	4
   14ab4: 03 25 44 f4                  	lw	a0, -188(s0)
   14ab8: 83 25 c4 f6                  	lw	a1, -148(s0)
   14abc: 63 5e b5 02                  	bge	a0, a1, 60
   14ac0: 6f 00 40 00                  	j	4
   14ac4: 83 26 c4 fe                  	lw	a3, -20(s0)
   14ac8: 13 05 c4 f7                  	addi	a0, s0, -132
   14acc: 93 05 84 f7                  	addi	a1, s0, -136
   14ad0: 13 06 00 02                  	addi	a2, zero, 32
   14ad4: 97 f0 ff ff                  	auipc	ra, 1048575
   14ad8: e7 80 a0 0d                  	jalr	218(ra)
   14adc: 03 25 c4 fd                  	lw	a0, -36(s0)
   14ae0: 05 05                        	addi	a0, a0, 1
   14ae2: 23 2e a4 fc                  	sw	a0, -36(s0)
   14ae6: 6f 00 40 00                  	j	4
   14aea: 03 25 44 f4                  	lw	a0, -188(s0)
   14aee: 05 05                        	addi	a0, a0, 1
   14af0: 23 22 a4 f4                  	sw	a0, -188(s0)
   14af4: 6f f0 1f fc                  	j	-64
   14af8: 6f 00 40 00                  	j	4
   14afc: 03 35 84 f4                  	ld	a0, -184(s0)
   14b00: 85 45                        	addi	a1, zero, 1
   14b02: 63 45 b5 08                  	blt	a0, a1, 138
   14b06: 6f 00 40 00                  	j	4
   14b0a: 03 35 04 f5                  	ld	a0, -176(s0)
   14b0e: 83 35 84 f4                  	ld	a1, -184(s0)
   14b12: 33 45 b5 02                  	<unknown>
   14b16: b7 35 33 03                  	lui	a1, 13107
   14b1a: 9b 85 35 33                  	addiw	a1, a1, 819
   14b1e: b2 05                        	slli	a1, a1, 12
   14b20: 93 85 35 33                  	addi	a1, a1, 819
   14b24: b2 05                        	slli	a1, a1, 12
   14b26: 93 85 35 33                  	addi	a1, a1, 819
   14b2a: b6 05                        	slli	a1, a1, 13
   14b2c: 93 85 75 66                  	addi	a1, a1, 1639
   14b30: 33 16 b5 02                  	<unknown>
   14b34: 93 56 f6 03                  	srli	a3, a2, 63
   14b38: 09 82                        	srli	a2, a2, 2
   14b3a: 36 96                        	add	a2, a2, a3
   14b3c: a9 46                        	addi	a3, zero, 10
   14b3e: 33 06 d6 02                  	<unknown>
   14b42: 11 8d                        	sub	a0, a0, a2
   14b44: 13 05 05 03                  	addi	a0, a0, 48
   14b48: 83 26 c4 fe                  	lw	a3, -20(s0)
   14b4c: 13 76 f5 0f                  	andi	a2, a0, 255
   14b50: 13 05 c4 f7                  	addi	a0, s0, -132
   14b54: 13 07 84 f7                  	addi	a4, s0, -136
   14b58: 23 38 b4 ee                  	sd	a1, -272(s0)
   14b5c: ba 85                        	add	a1, zero, a4
   14b5e: 97 f0 ff ff                  	auipc	ra, 1048575
   14b62: e7 80 00 05                  	jalr	80(ra)
   14b66: 03 25 c4 fd                  	lw	a0, -36(s0)
   14b6a: 05 05                        	addi	a0, a0, 1
   14b6c: 23 2e a4 fc                  	sw	a0, -36(s0)
   14b70: 03 35 84 f4                  	ld	a0, -184(s0)
   14b74: 83 35 04 ef                  	ld	a1, -272(s0)
   14b78: 33 15 b5 02                  	<unknown>
   14b7c: 13 56 f5 03                  	srli	a2, a0, 63
   14b80: 09 85                        	srai	a0, a0, 2
   14b82: 32 95                        	add	a0, a0, a2
   14b84: 23 34 a4 f4                  	sd	a0, -184(s0)
   14b88: 6f f0 5f f7                  	j	-140
   14b8c: 01 45                        	mv	a0, zero
   14b8e: a3 09 a4 f6                  	sb	a0, -141(s0)
   14b92: 6f 00 e0 4f                  	j	1278
   14b96: 03 45 b4 f6                  	lbu	a0, -149(s0)
   14b9a: 93 05 00 07                  	addi	a1, zero, 112
   14b9e: 63 16 b5 18                  	bne	a0, a1, 396
   14ba2: 6f 00 40 00                  	j	4
   14ba6: 03 35 04 fd                  	ld	a0, -48(s0)
   14baa: 93 05 85 00                  	addi	a1, a0, 8
   14bae: 23 38 b4 fc                  	sd	a1, -48(s0)
   14bb2: 08 61                        	ld	a0, 0(a0)
   14bb4: 23 3c a4 f2                  	sd	a0, -200(s0)
   14bb8: 83 26 c4 fe                  	lw	a3, -20(s0)
   14bbc: 13 05 c4 f7                  	addi	a0, s0, -132
   14bc0: 93 05 84 f7                  	addi	a1, s0, -136
   14bc4: 13 06 00 03                  	addi	a2, zero, 48
   14bc8: 23 34 a4 ee                  	sd	a0, -280(s0)
   14bcc: 23 30 b4 ee                  	sd	a1, -288(s0)
   14bd0: 97 f0 ff ff                  	auipc	ra, 1048575
   14bd4: e7 80 e0 fd                  	jalr	-34(ra)
   14bd8: 03 25 c4 fd                  	lw	a0, -36(s0)
   14bdc: 05 05                        	addi	a0, a0, 1
   14bde: 23 2e a4 fc                  	sw	a0, -36(s0)
   14be2: 83 26 c4 fe                  	lw	a3, -20(s0)
   14be6: 13 06 80 07                  	addi	a2, zero, 120
   14bea: 03 35 84 ee                  	ld	a0, -280(s0)
   14bee: 83 35 04 ee                  	ld	a1, -288(s0)
   14bf2: 97 f0 ff ff                  	auipc	ra, 1048575
   14bf6: e7 80 c0 fb                  	jalr	-68(ra)
   14bfa: 03 25 c4 fd                  	lw	a0, -36(s0)
   14bfe: 05 05                        	addi	a0, a0, 1
   14c00: 23 2e a4 fc                  	sw	a0, -36(s0)
   14c04: 05 45                        	addi	a0, zero, 1
   14c06: 23 38 a4 f2                  	sd	a0, -208(s0)
   14c0a: 23 26 a4 f2                  	sw	a0, -212(s0)
   14c0e: 6f 00 40 00                  	j	4
   14c12: 03 35 04 f3                  	ld	a0, -208(s0)
   14c16: 83 35 84 f3                  	ld	a1, -200(s0)
   14c1a: 91 81                        	srli	a1, a1, 4
   14c1c: 63 e0 a5 02                  	bltu	a1, a0, 32
   14c20: 6f 00 40 00                  	j	4
   14c24: 03 35 04 f3                  	ld	a0, -208(s0)
   14c28: 12 05                        	slli	a0, a0, 4
   14c2a: 23 38 a4 f2                  	sd	a0, -208(s0)
   14c2e: 03 25 c4 f2                  	lw	a0, -212(s0)
   14c32: 05 05                        	addi	a0, a0, 1
   14c34: 23 26 a4 f2                  	sw	a0, -212(s0)
   14c38: 6f f0 bf fd                  	j	-38
   14c3c: 6f 00 40 00                  	j	4
   14c40: 03 25 c4 f2                  	lw	a0, -212(s0)
   14c44: 83 25 c4 f6                  	lw	a1, -148(s0)
   14c48: 63 5e b5 02                  	bge	a0, a1, 60
   14c4c: 6f 00 40 00                  	j	4
   14c50: 83 26 c4 fe                  	lw	a3, -20(s0)
   14c54: 13 05 c4 f7                  	addi	a0, s0, -132
   14c58: 93 05 84 f7                  	addi	a1, s0, -136
   14c5c: 13 06 00 02                  	addi	a2, zero, 32
   14c60: 97 f0 ff ff                  	auipc	ra, 1048575
   14c64: e7 80 e0 f4                  	jalr	-178(ra)
   14c68: 03 25 c4 fd                  	lw	a0, -36(s0)
   14c6c: 05 05                        	addi	a0, a0, 1
   14c6e: 23 2e a4 fc                  	sw	a0, -36(s0)
   14c72: 6f 00 40 00                  	j	4
   14c76: 03 25 c4 f2                  	lw	a0, -212(s0)
   14c7a: 05 05                        	addi	a0, a0, 1
   14c7c: 23 26 a4 f2                  	sw	a0, -212(s0)
   14c80: 6f f0 1f fc                  	j	-64
   14c84: 6f 00 40 00                  	j	4
   14c88: 03 35 04 f3                  	ld	a0, -208(s0)
   14c8c: 81 45                        	mv	a1, zero
   14c8e: 63 09 b5 08                  	beq	a0, a1, 146
   14c92: 6f 00 40 00                  	j	4
   14c96: 03 35 84 f3                  	ld	a0, -200(s0)
   14c9a: 83 35 04 f3                  	ld	a1, -208(s0)
   14c9e: 33 55 b5 02                  	<unknown>
   14ca2: 3d 89                        	andi	a0, a0, 15
   14ca4: a3 05 a4 f2                  	sb	a0, -213(s0)
   14ca8: 03 45 b4 f2                  	lbu	a0, -213(s0)
   14cac: a5 45                        	addi	a1, zero, 9
   14cae: 63 cb a5 02                  	blt	a1, a0, 54
   14cb2: 6f 00 40 00                  	j	4
   14cb6: 03 05 b4 f2                  	lb	a0, -213(s0)
   14cba: 13 05 05 03                  	addi	a0, a0, 48
   14cbe: 83 26 c4 fe                  	lw	a3, -20(s0)
   14cc2: 13 76 f5 0f                  	andi	a2, a0, 255
   14cc6: 13 05 c4 f7                  	addi	a0, s0, -132
   14cca: 93 05 84 f7                  	addi	a1, s0, -136
   14cce: 97 f0 ff ff                  	auipc	ra, 1048575
   14cd2: e7 80 00 ee                  	jalr	-288(ra)
   14cd6: 03 25 c4 fd                  	lw	a0, -36(s0)
   14cda: 05 05                        	addi	a0, a0, 1
   14cdc: 23 2e a4 fc                  	sw	a0, -36(s0)
   14ce0: 6f 00 20 03                  	j	50
   14ce4: 03 05 b4 f2                  	lb	a0, -213(s0)
   14ce8: 13 05 75 03                  	addi	a0, a0, 55
   14cec: 83 26 c4 fe                  	lw	a3, -20(s0)
   14cf0: 13 76 f5 0f                  	andi	a2, a0, 255
   14cf4: 13 05 c4 f7                  	addi	a0, s0, -132
   14cf8: 93 05 84 f7                  	addi	a1, s0, -136
   14cfc: 97 f0 ff ff                  	auipc	ra, 1048575
   14d00: e7 80 20 eb                  	jalr	-334(ra)
   14d04: 03 25 c4 fd                  	lw	a0, -36(s0)
   14d08: 05 05                        	addi	a0, a0, 1
   14d0a: 23 2e a4 fc                  	sw	a0, -36(s0)
   14d0e: 6f 00 40 00                  	j	4
   14d12: 03 35 04 f3                  	ld	a0, -208(s0)
   14d16: 11 81                        	srli	a0, a0, 4
   14d18: 23 38 a4 f2                  	sd	a0, -208(s0)
   14d1c: 6f f0 df f6                  	j	-148
   14d20: 01 45                        	mv	a0, zero
   14d22: a3 09 a4 f6                  	sb	a0, -141(s0)
   14d26: 6f 00 60 36                  	j	870
   14d2a: 03 45 b4 f6                  	lbu	a0, -149(s0)
   14d2e: 93 05 80 07                  	addi	a1, zero, 120
   14d32: 63 15 b5 16                  	bne	a0, a1, 362
   14d36: 6f 00 40 00                  	j	4
   14d3a: 03 35 04 fd                  	ld	a0, -48(s0)
   14d3e: 93 05 85 00                  	addi	a1, a0, 8
   14d42: 23 38 b4 fc                  	sd	a1, -48(s0)
   14d46: 08 41                        	lw	a0, 0(a0)
   14d48: 23 22 a4 f2                  	sw	a0, -220(s0)
   14d4c: 05 45                        	addi	a0, zero, 1
   14d4e: 23 20 a4 f2                  	sw	a0, -224(s0)
   14d52: 23 2e a4 f0                  	sw	a0, -228(s0)
   14d56: 6f 00 40 00                  	j	4
   14d5a: 03 25 04 f2                  	lw	a0, -224(s0)
   14d5e: 83 65 44 f2                  	lwu	a1, -220(s0)
   14d62: 91 81                        	srli	a1, a1, 4
   14d64: 63 e0 a5 02                  	bltu	a1, a0, 32
   14d68: 6f 00 40 00                  	j	4
   14d6c: 03 25 04 f2                  	lw	a0, -224(s0)
   14d70: 12 05                        	slli	a0, a0, 4
   14d72: 23 20 a4 f2                  	sw	a0, -224(s0)
   14d76: 03 25 c4 f1                  	lw	a0, -228(s0)
   14d7a: 05 05                        	addi	a0, a0, 1
   14d7c: 23 2e a4 f0                  	sw	a0, -228(s0)
   14d80: 6f f0 bf fd                  	j	-38
   14d84: 03 45 04 fc                  	lbu	a0, -64(s0)
   14d88: 93 05 00 02                  	addi	a1, zero, 32
   14d8c: 13 06 00 03                  	addi	a2, zero, 48
   14d90: b2 86                        	add	a3, zero, a2
   14d92: 23 3c b4 ec                  	sd	a1, -296(s0)
   14d96: 23 38 d4 ec                  	sd	a3, -304(s0)
   14d9a: 63 06 c5 00                  	beq	a0, a2, 12
   14d9e: 03 35 84 ed                  	ld	a0, -296(s0)
   14da2: 23 38 a4 ec                  	sd	a0, -304(s0)
   14da6: 03 35 04 ed                  	ld	a0, -304(s0)
   14daa: a3 0d a4 f0                  	sb	a0, -229(s0)
   14dae: 6f 00 40 00                  	j	4
   14db2: 03 25 c4 f1                  	lw	a0, -228(s0)
   14db6: 83 25 c4 f6                  	lw	a1, -148(s0)
   14dba: 63 5e b5 02                  	bge	a0, a1, 60
   14dbe: 6f 00 40 00                  	j	4
   14dc2: 03 46 b4 f1                  	lbu	a2, -229(s0)
   14dc6: 83 26 c4 fe                  	lw	a3, -20(s0)
   14dca: 13 05 c4 f7                  	addi	a0, s0, -132
   14dce: 93 05 84 f7                  	addi	a1, s0, -136
   14dd2: 97 f0 ff ff                  	auipc	ra, 1048575
   14dd6: e7 80 c0 dd                  	jalr	-548(ra)
   14dda: 03 25 c4 fd                  	lw	a0, -36(s0)
   14dde: 05 05                        	addi	a0, a0, 1
   14de0: 23 2e a4 fc                  	sw	a0, -36(s0)
   14de4: 6f 00 40 00                  	j	4
   14de8: 03 25 c4 f1                  	lw	a0, -228(s0)
   14dec: 05 05                        	addi	a0, a0, 1
   14dee: 23 2e a4 f0                  	sw	a0, -228(s0)
   14df2: 6f f0 1f fc                  	j	-64
   14df6: 6f 00 40 00                  	j	4
   14dfa: 03 25 04 f2                  	lw	a0, -224(s0)
   14dfe: 81 45                        	mv	a1, zero
   14e00: 63 09 b5 08                  	beq	a0, a1, 146
   14e04: 6f 00 40 00                  	j	4
   14e08: 03 25 44 f2                  	lw	a0, -220(s0)
   14e0c: 83 25 04 f2                  	lw	a1, -224(s0)
   14e10: 3b 55 b5 02                  	<unknown>
   14e14: 3d 89                        	andi	a0, a0, 15
   14e16: 23 0d a4 f0                  	sb	a0, -230(s0)
   14e1a: 03 45 a4 f1                  	lbu	a0, -230(s0)
   14e1e: a5 45                        	addi	a1, zero, 9
   14e20: 63 cb a5 02                  	blt	a1, a0, 54
   14e24: 6f 00 40 00                  	j	4
   14e28: 03 05 a4 f1                  	lb	a0, -230(s0)
   14e2c: 13 05 05 03                  	addi	a0, a0, 48
   14e30: 83 26 c4 fe                  	lw	a3, -20(s0)
   14e34: 13 76 f5 0f                  	andi	a2, a0, 255
   14e38: 13 05 c4 f7                  	addi	a0, s0, -132
   14e3c: 93 05 84 f7                  	addi	a1, s0, -136
   14e40: 97 f0 ff ff                  	auipc	ra, 1048575
   14e44: e7 80 e0 d6                  	jalr	-658(ra)
   14e48: 03 25 c4 fd                  	lw	a0, -36(s0)
   14e4c: 05 05                        	addi	a0, a0, 1
   14e4e: 23 2e a4 fc                  	sw	a0, -36(s0)
   14e52: 6f 00 20 03                  	j	50
   14e56: 03 05 a4 f1                  	lb	a0, -230(s0)
   14e5a: 13 05 75 03                  	addi	a0, a0, 55
   14e5e: 83 26 c4 fe                  	lw	a3, -20(s0)
   14e62: 13 76 f5 0f                  	andi	a2, a0, 255
   14e66: 13 05 c4 f7                  	addi	a0, s0, -132
   14e6a: 93 05 84 f7                  	addi	a1, s0, -136
   14e6e: 97 f0 ff ff                  	auipc	ra, 1048575
   14e72: e7 80 00 d4                  	jalr	-704(ra)
   14e76: 03 25 c4 fd                  	lw	a0, -36(s0)
   14e7a: 05 05                        	addi	a0, a0, 1
   14e7c: 23 2e a4 fc                  	sw	a0, -36(s0)
   14e80: 6f 00 40 00                  	j	4
   14e84: 03 65 04 f2                  	lwu	a0, -224(s0)
   14e88: 11 81                        	srli	a0, a0, 4
   14e8a: 23 20 a4 f2                  	sw	a0, -224(s0)
   14e8e: 6f f0 df f6                  	j	-148
   14e92: 01 45                        	mv	a0, zero
   14e94: a3 09 a4 f6                  	sb	a0, -141(s0)
   14e98: 6f 00 00 1f                  	j	496
   14e9c: 03 45 b4 f6                  	lbu	a0, -149(s0)
   14ea0: 93 05 30 07                  	addi	a1, zero, 115
   14ea4: 63 1c b5 0e                  	bne	a0, a1, 248
   14ea8: 6f 00 40 00                  	j	4
   14eac: 03 35 04 fd                  	ld	a0, -48(s0)
   14eb0: 93 05 85 00                  	addi	a1, a0, 8
   14eb4: 23 38 b4 fc                  	sd	a1, -48(s0)
   14eb8: 08 61                        	ld	a0, 0(a0)
   14eba: 23 38 a4 f0                  	sd	a0, -240(s0)
   14ebe: 01 45                        	mv	a0, zero
   14ec0: 23 26 a4 f0                  	sw	a0, -244(s0)
   14ec4: 6f 00 40 00                  	j	4
   14ec8: 03 35 04 f1                  	ld	a0, -240(s0)
   14ecc: 83 25 c4 f0                  	lw	a1, -244(s0)
   14ed0: 2e 95                        	add	a0, a0, a1
   14ed2: 03 45 05 00                  	lbu	a0, 0(a0)
   14ed6: 81 45                        	mv	a1, zero
   14ed8: 63 02 b5 02                  	beq	a0, a1, 36
   14edc: 6f 00 40 00                  	j	4
   14ee0: 03 25 c4 f6                  	lw	a0, -148(s0)
   14ee4: 7d 15                        	addi	a0, a0, -1
   14ee6: 23 26 a4 f6                  	sw	a0, -148(s0)
   14eea: 6f 00 40 00                  	j	4
   14eee: 03 25 c4 f0                  	lw	a0, -244(s0)
   14ef2: 05 05                        	addi	a0, a0, 1
   14ef4: 23 26 a4 f0                  	sw	a0, -244(s0)
   14ef8: 6f f0 1f fd                  	j	-48
   14efc: 01 45                        	mv	a0, zero
   14efe: 23 24 a4 f0                  	sw	a0, -248(s0)
   14f02: 6f 00 40 00                  	j	4
   14f06: 03 25 84 f0                  	lw	a0, -248(s0)
   14f0a: 83 25 c4 f6                  	lw	a1, -148(s0)
   14f0e: 63 5e b5 02                  	bge	a0, a1, 60
   14f12: 6f 00 40 00                  	j	4
   14f16: 83 26 c4 fe                  	lw	a3, -20(s0)
   14f1a: 13 05 c4 f7                  	addi	a0, s0, -132
   14f1e: 93 05 84 f7                  	addi	a1, s0, -136
   14f22: 13 06 00 02                  	addi	a2, zero, 32
   14f26: 97 f0 ff ff                  	auipc	ra, 1048575
   14f2a: e7 80 80 c8                  	jalr	-888(ra)
   14f2e: 03 25 c4 fd                  	lw	a0, -36(s0)
   14f32: 05 05                        	addi	a0, a0, 1
   14f34: 23 2e a4 fc                  	sw	a0, -36(s0)
   14f38: 6f 00 40 00                  	j	4
   14f3c: 03 25 84 f0                  	lw	a0, -248(s0)
   14f40: 05 05                        	addi	a0, a0, 1
   14f42: 23 24 a4 f0                  	sw	a0, -248(s0)
   14f46: 6f f0 1f fc                  	j	-64
   14f4a: 6f 00 40 00                  	j	4
   14f4e: 03 35 04 f1                  	ld	a0, -240(s0)
   14f52: 03 45 05 00                  	lbu	a0, 0(a0)
   14f56: 81 45                        	mv	a1, zero
   14f58: 63 0d b5 02                  	beq	a0, a1, 58
   14f5c: 6f 00 40 00                  	j	4
   14f60: 03 35 04 f1                  	ld	a0, -240(s0)
   14f64: 93 05 15 00                  	addi	a1, a0, 1
   14f68: 23 38 b4 f0                  	sd	a1, -240(s0)
   14f6c: 03 46 05 00                  	lbu	a2, 0(a0)
   14f70: 83 26 c4 fe                  	lw	a3, -20(s0)
   14f74: 13 05 c4 f7                  	addi	a0, s0, -132
   14f78: 93 05 84 f7                  	addi	a1, s0, -136
   14f7c: 97 f0 ff ff                  	auipc	ra, 1048575
   14f80: e7 80 20 c3                  	jalr	-974(ra)
   14f84: 03 25 c4 fd                  	lw	a0, -36(s0)
   14f88: 05 05                        	addi	a0, a0, 1
   14f8a: 23 2e a4 fc                  	sw	a0, -36(s0)
   14f8e: 6f f0 1f fc                  	j	-64
   14f92: 01 45                        	mv	a0, zero
   14f94: a3 09 a4 f6                  	sb	a0, -141(s0)
   14f98: 6f 00 c0 0e                  	j	236
   14f9c: 03 45 b4 f6                  	lbu	a0, -149(s0)
   14fa0: 93 05 30 06                  	addi	a1, zero, 99
   14fa4: 63 1a b5 08                  	bne	a0, a1, 148
   14fa8: 6f 00 40 00                  	j	4
   14fac: 03 35 04 fd                  	ld	a0, -48(s0)
   14fb0: 93 05 85 00                  	addi	a1, a0, 8
   14fb4: 23 38 b4 fc                  	sd	a1, -48(s0)
   14fb8: 08 41                        	lw	a0, 0(a0)
   14fba: 23 22 a4 f0                  	sw	a0, -252(s0)
   14fbe: 05 45                        	addi	a0, zero, 1
   14fc0: 23 20 a4 f0                  	sw	a0, -256(s0)
   14fc4: 6f 00 40 00                  	j	4
   14fc8: 03 25 04 f0                  	lw	a0, -256(s0)
   14fcc: 83 25 c4 f6                  	lw	a1, -148(s0)
   14fd0: 63 5e b5 02                  	bge	a0, a1, 60
   14fd4: 6f 00 40 00                  	j	4
   14fd8: 83 26 c4 fe                  	lw	a3, -20(s0)
   14fdc: 13 05 c4 f7                  	addi	a0, s0, -132
   14fe0: 93 05 84 f7                  	addi	a1, s0, -136
   14fe4: 13 06 00 02                  	addi	a2, zero, 32
   14fe8: 97 f0 ff ff                  	auipc	ra, 1048575
   14fec: e7 80 60 bc                  	jalr	-1082(ra)
   14ff0: 03 25 c4 fd                  	lw	a0, -36(s0)
   14ff4: 05 05                        	addi	a0, a0, 1
   14ff6: 23 2e a4 fc                  	sw	a0, -36(s0)
   14ffa: 6f 00 40 00                  	j	4
   14ffe: 03 25 04 f0                  	lw	a0, -256(s0)
   15002: 05 05                        	addi	a0, a0, 1
   15004: 23 20 a4 f0                  	sw	a0, -256(s0)
   15008: 6f f0 1f fc                  	j	-64
   1500c: 03 46 44 f0                  	lbu	a2, -252(s0)
   15010: 83 26 c4 fe                  	lw	a3, -20(s0)
   15014: 13 05 c4 f7                  	addi	a0, s0, -132
   15018: 93 05 84 f7                  	addi	a1, s0, -136
   1501c: 97 f0 ff ff                  	auipc	ra, 1048575
   15020: e7 80 20 b9                  	jalr	-1134(ra)
   15024: 03 25 c4 fd                  	lw	a0, -36(s0)
   15028: 05 05                        	addi	a0, a0, 1
   1502a: 23 2e a4 fc                  	sw	a0, -36(s0)
   1502e: 01 45                        	mv	a0, zero
   15030: a3 09 a4 f6                  	sb	a0, -141(s0)
   15034: 6f 00 c0 04                  	j	76
   15038: 03 45 b4 f6                  	lbu	a0, -149(s0)
   1503c: 93 05 00 03                  	addi	a1, zero, 48
   15040: 63 4e b5 02                  	blt	a0, a1, 60
   15044: 6f 00 40 00                  	j	4
   15048: 03 45 b4 f6                  	lbu	a0, -149(s0)
   1504c: 93 05 90 03                  	addi	a1, zero, 57
   15050: 63 c6 a5 02                  	blt	a1, a0, 44
   15054: 6f 00 40 00                  	j	4
   15058: 03 25 c4 f6                  	lw	a0, -148(s0)
   1505c: a9 45                        	addi	a1, zero, 10
   1505e: 33 05 b5 02                  	<unknown>
   15062: 23 26 a4 f6                  	sw	a0, -148(s0)
   15066: 03 45 b4 f6                  	lbu	a0, -149(s0)
   1506a: 83 25 c4 f6                  	lw	a1, -148(s0)
   1506e: 2e 95                        	add	a0, a0, a1
   15070: 13 05 05 fd                  	addi	a0, a0, -48
   15074: 23 26 a4 f6                  	sw	a0, -148(s0)
   15078: 6f 00 40 00                  	j	4
   1507c: 6f 00 40 00                  	j	4
   15080: 6f 00 40 00                  	j	4
   15084: 6f 00 40 00                  	j	4
   15088: 6f 00 40 00                  	j	4
   1508c: 6f 00 40 00                  	j	4
   15090: 6f 00 40 00                  	j	4
   15094: 6f 00 40 00                  	j	4
   15098: 03 05 b4 f6                  	lb	a0, -149(s0)
   1509c: 83 65 c4 fb                  	lwu	a1, -68(s0)
   150a0: 13 86 15 00                  	addi	a2, a1, 1
   150a4: 23 2e c4 fa                  	sw	a2, -68(s0)
   150a8: 13 06 04 fc                  	addi	a2, s0, -64
   150ac: b2 95                        	add	a1, a1, a2
   150ae: 23 80 a5 00                  	sb	a0, 0(a1)
   150b2: 03 05 b4 f6                  	lb	a0, -149(s0)
   150b6: 23 09 a4 f6                  	sb	a0, -142(s0)
   150ba: 6f f0 4f e9                  	j	-2412
   150be: 03 46 b4 f6                  	lbu	a2, -149(s0)
   150c2: 83 26 c4 fe                  	lw	a3, -20(s0)
   150c6: 13 05 c4 f7                  	addi	a0, s0, -132
   150ca: 93 05 84 f7                  	addi	a1, s0, -136
   150ce: 97 f0 ff ff                  	auipc	ra, 1048575
   150d2: e7 80 00 ae                  	jalr	-1312(ra)
   150d6: 03 25 c4 fd                  	lw	a0, -36(s0)
   150da: 05 05                        	addi	a0, a0, 1
   150dc: 23 2e a4 fc                  	sw	a0, -36(s0)
   150e0: 6f f0 ef e6                  	j	-2450
   150e4: 03 25 c4 fd                  	lw	a0, -36(s0)
   150e8: 12 74                        	ld	s0, 288(sp)
   150ea: b2 70                        	ld	ra, 296(sp)
   150ec: 35 61                        	addi	sp, sp, 352
   150ee: 82 80                        	ret

00000000000150f0 local_sput:
   150f0: 79 71                        	addi	sp, sp, -48
   150f2: 06 f4                        	sd	ra, 40(sp)
   150f4: 22 f0                        	sd	s0, 32(sp)
   150f6: 00 18                        	addi	s0, sp, 48
   150f8: 23 34 a4 fe                  	sd	a0, -24(s0)
   150fc: 23 30 b4 fe                  	sd	a1, -32(s0)
   15100: 01 45                        	mv	a0, zero
   15102: 23 2e a4 fc                  	sw	a0, -36(s0)
   15106: 6f 00 40 00                  	j	4
   1510a: 03 35 84 fe                  	ld	a0, -24(s0)
   1510e: 83 25 c4 fd                  	lw	a1, -36(s0)
   15112: 2e 95                        	add	a0, a0, a1
   15114: 03 45 05 00                  	lbu	a0, 0(a0)
   15118: 81 45                        	mv	a1, zero
   1511a: 63 0a b5 02                  	beq	a0, a1, 52
   1511e: 6f 00 40 00                  	j	4
   15122: 03 35 84 fe                  	ld	a0, -24(s0)
   15126: 83 25 c4 fd                  	lw	a1, -36(s0)
   1512a: 2e 95                        	add	a0, a0, a1
   1512c: 03 05 05 00                  	lb	a0, 0(a0)
   15130: 83 35 04 fe                  	ld	a1, -32(s0)
   15134: 90 61                        	ld	a2, 0(a1)
   15136: 93 06 16 00                  	addi	a3, a2, 1
   1513a: 94 e1                        	sd	a3, 0(a1)
   1513c: 23 00 a6 00                  	sb	a0, 0(a2)
   15140: 03 25 c4 fd                  	lw	a0, -36(s0)
   15144: 05 05                        	addi	a0, a0, 1
   15146: 23 2e a4 fc                  	sw	a0, -36(s0)
   1514a: 6f f0 1f fc                  	j	-64
   1514e: 02 74                        	ld	s0, 32(sp)
   15150: a2 70                        	ld	ra, 40(sp)
   15152: 45 61                        	addi	sp, sp, 48
   15154: 82 80                        	ret

0000000000015156 sprintf_helper:
   15156: 79 71                        	addi	sp, sp, -48
   15158: 06 f4                        	sd	ra, 40(sp)
   1515a: 22 f0                        	sd	s0, 32(sp)
   1515c: 00 18                        	addi	s0, sp, 48
   1515e: 32 87                        	add	a4, zero, a2
   15160: 23 34 a4 fe                  	sd	a0, -24(s0)
   15164: 23 30 b4 fe                  	sd	a1, -32(s0)
   15168: a3 0f c4 fc                  	sb	a2, -33(s0)
   1516c: 23 38 d4 fc                  	sd	a3, -48(s0)
   15170: 03 05 f4 fd                  	lb	a0, -33(s0)
   15174: 83 35 84 fe                  	ld	a1, -24(s0)
   15178: 03 36 04 fe                  	ld	a2, -32(s0)
   1517c: 83 66 06 00                  	lwu	a3, 0(a2)
   15180: 93 87 16 00                  	addi	a5, a3, 1
   15184: 1c c2                        	sw	a5, 0(a2)
   15186: 37 16 04 41                  	lui	a2, 266305
   1518a: 1b 06 16 04                  	addiw	a2, a2, 65
   1518e: 32 06                        	slli	a2, a2, 12
   15190: 13 06 16 04                  	addi	a2, a2, 65
   15194: 42 06                        	slli	a2, a2, 16
   15196: 13 06 16 41                  	addi	a2, a2, 1041
   1519a: b3 b7 c6 02                  	<unknown>
   1519e: 33 88 f6 40                  	sub	a6, a3, a5
   151a2: 13 58 18 00                  	srli	a6, a6, 1
   151a6: c2 97                        	add	a5, a5, a6
   151a8: 95 83                        	srli	a5, a5, 5
   151aa: 13 98 67 00                  	slli	a6, a5, 6
   151ae: b3 87 07 41                  	sub	a5, a5, a6
   151b2: be 96                        	add	a3, a3, a5
   151b4: b6 95                        	add	a1, a1, a3
   151b6: 23 80 a5 00                  	sb	a0, 0(a1)
   151ba: 03 35 04 fe                  	ld	a0, -32(s0)
   151be: 03 65 05 00                  	lwu	a0, 0(a0)
   151c2: b7 f5 fb fe                  	lui	a1, 1044415
   151c6: 9b 85 f5 fb                  	addiw	a1, a1, -65
   151ca: b2 05                        	slli	a1, a1, 12
   151cc: 93 85 f5 fb                  	addi	a1, a1, -65
   151d0: b2 05                        	slli	a1, a1, 12
   151d2: 93 85 f5 fb                  	addi	a1, a1, -65
   151d6: b2 05                        	slli	a1, a1, 12
   151d8: 93 85 f5 fb                  	addi	a1, a1, -65
   151dc: 33 05 b5 02                  	<unknown>
   151e0: 63 6b c5 00                  	bltu	a0, a2, 22
   151e4: 6f 00 40 00                  	j	4
   151e8: 03 45 f4 fd                  	lbu	a0, -33(s0)
   151ec: 81 45                        	mv	a1, zero
   151ee: 63 12 b5 02                  	bne	a0, a1, 36
   151f2: 6f 00 40 00                  	j	4
   151f6: 03 35 84 fe                  	ld	a0, -24(s0)
   151fa: 83 35 04 fd                  	ld	a1, -48(s0)
   151fe: 97 00 00 00                  	auipc	ra, 0
   15202: e7 80 20 ef                  	jalr	-270(ra)
   15206: 03 35 04 fe                  	ld	a0, -32(s0)
   1520a: 81 45                        	mv	a1, zero
   1520c: 0c c1                        	sw	a1, 0(a0)
   1520e: 6f 00 40 00                  	j	4
   15212: 02 74                        	ld	s0, 32(sp)
   15214: a2 70                        	ld	ra, 40(sp)
   15216: 45 61                        	addi	sp, sp, 48
   15218: 82 80                        	ret

000000000001521a sprintf:
   1521a: 49 71                        	addi	sp, sp, -368
   1521c: 06 fe                        	sd	ra, 312(sp)
   1521e: 22 fa                        	sd	s0, 304(sp)
   15220: 80 02                        	addi	s0, sp, 320
   15222: 23 34 14 03                  	sd	a7, 40(s0)
   15226: 23 30 04 03                  	sd	a6, 32(s0)
   1522a: 1c ec                        	sd	a5, 24(s0)
   1522c: 18 e8                        	sd	a4, 16(s0)
   1522e: 14 e4                        	sd	a3, 8(s0)
   15230: 10 e0                        	sd	a2, 0(s0)
   15232: 23 34 a4 fe                  	sd	a0, -24(s0)
   15236: 23 30 b4 fe                  	sd	a1, -32(s0)
   1523a: 01 45                        	mv	a0, zero
   1523c: 23 2e a4 fc                  	sw	a0, -36(s0)
   15240: a2 85                        	add	a1, zero, s0
   15242: 23 38 b4 fc                  	sd	a1, -48(s0)
   15246: 23 2e a4 fa                  	sw	a0, -68(s0)
   1524a: 23 2c a4 f6                  	sw	a0, -136(s0)
   1524e: 23 2a a4 f6                  	sw	a0, -140(s0)
   15252: 6f 00 40 00                  	j	4
   15256: 03 25 44 f7                  	lw	a0, -140(s0)
   1525a: 93 05 f0 03                  	addi	a1, zero, 63
   1525e: 63 c5 a5 02                  	blt	a1, a0, 42
   15262: 6f 00 40 00                  	j	4
   15266: 03 25 44 f7                  	lw	a0, -140(s0)
   1526a: 93 05 c4 f7                  	addi	a1, s0, -132
   1526e: 2e 95                        	add	a0, a0, a1
   15270: 81 45                        	mv	a1, zero
   15272: 23 00 b5 00                  	sb	a1, 0(a0)
   15276: 6f 00 40 00                  	j	4
   1527a: 03 25 44 f7                  	lw	a0, -140(s0)
   1527e: 05 05                        	addi	a0, a0, 1
   15280: 23 2a a4 f6                  	sw	a0, -140(s0)
   15284: 6f f0 3f fd                  	j	-46
   15288: 01 45                        	mv	a0, zero
   1528a: a3 09 a4 f6                  	sb	a0, -141(s0)
   1528e: 23 09 a4 f6                  	sb	a0, -142(s0)
   15292: 23 26 a4 f6                  	sw	a0, -148(s0)
   15296: 05 45                        	addi	a0, zero, 1
   15298: a3 05 a4 f6                  	sb	a0, -149(s0)
   1529c: 6f 00 40 00                  	j	4
   152a0: 03 45 b4 f6                  	lbu	a0, -149(s0)
   152a4: 81 45                        	mv	a1, zero
   152a6: e3 0c b5 18                  	beq	a0, a1, 2456
   152aa: 6f 00 40 00                  	j	4
   152ae: 03 35 04 fe                  	ld	a0, -32(s0)
   152b2: 93 05 15 00                  	addi	a1, a0, 1
   152b6: 23 30 b4 fe                  	sd	a1, -32(s0)
   152ba: 03 05 05 00                  	lb	a0, 0(a0)
   152be: a3 05 a4 f6                  	sb	a0, -149(s0)
   152c2: 03 45 34 f7                  	lbu	a0, -141(s0)
   152c6: 81 45                        	mv	a1, zero
   152c8: 63 10 b5 04                  	bne	a0, a1, 64
   152cc: 6f 00 40 00                  	j	4
   152d0: 03 45 b4 f6                  	lbu	a0, -149(s0)
   152d4: 93 05 50 02                  	addi	a1, zero, 37
   152d8: 63 12 b5 02                  	bne	a0, a1, 36
   152dc: 6f 00 40 00                  	j	4
   152e0: 05 45                        	addi	a0, zero, 1
   152e2: a3 09 a4 f6                  	sb	a0, -141(s0)
   152e6: 03 05 b4 f6                  	lb	a0, -149(s0)
   152ea: 23 09 a4 f6                  	sb	a0, -142(s0)
   152ee: 01 45                        	mv	a0, zero
   152f0: 23 2e a4 fa                  	sw	a0, -68(s0)
   152f4: 23 26 a4 f6                  	sw	a0, -148(s0)
   152f8: 6f f0 9f fa                  	j	-88
   152fc: 03 05 b4 f6                  	lb	a0, -149(s0)
   15300: 23 09 a4 f6                  	sb	a0, -142(s0)
   15304: 6f 00 50 11                  	j	2324
   15308: 03 45 b4 f6                  	lbu	a0, -149(s0)
   1530c: 93 05 90 06                  	addi	a1, zero, 105
   15310: 63 13 b5 20                  	bne	a0, a1, 518
   15314: 6f 00 40 00                  	j	4
   15318: 03 35 04 fd                  	ld	a0, -48(s0)
   1531c: 93 05 85 00                  	addi	a1, a0, 8
   15320: 23 38 b4 fc                  	sd	a1, -48(s0)
   15324: 08 41                        	lw	a0, 0(a0)
   15326: 23 22 a4 f6                  	sw	a0, -156(s0)
   1532a: 03 25 44 f6                  	lw	a0, -156(s0)
   1532e: fd 55                        	addi	a1, zero, -1
   15330: 63 ce a5 02                  	blt	a1, a0, 60
   15334: 6f 00 40 00                  	j	4
   15338: 03 25 44 f6                  	lw	a0, -156(s0)
   1533c: 81 45                        	mv	a1, zero
   1533e: 33 85 a5 40                  	sub	a0, a1, a0
   15342: 23 22 a4 f6                  	sw	a0, -156(s0)
   15346: 13 05 c4 f7                  	addi	a0, s0, -132
   1534a: 93 05 84 f7                  	addi	a1, s0, -136
   1534e: 13 06 d0 02                  	addi	a2, zero, 45
   15352: 93 06 84 fe                  	addi	a3, s0, -24
   15356: 97 00 00 00                  	auipc	ra, 0
   1535a: e7 80 00 e0                  	jalr	-512(ra)
   1535e: 03 25 c4 fd                  	lw	a0, -36(s0)
   15362: 05 05                        	addi	a0, a0, 1
   15364: 23 2e a4 fc                  	sw	a0, -36(s0)
   15368: 6f 00 40 00                  	j	4
   1536c: 05 45                        	addi	a0, zero, 1
   1536e: 23 20 a4 f6                  	sw	a0, -160(s0)
   15372: 23 2e a4 f4                  	sw	a0, -164(s0)
   15376: 6f 00 40 00                  	j	4
   1537a: 03 25 04 f6                  	lw	a0, -160(s0)
   1537e: 83 25 44 f6                  	lw	a1, -156(s0)
   15382: 37 36 33 03                  	lui	a2, 13107
   15386: 1b 06 36 33                  	addiw	a2, a2, 819
   1538a: 32 06                        	slli	a2, a2, 12
   1538c: 13 06 36 33                  	addi	a2, a2, 819
   15390: 32 06                        	slli	a2, a2, 12
   15392: 13 06 36 33                  	addi	a2, a2, 819
   15396: 36 06                        	slli	a2, a2, 13
   15398: 13 06 76 66                  	addi	a2, a2, 1639
   1539c: b3 95 c5 02                  	<unknown>
   153a0: 13 d6 f5 03                  	srli	a2, a1, 63
   153a4: 89 81                        	srli	a1, a1, 2
   153a6: b1 9d                        	addw	a1, a1, a2
   153a8: 63 c2 a5 02                  	blt	a1, a0, 36
   153ac: 6f 00 40 00                  	j	4
   153b0: 03 25 04 f6                  	lw	a0, -160(s0)
   153b4: a9 45                        	addi	a1, zero, 10
   153b6: 33 05 b5 02                  	<unknown>
   153ba: 23 20 a4 f6                  	sw	a0, -160(s0)
   153be: 03 25 c4 f5                  	lw	a0, -164(s0)
   153c2: 05 05                        	addi	a0, a0, 1
   153c4: 23 2e a4 f4                  	sw	a0, -164(s0)
   153c8: 6f f0 3f fb                  	j	-78
   153cc: 6f 00 40 00                  	j	4
   153d0: 03 25 c4 f5                  	lw	a0, -164(s0)
   153d4: 83 25 c4 f6                  	lw	a1, -148(s0)
   153d8: 63 5e b5 02                  	bge	a0, a1, 60
   153dc: 6f 00 40 00                  	j	4
   153e0: 13 05 c4 f7                  	addi	a0, s0, -132
   153e4: 93 05 84 f7                  	addi	a1, s0, -136
   153e8: 13 06 00 02                  	addi	a2, zero, 32
   153ec: 93 06 84 fe                  	addi	a3, s0, -24
   153f0: 97 00 00 00                  	auipc	ra, 0
   153f4: e7 80 60 d6                  	jalr	-666(ra)
   153f8: 03 25 c4 fd                  	lw	a0, -36(s0)
   153fc: 05 05                        	addi	a0, a0, 1
   153fe: 23 2e a4 fc                  	sw	a0, -36(s0)
   15402: 6f 00 40 00                  	j	4
   15406: 03 25 c4 f5                  	lw	a0, -164(s0)
   1540a: 05 05                        	addi	a0, a0, 1
   1540c: 23 2e a4 f4                  	sw	a0, -164(s0)
   15410: 6f f0 1f fc                  	j	-64
   15414: 03 25 c4 fb                  	lw	a0, -68(s0)
   15418: 89 45                        	addi	a1, zero, 2
   1541a: 63 6e b5 04                  	bltu	a0, a1, 92
   1541e: 6f 00 40 00                  	j	4
   15422: 05 45                        	addi	a0, zero, 1
   15424: 23 2c a4 f4                  	sw	a0, -168(s0)
   15428: 6f 00 40 00                  	j	4
   1542c: 03 45 14 fc                  	lbu	a0, -63(s0)
   15430: 93 05 f5 ff                  	addi	a1, a0, -1
   15434: a3 00 b4 fc                  	sb	a1, -63(s0)
   15438: 93 05 20 03                  	addi	a1, zero, 50
   1543c: 63 4d b5 00                  	blt	a0, a1, 26
   15440: 6f 00 40 00                  	j	4
   15444: 03 25 84 f5                  	lw	a0, -168(s0)
   15448: a9 45                        	addi	a1, zero, 10
   1544a: 33 05 b5 02                  	<unknown>
   1544e: 23 2c a4 f4                  	sw	a0, -168(s0)
   15452: 6f f0 bf fd                  	j	-38
   15456: 03 25 84 f5                  	lw	a0, -168(s0)
   1545a: 83 25 04 f6                  	lw	a1, -160(s0)
   1545e: 63 da a5 00                  	bge	a1, a0, 20
   15462: 6f 00 40 00                  	j	4
   15466: 03 25 84 f5                  	lw	a0, -168(s0)
   1546a: 23 20 a4 f6                  	sw	a0, -160(s0)
   1546e: 6f 00 40 00                  	j	4
   15472: 6f 00 40 00                  	j	4
   15476: 6f 00 40 00                  	j	4
   1547a: 03 25 04 f6                  	lw	a0, -160(s0)
   1547e: 85 45                        	addi	a1, zero, 1
   15480: 63 46 b5 08                  	blt	a0, a1, 140
   15484: 6f 00 40 00                  	j	4
   15488: 03 25 44 f6                  	lw	a0, -156(s0)
   1548c: 83 25 04 f6                  	lw	a1, -160(s0)
   15490: 3b 45 b5 02                  	<unknown>
   15494: b7 35 33 03                  	lui	a1, 13107
   15498: 9b 85 35 33                  	addiw	a1, a1, 819
   1549c: b2 05                        	slli	a1, a1, 12
   1549e: 93 85 35 33                  	addi	a1, a1, 819
   154a2: b2 05                        	slli	a1, a1, 12
   154a4: 93 85 35 33                  	addi	a1, a1, 819
   154a8: b6 05                        	slli	a1, a1, 13
   154aa: 93 85 75 66                  	addi	a1, a1, 1639
   154ae: 33 16 b5 02                  	<unknown>
   154b2: 93 56 f6 03                  	srli	a3, a2, 63
   154b6: 09 82                        	srli	a2, a2, 2
   154b8: 36 96                        	add	a2, a2, a3
   154ba: a9 46                        	addi	a3, zero, 10
   154bc: 33 06 d6 02                  	<unknown>
   154c0: 11 8d                        	sub	a0, a0, a2
   154c2: 13 05 05 03                  	addi	a0, a0, 48
   154c6: 13 76 f5 0f                  	andi	a2, a0, 255
   154ca: 13 05 c4 f7                  	addi	a0, s0, -132
   154ce: 93 06 84 f7                  	addi	a3, s0, -136
   154d2: 13 07 84 fe                  	addi	a4, s0, -24
   154d6: 23 3c b4 ee                  	sd	a1, -264(s0)
   154da: b6 85                        	add	a1, zero, a3
   154dc: ba 86                        	add	a3, zero, a4
   154de: 97 00 00 00                  	auipc	ra, 0
   154e2: e7 80 80 c7                  	jalr	-904(ra)
   154e6: 03 25 c4 fd                  	lw	a0, -36(s0)
   154ea: 05 05                        	addi	a0, a0, 1
   154ec: 23 2e a4 fc                  	sw	a0, -36(s0)
   154f0: 03 25 04 f6                  	lw	a0, -160(s0)
   154f4: 83 35 84 ef                  	ld	a1, -264(s0)
   154f8: 33 15 b5 02                  	<unknown>
   154fc: 13 56 f5 03                  	srli	a2, a0, 63
   15500: 09 81                        	srli	a0, a0, 2
   15502: 32 95                        	add	a0, a0, a2
   15504: 23 20 a4 f6                  	sw	a0, -160(s0)
   15508: 6f f0 3f f7                  	j	-142
   1550c: 01 45                        	mv	a0, zero
   1550e: a3 09 a4 f6                  	sb	a0, -141(s0)
   15512: 6f 00 00 6e                  	j	1760
   15516: 03 45 b4 f6                  	lbu	a0, -149(s0)
   1551a: 93 05 c0 06                  	addi	a1, zero, 108
   1551e: 63 19 b5 00                  	bne	a0, a1, 18
   15522: 6f 00 40 00                  	j	4
   15526: 05 45                        	addi	a0, zero, 1
   15528: a3 09 a4 f6                  	sb	a0, -141(s0)
   1552c: 6f 00 20 6c                  	j	1730
   15530: 03 45 b4 f6                  	lbu	a0, -149(s0)
   15534: 93 05 40 06                  	addi	a1, zero, 100
   15538: 63 1a b5 1a                  	bne	a0, a1, 436
   1553c: 6f 00 40 00                  	j	4
   15540: 03 45 24 f7                  	lbu	a0, -142(s0)
   15544: 93 05 c0 06                  	addi	a1, zero, 108
   15548: 63 12 b5 1a                  	bne	a0, a1, 420
   1554c: 6f 00 40 00                  	j	4
   15550: 03 35 04 fd                  	ld	a0, -48(s0)
   15554: 93 05 85 00                  	addi	a1, a0, 8
   15558: 23 38 b4 fc                  	sd	a1, -48(s0)
   1555c: 08 61                        	ld	a0, 0(a0)
   1555e: 23 38 a4 f4                  	sd	a0, -176(s0)
   15562: 03 35 04 f5                  	ld	a0, -176(s0)
   15566: fd 55                        	addi	a1, zero, -1
   15568: 63 ce a5 02                  	blt	a1, a0, 60
   1556c: 6f 00 40 00                  	j	4
   15570: 03 35 04 f5                  	ld	a0, -176(s0)
   15574: 81 45                        	mv	a1, zero
   15576: 33 85 a5 40                  	sub	a0, a1, a0
   1557a: 23 38 a4 f4                  	sd	a0, -176(s0)
   1557e: 13 05 c4 f7                  	addi	a0, s0, -132
   15582: 93 05 84 f7                  	addi	a1, s0, -136
   15586: 13 06 d0 02                  	addi	a2, zero, 45
   1558a: 93 06 84 fe                  	addi	a3, s0, -24
   1558e: 97 00 00 00                  	auipc	ra, 0
   15592: e7 80 80 bc                  	jalr	-1080(ra)
   15596: 03 25 c4 fd                  	lw	a0, -36(s0)
   1559a: 05 05                        	addi	a0, a0, 1
   1559c: 23 2e a4 fc                  	sw	a0, -36(s0)
   155a0: 6f 00 40 00                  	j	4
   155a4: 05 45                        	addi	a0, zero, 1
   155a6: 23 34 a4 f4                  	sd	a0, -184(s0)
   155aa: 23 22 a4 f4                  	sw	a0, -188(s0)
   155ae: 6f 00 40 00                  	j	4
   155b2: 03 35 84 f4                  	ld	a0, -184(s0)
   155b6: 83 35 04 f5                  	ld	a1, -176(s0)
   155ba: 37 36 33 03                  	lui	a2, 13107
   155be: 1b 06 36 33                  	addiw	a2, a2, 819
   155c2: 32 06                        	slli	a2, a2, 12
   155c4: 13 06 36 33                  	addi	a2, a2, 819
   155c8: 32 06                        	slli	a2, a2, 12
   155ca: 13 06 36 33                  	addi	a2, a2, 819
   155ce: 36 06                        	slli	a2, a2, 13
   155d0: 13 06 76 66                  	addi	a2, a2, 1639
   155d4: b3 95 c5 02                  	<unknown>
   155d8: 13 d6 f5 03                  	srli	a2, a1, 63
   155dc: 89 85                        	srai	a1, a1, 2
   155de: b2 95                        	add	a1, a1, a2
   155e0: 63 c2 a5 02                  	blt	a1, a0, 36
   155e4: 6f 00 40 00                  	j	4
   155e8: 03 35 84 f4                  	ld	a0, -184(s0)
   155ec: a9 45                        	addi	a1, zero, 10
   155ee: 33 05 b5 02                  	<unknown>
   155f2: 23 34 a4 f4                  	sd	a0, -184(s0)
   155f6: 03 25 44 f4                  	lw	a0, -188(s0)
   155fa: 05 05                        	addi	a0, a0, 1
   155fc: 23 22 a4 f4                  	sw	a0, -188(s0)
   15600: 6f f0 3f fb                  	j	-78
   15604: 6f 00 40 00                  	j	4
   15608: 03 25 44 f4                  	lw	a0, -188(s0)
   1560c: 83 25 c4 f6                  	lw	a1, -148(s0)
   15610: 63 5e b5 02                  	bge	a0, a1, 60
   15614: 6f 00 40 00                  	j	4
   15618: 13 05 c4 f7                  	addi	a0, s0, -132
   1561c: 93 05 84 f7                  	addi	a1, s0, -136
   15620: 13 06 00 02                  	addi	a2, zero, 32
   15624: 93 06 84 fe                  	addi	a3, s0, -24
   15628: 97 00 00 00                  	auipc	ra, 0
   1562c: e7 80 e0 b2                  	jalr	-1234(ra)
   15630: 03 25 c4 fd                  	lw	a0, -36(s0)
   15634: 05 05                        	addi	a0, a0, 1
   15636: 23 2e a4 fc                  	sw	a0, -36(s0)
   1563a: 6f 00 40 00                  	j	4
   1563e: 03 25 44 f4                  	lw	a0, -188(s0)
   15642: 05 05                        	addi	a0, a0, 1
   15644: 23 22 a4 f4                  	sw	a0, -188(s0)
   15648: 6f f0 1f fc                  	j	-64
   1564c: 6f 00 40 00                  	j	4
   15650: 03 35 84 f4                  	ld	a0, -184(s0)
   15654: 85 45                        	addi	a1, zero, 1
   15656: 63 46 b5 08                  	blt	a0, a1, 140
   1565a: 6f 00 40 00                  	j	4
   1565e: 03 35 04 f5                  	ld	a0, -176(s0)
   15662: 83 35 84 f4                  	ld	a1, -184(s0)
   15666: 33 45 b5 02                  	<unknown>
   1566a: b7 35 33 03                  	lui	a1, 13107
   1566e: 9b 85 35 33                  	addiw	a1, a1, 819
   15672: b2 05                        	slli	a1, a1, 12
   15674: 93 85 35 33                  	addi	a1, a1, 819
   15678: b2 05                        	slli	a1, a1, 12
   1567a: 93 85 35 33                  	addi	a1, a1, 819
   1567e: b6 05                        	slli	a1, a1, 13
   15680: 93 85 75 66                  	addi	a1, a1, 1639
   15684: 33 16 b5 02                  	<unknown>
   15688: 93 56 f6 03                  	srli	a3, a2, 63
   1568c: 09 82                        	srli	a2, a2, 2
   1568e: 36 96                        	add	a2, a2, a3
   15690: a9 46                        	addi	a3, zero, 10
   15692: 33 06 d6 02                  	<unknown>
   15696: 11 8d                        	sub	a0, a0, a2
   15698: 13 05 05 03                  	addi	a0, a0, 48
   1569c: 13 76 f5 0f                  	andi	a2, a0, 255
   156a0: 13 05 c4 f7                  	addi	a0, s0, -132
   156a4: 93 06 84 f7                  	addi	a3, s0, -136
   156a8: 13 07 84 fe                  	addi	a4, s0, -24
   156ac: 23 38 b4 ee                  	sd	a1, -272(s0)
   156b0: b6 85                        	add	a1, zero, a3
   156b2: ba 86                        	add	a3, zero, a4
   156b4: 97 00 00 00                  	auipc	ra, 0
   156b8: e7 80 20 aa                  	jalr	-1374(ra)
   156bc: 03 25 c4 fd                  	lw	a0, -36(s0)
   156c0: 05 05                        	addi	a0, a0, 1
   156c2: 23 2e a4 fc                  	sw	a0, -36(s0)
   156c6: 03 35 84 f4                  	ld	a0, -184(s0)
   156ca: 83 35 04 ef                  	ld	a1, -272(s0)
   156ce: 33 15 b5 02                  	<unknown>
   156d2: 13 56 f5 03                  	srli	a2, a0, 63
   156d6: 09 85                        	srai	a0, a0, 2
   156d8: 32 95                        	add	a0, a0, a2
   156da: 23 34 a4 f4                  	sd	a0, -184(s0)
   156de: 6f f0 3f f7                  	j	-142
   156e2: 01 45                        	mv	a0, zero
   156e4: a3 09 a4 f6                  	sb	a0, -141(s0)
   156e8: 6f 00 20 50                  	j	1282
   156ec: 03 45 b4 f6                  	lbu	a0, -149(s0)
   156f0: 93 05 00 07                  	addi	a1, zero, 112
   156f4: 63 18 b5 18                  	bne	a0, a1, 400
   156f8: 6f 00 40 00                  	j	4
   156fc: 03 35 04 fd                  	ld	a0, -48(s0)
   15700: 93 05 85 00                  	addi	a1, a0, 8
   15704: 23 38 b4 fc                  	sd	a1, -48(s0)
   15708: 08 61                        	ld	a0, 0(a0)
   1570a: 23 3c a4 f2                  	sd	a0, -200(s0)
   1570e: 13 05 c4 f7                  	addi	a0, s0, -132
   15712: 93 05 84 f7                  	addi	a1, s0, -136
   15716: 13 06 00 03                  	addi	a2, zero, 48
   1571a: 93 06 84 fe                  	addi	a3, s0, -24
   1571e: 23 34 a4 ee                  	sd	a0, -280(s0)
   15722: 23 30 b4 ee                  	sd	a1, -288(s0)
   15726: 23 3c d4 ec                  	sd	a3, -296(s0)
   1572a: 97 00 00 00                  	auipc	ra, 0
   1572e: e7 80 c0 a2                  	jalr	-1492(ra)
   15732: 03 25 c4 fd                  	lw	a0, -36(s0)
   15736: 05 05                        	addi	a0, a0, 1
   15738: 23 2e a4 fc                  	sw	a0, -36(s0)
   1573c: 13 06 80 07                  	addi	a2, zero, 120
   15740: 03 35 84 ee                  	ld	a0, -280(s0)
   15744: 83 35 04 ee                  	ld	a1, -288(s0)
   15748: 83 36 84 ed                  	ld	a3, -296(s0)
   1574c: 97 00 00 00                  	auipc	ra, 0
   15750: e7 80 a0 a0                  	jalr	-1526(ra)
   15754: 03 25 c4 fd                  	lw	a0, -36(s0)
   15758: 05 05                        	addi	a0, a0, 1
   1575a: 23 2e a4 fc                  	sw	a0, -36(s0)
   1575e: 05 45                        	addi	a0, zero, 1
   15760: 23 38 a4 f2                  	sd	a0, -208(s0)
   15764: 23 26 a4 f2                  	sw	a0, -212(s0)
   15768: 6f 00 40 00                  	j	4
   1576c: 03 35 04 f3                  	ld	a0, -208(s0)
   15770: 83 35 84 f3                  	ld	a1, -200(s0)
   15774: 91 81                        	srli	a1, a1, 4
   15776: 63 e0 a5 02                  	bltu	a1, a0, 32
   1577a: 6f 00 40 00                  	j	4
   1577e: 03 35 04 f3                  	ld	a0, -208(s0)
   15782: 12 05                        	slli	a0, a0, 4
   15784: 23 38 a4 f2                  	sd	a0, -208(s0)
   15788: 03 25 c4 f2                  	lw	a0, -212(s0)
   1578c: 05 05                        	addi	a0, a0, 1
   1578e: 23 26 a4 f2                  	sw	a0, -212(s0)
   15792: 6f f0 bf fd                  	j	-38
   15796: 6f 00 40 00                  	j	4
   1579a: 03 25 c4 f2                  	lw	a0, -212(s0)
   1579e: 83 25 c4 f6                  	lw	a1, -148(s0)
   157a2: 63 5e b5 02                  	bge	a0, a1, 60
   157a6: 6f 00 40 00                  	j	4
   157aa: 13 05 c4 f7                  	addi	a0, s0, -132
   157ae: 93 05 84 f7                  	addi	a1, s0, -136
   157b2: 13 06 00 02                  	addi	a2, zero, 32
   157b6: 93 06 84 fe                  	addi	a3, s0, -24
   157ba: 97 00 00 00                  	auipc	ra, 0
   157be: e7 80 c0 99                  	jalr	-1636(ra)
   157c2: 03 25 c4 fd                  	lw	a0, -36(s0)
   157c6: 05 05                        	addi	a0, a0, 1
   157c8: 23 2e a4 fc                  	sw	a0, -36(s0)
   157cc: 6f 00 40 00                  	j	4
   157d0: 03 25 c4 f2                  	lw	a0, -212(s0)
   157d4: 05 05                        	addi	a0, a0, 1
   157d6: 23 26 a4 f2                  	sw	a0, -212(s0)
   157da: 6f f0 1f fc                  	j	-64
   157de: 6f 00 40 00                  	j	4
   157e2: 03 35 04 f3                  	ld	a0, -208(s0)
   157e6: 81 45                        	mv	a1, zero
   157e8: 63 09 b5 08                  	beq	a0, a1, 146
   157ec: 6f 00 40 00                  	j	4
   157f0: 03 35 84 f3                  	ld	a0, -200(s0)
   157f4: 83 35 04 f3                  	ld	a1, -208(s0)
   157f8: 33 55 b5 02                  	<unknown>
   157fc: 3d 89                        	andi	a0, a0, 15
   157fe: a3 05 a4 f2                  	sb	a0, -213(s0)
   15802: 03 45 b4 f2                  	lbu	a0, -213(s0)
   15806: a5 45                        	addi	a1, zero, 9
   15808: 63 cb a5 02                  	blt	a1, a0, 54
   1580c: 6f 00 40 00                  	j	4
   15810: 03 05 b4 f2                  	lb	a0, -213(s0)
   15814: 13 05 05 03                  	addi	a0, a0, 48
   15818: 13 76 f5 0f                  	andi	a2, a0, 255
   1581c: 13 05 c4 f7                  	addi	a0, s0, -132
   15820: 93 05 84 f7                  	addi	a1, s0, -136
   15824: 93 06 84 fe                  	addi	a3, s0, -24
   15828: 97 00 00 00                  	auipc	ra, 0
   1582c: e7 80 e0 92                  	jalr	-1746(ra)
   15830: 03 25 c4 fd                  	lw	a0, -36(s0)
   15834: 05 05                        	addi	a0, a0, 1
   15836: 23 2e a4 fc                  	sw	a0, -36(s0)
   1583a: 6f 00 20 03                  	j	50
   1583e: 03 05 b4 f2                  	lb	a0, -213(s0)
   15842: 13 05 75 03                  	addi	a0, a0, 55
   15846: 13 76 f5 0f                  	andi	a2, a0, 255
   1584a: 13 05 c4 f7                  	addi	a0, s0, -132
   1584e: 93 05 84 f7                  	addi	a1, s0, -136
   15852: 93 06 84 fe                  	addi	a3, s0, -24
   15856: 97 00 00 00                  	auipc	ra, 0
   1585a: e7 80 00 90                  	jalr	-1792(ra)
   1585e: 03 25 c4 fd                  	lw	a0, -36(s0)
   15862: 05 05                        	addi	a0, a0, 1
   15864: 23 2e a4 fc                  	sw	a0, -36(s0)
   15868: 6f 00 40 00                  	j	4
   1586c: 03 35 04 f3                  	ld	a0, -208(s0)
   15870: 11 81                        	srli	a0, a0, 4
   15872: 23 38 a4 f2                  	sd	a0, -208(s0)
   15876: 6f f0 df f6                  	j	-148
   1587a: 01 45                        	mv	a0, zero
   1587c: a3 09 a4 f6                  	sb	a0, -141(s0)
   15880: 6f 00 60 36                  	j	870
   15884: 03 45 b4 f6                  	lbu	a0, -149(s0)
   15888: 93 05 80 07                  	addi	a1, zero, 120
   1588c: 63 15 b5 16                  	bne	a0, a1, 362
   15890: 6f 00 40 00                  	j	4
   15894: 03 35 04 fd                  	ld	a0, -48(s0)
   15898: 93 05 85 00                  	addi	a1, a0, 8
   1589c: 23 38 b4 fc                  	sd	a1, -48(s0)
   158a0: 08 41                        	lw	a0, 0(a0)
   158a2: 23 22 a4 f2                  	sw	a0, -220(s0)
   158a6: 05 45                        	addi	a0, zero, 1
   158a8: 23 20 a4 f2                  	sw	a0, -224(s0)
   158ac: 23 2e a4 f0                  	sw	a0, -228(s0)
   158b0: 6f 00 40 00                  	j	4
   158b4: 03 25 04 f2                  	lw	a0, -224(s0)
   158b8: 83 65 44 f2                  	lwu	a1, -220(s0)
   158bc: 91 81                        	srli	a1, a1, 4
   158be: 63 e0 a5 02                  	bltu	a1, a0, 32
   158c2: 6f 00 40 00                  	j	4
   158c6: 03 25 04 f2                  	lw	a0, -224(s0)
   158ca: 12 05                        	slli	a0, a0, 4
   158cc: 23 20 a4 f2                  	sw	a0, -224(s0)
   158d0: 03 25 c4 f1                  	lw	a0, -228(s0)
   158d4: 05 05                        	addi	a0, a0, 1
   158d6: 23 2e a4 f0                  	sw	a0, -228(s0)
   158da: 6f f0 bf fd                  	j	-38
   158de: 03 45 04 fc                  	lbu	a0, -64(s0)
   158e2: 93 05 00 02                  	addi	a1, zero, 32
   158e6: 13 06 00 03                  	addi	a2, zero, 48
   158ea: b2 86                        	add	a3, zero, a2
   158ec: 23 38 b4 ec                  	sd	a1, -304(s0)
   158f0: 23 34 d4 ec                  	sd	a3, -312(s0)
   158f4: 63 06 c5 00                  	beq	a0, a2, 12
   158f8: 03 35 04 ed                  	ld	a0, -304(s0)
   158fc: 23 34 a4 ec                  	sd	a0, -312(s0)
   15900: 03 35 84 ec                  	ld	a0, -312(s0)
   15904: a3 0d a4 f0                  	sb	a0, -229(s0)
   15908: 6f 00 40 00                  	j	4
   1590c: 03 25 c4 f1                  	lw	a0, -228(s0)
   15910: 83 25 c4 f6                  	lw	a1, -148(s0)
   15914: 63 5e b5 02                  	bge	a0, a1, 60
   15918: 6f 00 40 00                  	j	4
   1591c: 03 46 b4 f1                  	lbu	a2, -229(s0)
   15920: 13 05 c4 f7                  	addi	a0, s0, -132
   15924: 93 05 84 f7                  	addi	a1, s0, -136
   15928: 93 06 84 fe                  	addi	a3, s0, -24
   1592c: 97 00 00 00                  	auipc	ra, 0
   15930: e7 80 a0 82                  	jalr	-2006(ra)
   15934: 03 25 c4 fd                  	lw	a0, -36(s0)
   15938: 05 05                        	addi	a0, a0, 1
   1593a: 23 2e a4 fc                  	sw	a0, -36(s0)
   1593e: 6f 00 40 00                  	j	4
   15942: 03 25 c4 f1                  	lw	a0, -228(s0)
   15946: 05 05                        	addi	a0, a0, 1
   15948: 23 2e a4 f0                  	sw	a0, -228(s0)
   1594c: 6f f0 1f fc                  	j	-64
   15950: 6f 00 40 00                  	j	4
   15954: 03 25 04 f2                  	lw	a0, -224(s0)
   15958: 81 45                        	mv	a1, zero
   1595a: 63 09 b5 08                  	beq	a0, a1, 146
   1595e: 6f 00 40 00                  	j	4
   15962: 03 25 44 f2                  	lw	a0, -220(s0)
   15966: 83 25 04 f2                  	lw	a1, -224(s0)
   1596a: 3b 55 b5 02                  	<unknown>
   1596e: 3d 89                        	andi	a0, a0, 15
   15970: 23 0d a4 f0                  	sb	a0, -230(s0)
   15974: 03 45 a4 f1                  	lbu	a0, -230(s0)
   15978: a5 45                        	addi	a1, zero, 9
   1597a: 63 cb a5 02                  	blt	a1, a0, 54
   1597e: 6f 00 40 00                  	j	4
   15982: 03 05 a4 f1                  	lb	a0, -230(s0)
   15986: 13 05 05 03                  	addi	a0, a0, 48
   1598a: 13 76 f5 0f                  	andi	a2, a0, 255
   1598e: 13 05 c4 f7                  	addi	a0, s0, -132
   15992: 93 05 84 f7                  	addi	a1, s0, -136
   15996: 93 06 84 fe                  	addi	a3, s0, -24
   1599a: 97 f0 ff ff                  	auipc	ra, 1048575
   1599e: e7 80 c0 7b                  	jalr	1980(ra)
   159a2: 03 25 c4 fd                  	lw	a0, -36(s0)
   159a6: 05 05                        	addi	a0, a0, 1
   159a8: 23 2e a4 fc                  	sw	a0, -36(s0)
   159ac: 6f 00 20 03                  	j	50
   159b0: 03 05 a4 f1                  	lb	a0, -230(s0)
   159b4: 13 05 75 03                  	addi	a0, a0, 55
   159b8: 13 76 f5 0f                  	andi	a2, a0, 255
   159bc: 13 05 c4 f7                  	addi	a0, s0, -132
   159c0: 93 05 84 f7                  	addi	a1, s0, -136
   159c4: 93 06 84 fe                  	addi	a3, s0, -24
   159c8: 97 f0 ff ff                  	auipc	ra, 1048575
   159cc: e7 80 e0 78                  	jalr	1934(ra)
   159d0: 03 25 c4 fd                  	lw	a0, -36(s0)
   159d4: 05 05                        	addi	a0, a0, 1
   159d6: 23 2e a4 fc                  	sw	a0, -36(s0)
   159da: 6f 00 40 00                  	j	4
   159de: 03 65 04 f2                  	lwu	a0, -224(s0)
   159e2: 11 81                        	srli	a0, a0, 4
   159e4: 23 20 a4 f2                  	sw	a0, -224(s0)
   159e8: 6f f0 df f6                  	j	-148
   159ec: 01 45                        	mv	a0, zero
   159ee: a3 09 a4 f6                  	sb	a0, -141(s0)
   159f2: 6f 00 00 1f                  	j	496
   159f6: 03 45 b4 f6                  	lbu	a0, -149(s0)
   159fa: 93 05 30 07                  	addi	a1, zero, 115
   159fe: 63 1c b5 0e                  	bne	a0, a1, 248
   15a02: 6f 00 40 00                  	j	4
   15a06: 03 35 04 fd                  	ld	a0, -48(s0)
   15a0a: 93 05 85 00                  	addi	a1, a0, 8
   15a0e: 23 38 b4 fc                  	sd	a1, -48(s0)
   15a12: 08 61                        	ld	a0, 0(a0)
   15a14: 23 38 a4 f0                  	sd	a0, -240(s0)
   15a18: 01 45                        	mv	a0, zero
   15a1a: 23 26 a4 f0                  	sw	a0, -244(s0)
   15a1e: 6f 00 40 00                  	j	4
   15a22: 03 35 04 f1                  	ld	a0, -240(s0)
   15a26: 83 25 c4 f0                  	lw	a1, -244(s0)
   15a2a: 2e 95                        	add	a0, a0, a1
   15a2c: 03 45 05 00                  	lbu	a0, 0(a0)
   15a30: 81 45                        	mv	a1, zero
   15a32: 63 02 b5 02                  	beq	a0, a1, 36
   15a36: 6f 00 40 00                  	j	4
   15a3a: 03 25 c4 f6                  	lw	a0, -148(s0)
   15a3e: 7d 15                        	addi	a0, a0, -1
   15a40: 23 26 a4 f6                  	sw	a0, -148(s0)
   15a44: 6f 00 40 00                  	j	4
   15a48: 03 25 c4 f0                  	lw	a0, -244(s0)
   15a4c: 05 05                        	addi	a0, a0, 1
   15a4e: 23 26 a4 f0                  	sw	a0, -244(s0)
   15a52: 6f f0 1f fd                  	j	-48
   15a56: 01 45                        	mv	a0, zero
   15a58: 23 24 a4 f0                  	sw	a0, -248(s0)
   15a5c: 6f 00 40 00                  	j	4
   15a60: 03 25 84 f0                  	lw	a0, -248(s0)
   15a64: 83 25 c4 f6                  	lw	a1, -148(s0)
   15a68: 63 5e b5 02                  	bge	a0, a1, 60
   15a6c: 6f 00 40 00                  	j	4
   15a70: 13 05 c4 f7                  	addi	a0, s0, -132
   15a74: 93 05 84 f7                  	addi	a1, s0, -136
   15a78: 13 06 00 02                  	addi	a2, zero, 32
   15a7c: 93 06 84 fe                  	addi	a3, s0, -24
   15a80: 97 f0 ff ff                  	auipc	ra, 1048575
   15a84: e7 80 60 6d                  	jalr	1750(ra)
   15a88: 03 25 c4 fd                  	lw	a0, -36(s0)
   15a8c: 05 05                        	addi	a0, a0, 1
   15a8e: 23 2e a4 fc                  	sw	a0, -36(s0)
   15a92: 6f 00 40 00                  	j	4
   15a96: 03 25 84 f0                  	lw	a0, -248(s0)
   15a9a: 05 05                        	addi	a0, a0, 1
   15a9c: 23 24 a4 f0                  	sw	a0, -248(s0)
   15aa0: 6f f0 1f fc                  	j	-64
   15aa4: 6f 00 40 00                  	j	4
   15aa8: 03 35 04 f1                  	ld	a0, -240(s0)
   15aac: 03 45 05 00                  	lbu	a0, 0(a0)
   15ab0: 81 45                        	mv	a1, zero
   15ab2: 63 0d b5 02                  	beq	a0, a1, 58
   15ab6: 6f 00 40 00                  	j	4
   15aba: 03 35 04 f1                  	ld	a0, -240(s0)
   15abe: 93 05 15 00                  	addi	a1, a0, 1
   15ac2: 23 38 b4 f0                  	sd	a1, -240(s0)
   15ac6: 03 46 05 00                  	lbu	a2, 0(a0)
   15aca: 13 05 c4 f7                  	addi	a0, s0, -132
   15ace: 93 05 84 f7                  	addi	a1, s0, -136
   15ad2: 93 06 84 fe                  	addi	a3, s0, -24
   15ad6: 97 f0 ff ff                  	auipc	ra, 1048575
   15ada: e7 80 00 68                  	jalr	1664(ra)
   15ade: 03 25 c4 fd                  	lw	a0, -36(s0)
   15ae2: 05 05                        	addi	a0, a0, 1
   15ae4: 23 2e a4 fc                  	sw	a0, -36(s0)
   15ae8: 6f f0 1f fc                  	j	-64
   15aec: 01 45                        	mv	a0, zero
   15aee: a3 09 a4 f6                  	sb	a0, -141(s0)
   15af2: 6f 00 c0 0e                  	j	236
   15af6: 03 45 b4 f6                  	lbu	a0, -149(s0)
   15afa: 93 05 30 06                  	addi	a1, zero, 99
   15afe: 63 1a b5 08                  	bne	a0, a1, 148
   15b02: 6f 00 40 00                  	j	4
   15b06: 03 35 04 fd                  	ld	a0, -48(s0)
   15b0a: 93 05 85 00                  	addi	a1, a0, 8
   15b0e: 23 38 b4 fc                  	sd	a1, -48(s0)
   15b12: 08 41                        	lw	a0, 0(a0)
   15b14: 23 22 a4 f0                  	sw	a0, -252(s0)
   15b18: 05 45                        	addi	a0, zero, 1
   15b1a: 23 20 a4 f0                  	sw	a0, -256(s0)
   15b1e: 6f 00 40 00                  	j	4
   15b22: 03 25 04 f0                  	lw	a0, -256(s0)
   15b26: 83 25 c4 f6                  	lw	a1, -148(s0)
   15b2a: 63 5e b5 02                  	bge	a0, a1, 60
   15b2e: 6f 00 40 00                  	j	4
   15b32: 13 05 c4 f7                  	addi	a0, s0, -132
   15b36: 93 05 84 f7                  	addi	a1, s0, -136
   15b3a: 13 06 00 02                  	addi	a2, zero, 32
   15b3e: 93 06 84 fe                  	addi	a3, s0, -24
   15b42: 97 f0 ff ff                  	auipc	ra, 1048575
   15b46: e7 80 40 61                  	jalr	1556(ra)
   15b4a: 03 25 c4 fd                  	lw	a0, -36(s0)
   15b4e: 05 05                        	addi	a0, a0, 1
   15b50: 23 2e a4 fc                  	sw	a0, -36(s0)
   15b54: 6f 00 40 00                  	j	4
   15b58: 03 25 04 f0                  	lw	a0, -256(s0)
   15b5c: 05 05                        	addi	a0, a0, 1
   15b5e: 23 20 a4 f0                  	sw	a0, -256(s0)
   15b62: 6f f0 1f fc                  	j	-64
   15b66: 03 46 44 f0                  	lbu	a2, -252(s0)
   15b6a: 13 05 c4 f7                  	addi	a0, s0, -132
   15b6e: 93 05 84 f7                  	addi	a1, s0, -136
   15b72: 93 06 84 fe                  	addi	a3, s0, -24
   15b76: 97 f0 ff ff                  	auipc	ra, 1048575
   15b7a: e7 80 00 5e                  	jalr	1504(ra)
   15b7e: 03 25 c4 fd                  	lw	a0, -36(s0)
   15b82: 05 05                        	addi	a0, a0, 1
   15b84: 23 2e a4 fc                  	sw	a0, -36(s0)
   15b88: 01 45                        	mv	a0, zero
   15b8a: a3 09 a4 f6                  	sb	a0, -141(s0)
   15b8e: 6f 00 c0 04                  	j	76
   15b92: 03 45 b4 f6                  	lbu	a0, -149(s0)
   15b96: 93 05 00 03                  	addi	a1, zero, 48
   15b9a: 63 4e b5 02                  	blt	a0, a1, 60
   15b9e: 6f 00 40 00                  	j	4
   15ba2: 03 45 b4 f6                  	lbu	a0, -149(s0)
   15ba6: 93 05 90 03                  	addi	a1, zero, 57
   15baa: 63 c6 a5 02                  	blt	a1, a0, 44
   15bae: 6f 00 40 00                  	j	4
   15bb2: 03 25 c4 f6                  	lw	a0, -148(s0)
   15bb6: a9 45                        	addi	a1, zero, 10
   15bb8: 33 05 b5 02                  	<unknown>
   15bbc: 23 26 a4 f6                  	sw	a0, -148(s0)
   15bc0: 03 45 b4 f6                  	lbu	a0, -149(s0)
   15bc4: 83 25 c4 f6                  	lw	a1, -148(s0)
   15bc8: 2e 95                        	add	a0, a0, a1
   15bca: 13 05 05 fd                  	addi	a0, a0, -48
   15bce: 23 26 a4 f6                  	sw	a0, -148(s0)
   15bd2: 6f 00 40 00                  	j	4
   15bd6: 6f 00 40 00                  	j	4
   15bda: 6f 00 40 00                  	j	4
   15bde: 6f 00 40 00                  	j	4
   15be2: 6f 00 40 00                  	j	4
   15be6: 6f 00 40 00                  	j	4
   15bea: 6f 00 40 00                  	j	4
   15bee: 6f 00 40 00                  	j	4
   15bf2: 03 05 b4 f6                  	lb	a0, -149(s0)
   15bf6: 83 65 c4 fb                  	lwu	a1, -68(s0)
   15bfa: 13 86 15 00                  	addi	a2, a1, 1
   15bfe: 23 2e c4 fa                  	sw	a2, -68(s0)
   15c02: 13 06 04 fc                  	addi	a2, s0, -64
   15c06: b2 95                        	add	a1, a1, a2
   15c08: 23 80 a5 00                  	sb	a0, 0(a1)
   15c0c: 03 05 b4 f6                  	lb	a0, -149(s0)
   15c10: 23 09 a4 f6                  	sb	a0, -142(s0)
   15c14: 6f f0 cf e8                  	j	-2420
   15c18: 03 46 b4 f6                  	lbu	a2, -149(s0)
   15c1c: 13 05 c4 f7                  	addi	a0, s0, -132
   15c20: 93 05 84 f7                  	addi	a1, s0, -136
   15c24: 93 06 84 fe                  	addi	a3, s0, -24
   15c28: 97 f0 ff ff                  	auipc	ra, 1048575
   15c2c: e7 80 e0 52                  	jalr	1326(ra)
   15c30: 03 25 c4 fd                  	lw	a0, -36(s0)
   15c34: 05 05                        	addi	a0, a0, 1
   15c36: 23 2e a4 fc                  	sw	a0, -36(s0)
   15c3a: 6f f0 6f e6                  	j	-2458
   15c3e: 03 35 84 fe                  	ld	a0, -24(s0)
   15c42: 81 45                        	mv	a1, zero
   15c44: 23 00 b5 00                  	sb	a1, 0(a0)
   15c48: 03 25 c4 fd                  	lw	a0, -36(s0)
   15c4c: 52 74                        	ld	s0, 304(sp)
   15c4e: f2 70                        	ld	ra, 312(sp)
   15c50: 75 61                        	addi	sp, sp, 368
   15c52: 82 80                        	ret

0000000000015c54 next_chunk:
   15c54: 01 11                        	addi	sp, sp, -32
   15c56: 06 ec                        	sd	ra, 24(sp)
   15c58: 22 e8                        	sd	s0, 16(sp)
   15c5a: 00 10                        	addi	s0, sp, 32

0000000000015c5c .LBB0_7:
   15c5c: 17 35 00 00                  	auipc	a0, 3
   15c60: 13 05 c5 d1                  	addi	a0, a0, -740
   15c64: 08 61                        	ld	a0, 0(a0)
   15c66: 23 30 a4 fe                  	sd	a0, -32(s0)
   15c6a: 6f 00 40 00                  	j	4
   15c6e: 03 35 04 fe                  	ld	a0, -32(s0)

0000000000015c72 .LBB0_8:
   15c72: 97 35 00 00                  	auipc	a1, 3
   15c76: 93 85 65 d0                  	addi	a1, a1, -762
   15c7a: 8c 61                        	ld	a1, 0(a1)
   15c7c: 0d 8d                        	sub	a0, a0, a1

0000000000015c7e .LBB0_9:
   15c7e: 97 35 00 00                  	auipc	a1, 3
   15c82: 93 85 25 d0                  	addi	a1, a1, -766
   15c86: 8c 41                        	lw	a1, 0(a1)
   15c88: 63 5c b5 02                  	bge	a0, a1, 56
   15c8c: 6f 00 40 00                  	j	4
   15c90: 03 35 04 fe                  	ld	a0, -32(s0)
   15c94: 03 45 85 01                  	lbu	a0, 24(a0)
   15c98: 11 89                        	andi	a0, a0, 4
   15c9a: 81 45                        	mv	a1, zero
   15c9c: 63 1a b5 00                  	bne	a0, a1, 20
   15ca0: 6f 00 40 00                  	j	4
   15ca4: 03 35 04 fe                  	ld	a0, -32(s0)
   15ca8: 23 34 a4 fe                  	sd	a0, -24(s0)
   15cac: 6f 00 60 03                  	j	54
   15cb0: 03 35 04 fe                  	ld	a0, -32(s0)
   15cb4: 13 05 05 02                  	addi	a0, a0, 32
   15cb8: 23 30 a4 fe                  	sd	a0, -32(s0)
   15cbc: 6f f0 3f fb                  	j	-78

0000000000015cc0 .LBB0_10:
   15cc0: 17 35 00 00                  	auipc	a0, 3
   15cc4: 13 05 45 ca                  	addi	a0, a0, -860

0000000000015cc8 .LBB0_11:
   15cc8: 97 a5 ff ff                  	auipc	a1, 1048570
   15ccc: 93 85 e5 66                  	addi	a1, a1, 1646
   15cd0: 97 e0 ff ff                  	auipc	ra, 1048574
   15cd4: e7 80 80 fa                  	jalr	-88(ra)
   15cd8: 81 45                        	mv	a1, zero
   15cda: 23 34 b4 fe                  	sd	a1, -24(s0)
   15cde: 6f 00 40 00                  	j	4
   15ce2: 03 35 84 fe                  	ld	a0, -24(s0)
   15ce6: 42 64                        	ld	s0, 16(sp)
   15ce8: e2 60                        	ld	ra, 24(sp)
   15cea: 05 61                        	addi	sp, sp, 32
   15cec: 82 80                        	ret

0000000000015cee expand_malloc:
   15cee: 59 71                        	addi	sp, sp, -112
   15cf0: 86 f4                        	sd	ra, 104(sp)
   15cf2: a2 f0                        	sd	s0, 96(sp)
   15cf4: 80 18                        	addi	s0, sp, 112
   15cf6: aa 85                        	add	a1, zero, a0
   15cf8: 23 26 a4 fe                  	sw	a0, -20(s0)
   15cfc: 03 25 c4 fe                  	lw	a0, -20(s0)
   15d00: 1b 15 c5 00                  	slliw	a0, a0, 12
   15d04: 0d 46                        	addi	a2, zero, 3
   15d06: 85 46                        	addi	a3, zero, 1
   15d08: 01 47                        	mv	a4, zero
   15d0a: 23 34 a4 fa                  	sd	a0, -88(s0)
   15d0e: 3a 85                        	add	a0, zero, a4
   15d10: 83 37 84 fa                  	ld	a5, -88(s0)
   15d14: 23 30 b4 fa                  	sd	a1, -96(s0)
   15d18: be 85                        	add	a1, zero, a5
   15d1a: 23 3c e4 f8                  	sd	a4, -104(s0)
   15d1e: 83 37 84 f9                  	ld	a5, -104(s0)
   15d22: 97 e0 ff ff                  	auipc	ra, 1048574
   15d26: e7 80 20 d7                  	jalr	-654(ra)
   15d2a: 23 30 a4 fe                  	sd	a0, -32(s0)
   15d2e: 03 25 c4 fe                  	lw	a0, -20(s0)
   15d32: 32 05                        	slli	a0, a0, 12

0000000000015d34 .LBB1_8:
   15d34: 97 35 00 00                  	auipc	a1, 3
   15d38: 93 85 05 c5                  	addi	a1, a1, -944
   15d3c: 90 41                        	lw	a2, 0(a1)
   15d3e: 32 95                        	add	a0, a0, a2
   15d40: 88 c1                        	sw	a0, 0(a1)
   15d42: 03 35 04 fe                  	ld	a0, -32(s0)
   15d46: 23 30 a4 fc                  	sd	a0, -64(s0)
   15d4a: 03 25 c4 fe                  	lw	a0, -20(s0)
   15d4e: 32 05                        	slli	a0, a0, 12
   15d50: 02 15                        	slli	a0, a0, 32
   15d52: 01 91                        	srli	a0, a0, 32
   15d54: 23 34 a4 fc                  	sd	a0, -56(s0)
   15d58: 03 35 84 f9                  	ld	a0, -104(s0)
   15d5c: 23 38 a4 fc                  	sd	a0, -48(s0)
   15d60: 99 45                        	addi	a1, zero, 6
   15d62: 23 0c b4 fc                  	sb	a1, -40(s0)

0000000000015d66 .LBB1_9:
   15d66: 97 35 00 00                  	auipc	a1, 3
   15d6a: 93 85 25 c1                  	addi	a1, a1, -1006
   15d6e: 8c 61                        	ld	a1, 0(a1)

0000000000015d70 .LBB1_10:
   15d70: 17 36 00 00                  	auipc	a2, 3
   15d74: 13 06 06 c1                  	addi	a2, a2, -1008
   15d78: 10 42                        	lw	a2, 0(a2)
   15d7a: b2 95                        	add	a1, a1, a2
   15d7c: 23 3c b4 fa                  	sd	a1, -72(s0)
   15d80: 83 35 84 fb                  	ld	a1, -72(s0)
   15d84: 81 15                        	addi	a1, a1, -32
   15d86: 23 3c b4 fa                  	sd	a1, -72(s0)
   15d8a: 83 35 84 fb                  	ld	a1, -72(s0)
   15d8e: 83 c5 85 01                  	lbu	a1, 24(a1)
   15d92: 91 89                        	andi	a1, a1, 4
   15d94: 63 88 a5 02                  	beq	a1, a0, 48
   15d98: 6f 00 40 00                  	j	4

0000000000015d9c .LBB1_11:
   15d9c: 17 35 00 00                  	auipc	a0, 3
   15da0: 13 05 c5 bc                  	addi	a0, a0, -1076

0000000000015da4 .LBB1_12:
   15da4: 97 a5 ff ff                  	auipc	a1, 1048570
   15da8: 93 85 35 79                  	addi	a1, a1, 1939
   15dac: 97 e0 ff ff                  	auipc	ra, 1048574
   15db0: e7 80 c0 ec                  	jalr	-308(ra)
   15db4: fd 55                        	addi	a1, zero, -1
   15db6: 23 38 a4 f8                  	sd	a0, -112(s0)
   15dba: 2e 85                        	add	a0, zero, a1
   15dbc: 97 e0 ff ff                  	auipc	ra, 1048574
   15dc0: e7 80 40 d4                  	jalr	-700(ra)
   15dc4: 6f 00 40 00                  	j	4
   15dc8: 03 35 84 fb                  	ld	a0, -72(s0)
   15dcc: 03 45 85 01                  	lbu	a0, 24(a0)
   15dd0: 11 89                        	andi	a0, a0, 4
   15dd2: 81 45                        	mv	a1, zero
   15dd4: 63 05 b5 02                  	beq	a0, a1, 42
   15dd8: 6f 00 40 00                  	j	4
   15ddc: 03 35 84 fb                  	ld	a0, -72(s0)
   15de0: 23 38 a4 fa                  	sd	a0, -80(s0)
   15de4: 03 35 84 fb                  	ld	a0, -72(s0)
   15de8: 13 05 05 02                  	addi	a0, a0, 32
   15dec: 23 3c a4 fa                  	sd	a0, -72(s0)
   15df0: 03 35 84 fb                  	ld	a0, -72(s0)
   15df4: 83 35 04 fb                  	ld	a1, -80(s0)
   15df8: 88 e9                        	sd	a0, 16(a1)
   15dfa: 6f 00 80 02                  	j	40
   15dfe: 03 35 84 fb                  	ld	a0, -72(s0)
   15e02: 01 15                        	addi	a0, a0, -32
   15e04: 23 3c a4 fa                  	sd	a0, -72(s0)
   15e08: 6f 00 40 00                  	j	4
   15e0c: 03 35 84 fb                  	ld	a0, -72(s0)

0000000000015e10 .LBB1_13:
   15e10: 97 35 00 00                  	auipc	a1, 3
   15e14: 93 85 85 b6                  	addi	a1, a1, -1176
   15e18: 8c 61                        	ld	a1, 0(a1)
   15e1a: e3 e7 a5 fa                  	bltu	a1, a0, -82
   15e1e: 6f 00 40 00                  	j	4
   15e22: 03 35 84 fb                  	ld	a0, -72(s0)
   15e26: 83 35 84 fd                  	ld	a1, -40(s0)
   15e2a: 0c ed                        	sd	a1, 24(a0)
   15e2c: 83 35 04 fd                  	ld	a1, -48(s0)
   15e30: 0c e9                        	sd	a1, 16(a0)
   15e32: 83 35 84 fc                  	ld	a1, -56(s0)
   15e36: 0c e5                        	sd	a1, 8(a0)
   15e38: 83 35 04 fc                  	ld	a1, -64(s0)
   15e3c: 0c e1                        	sd	a1, 0(a0)
   15e3e: 06 74                        	ld	s0, 96(sp)
   15e40: a6 70                        	ld	ra, 104(sp)
   15e42: 65 61                        	addi	sp, sp, 112
   15e44: 82 80                        	ret

0000000000015e46 malloc:
   15e46: 75 71                        	addi	sp, sp, -144
   15e48: 06 e5                        	sd	ra, 136(sp)
   15e4a: 22 e1                        	sd	s0, 128(sp)
   15e4c: 00 09                        	addi	s0, sp, 144
   15e4e: aa 85                        	add	a1, zero, a0
   15e50: 23 22 a4 fe                  	sw	a0, -28(s0)

0000000000015e54 .LBB2_22:
   15e54: 17 35 00 00                  	auipc	a0, 3
   15e58: 13 05 45 b3                  	addi	a0, a0, -1228
   15e5c: 08 61                        	ld	a0, 0(a0)
   15e5e: 01 46                        	mv	a2, zero
   15e60: 63 11 c5 12                  	bne	a0, a2, 290
   15e64: 6f 00 40 00                  	j	4
   15e68: 21 65                        	lui	a0, 8
   15e6a: 8d 45                        	addi	a1, zero, 3
   15e6c: 05 46                        	addi	a2, zero, 1
   15e6e: 81 46                        	mv	a3, zero
   15e70: 23 38 a4 fa                  	sd	a0, -80(s0)
   15e74: 36 85                        	add	a0, zero, a3
   15e76: 03 37 04 fb                  	ld	a4, -80(s0)
   15e7a: 23 34 b4 fa                  	sd	a1, -88(s0)
   15e7e: ba 85                        	add	a1, zero, a4
   15e80: 83 37 84 fa                  	ld	a5, -88(s0)
   15e84: 23 30 c4 fa                  	sd	a2, -96(s0)
   15e88: 3e 86                        	add	a2, zero, a5
   15e8a: 03 38 04 fa                  	ld	a6, -96(s0)
   15e8e: 23 3c d4 f8                  	sd	a3, -104(s0)
   15e92: c2 86                        	add	a3, zero, a6
   15e94: 03 37 84 f9                  	ld	a4, -104(s0)
   15e98: 83 37 84 f9                  	ld	a5, -104(s0)
   15e9c: 97 e0 ff ff                  	auipc	ra, 1048574
   15ea0: e7 80 80 bf                  	jalr	-1032(ra)

0000000000015ea4 .LBB2_23:
   15ea4: 97 35 00 00                  	auipc	a1, 3
   15ea8: 93 85 45 ae                  	addi	a1, a1, -1308
   15eac: 88 e1                        	sd	a0, 0(a1)

0000000000015eae .LBB2_24:
   15eae: 17 35 00 00                  	auipc	a0, 3
   15eb2: 13 05 65 ad                  	addi	a0, a0, -1322
   15eb6: 03 36 04 fb                  	ld	a2, -80(s0)
   15eba: 10 c1                        	sw	a2, 0(a0)
   15ebc: 91 66                        	lui	a3, 4
   15ebe: 03 37 84 f9                  	ld	a4, -104(s0)
   15ec2: 23 38 a4 f8                  	sd	a0, -112(s0)
   15ec6: 3a 85                        	add	a0, zero, a4
   15ec8: 23 34 b4 f8                  	sd	a1, -120(s0)
   15ecc: b6 85                        	add	a1, zero, a3
   15ece: 03 36 84 fa                  	ld	a2, -88(s0)
   15ed2: 83 37 04 fa                  	ld	a5, -96(s0)
   15ed6: 23 30 d4 f8                  	sd	a3, -128(s0)
   15eda: be 86                        	add	a3, zero, a5
   15edc: 83 37 84 f9                  	ld	a5, -104(s0)
   15ee0: 97 e0 ff ff                  	auipc	ra, 1048574
   15ee4: e7 80 40 bb                  	jalr	-1100(ra)

0000000000015ee8 .LBB2_25:
   15ee8: 97 35 00 00                  	auipc	a1, 3
   15eec: 93 85 05 a9                  	addi	a1, a1, -1392
   15ef0: 88 e1                        	sd	a0, 0(a1)

0000000000015ef2 .LBB2_26:
   15ef2: 17 35 00 00                  	auipc	a0, 3
   15ef6: 13 05 e5 a8                  	addi	a0, a0, -1394
   15efa: 03 36 04 f8                  	ld	a2, -128(s0)
   15efe: 10 c1                        	sw	a2, 0(a0)
   15f00: 88 61                        	ld	a0, 0(a1)
   15f02: 23 3c a4 fc                  	sd	a0, -40(s0)
   15f06: 03 35 84 f8                  	ld	a0, -120(s0)
   15f0a: 0c 61                        	ld	a1, 0(a0)
   15f0c: 83 36 84 fd                  	ld	a3, -40(s0)
   15f10: 8c e2                        	sd	a1, 0(a3)
   15f12: 83 35 04 f9                  	ld	a1, -112(s0)
   15f16: 94 41                        	lw	a3, 0(a1)
   15f18: 03 37 84 fd                  	ld	a4, -40(s0)
   15f1c: 14 e7                        	sd	a3, 8(a4)
   15f1e: 83 36 84 fd                  	ld	a3, -40(s0)
   15f22: 19 47                        	addi	a4, zero, 6
   15f24: 23 8c e6 00                  	sb	a4, 24(a3)
   15f28: 83 36 84 fd                  	ld	a3, -40(s0)
   15f2c: 03 37 84 f9                  	ld	a4, -104(s0)
   15f30: 98 ea                        	sd	a4, 16(a3)
   15f32: 83 36 84 fd                  	ld	a3, -40(s0)
   15f36: 93 86 06 02                  	addi	a3, a3, 32
   15f3a: 23 3c d4 fc                  	sd	a3, -40(s0)
   15f3e: 6f 00 40 00                  	j	4
   15f42: 03 35 84 fd                  	ld	a0, -40(s0)

0000000000015f46 .LBB2_27:
   15f46: 97 35 00 00                  	auipc	a1, 3
   15f4a: 93 85 25 a3                  	addi	a1, a1, -1486
   15f4e: 8c 61                        	ld	a1, 0(a1)
   15f50: 0d 8d                        	sub	a0, a0, a1

0000000000015f52 .LBB2_28:
   15f52: 97 35 00 00                  	auipc	a1, 3
   15f56: 93 85 e5 a2                  	addi	a1, a1, -1490
   15f5a: 8c 41                        	lw	a1, 0(a1)
   15f5c: 63 51 b5 02                  	bge	a0, a1, 34
   15f60: 6f 00 40 00                  	j	4
   15f64: 03 35 84 fd                  	ld	a0, -40(s0)
   15f68: 81 45                        	mv	a1, zero
   15f6a: 23 0c b5 00                  	sb	a1, 24(a0)
   15f6e: 03 35 84 fd                  	ld	a0, -40(s0)
   15f72: 13 05 05 02                  	addi	a0, a0, 32
   15f76: 23 3c a4 fc                  	sd	a0, -40(s0)
   15f7a: 6f f0 9f fc                  	j	-56
   15f7e: 6f 00 40 00                  	j	4

0000000000015f82 .LBB2_29:
   15f82: 17 35 00 00                  	auipc	a0, 3
   15f86: 13 05 65 9f                  	addi	a0, a0, -1546
   15f8a: 08 61                        	ld	a0, 0(a0)
   15f8c: 23 38 a4 fc                  	sd	a0, -48(s0)
   15f90: 01 45                        	mv	a0, zero
   15f92: 23 34 a4 fc                  	sd	a0, -56(s0)
   15f96: 6f 00 40 00                  	j	4
   15f9a: 03 35 04 fd                  	ld	a0, -48(s0)
   15f9e: 81 45                        	mv	a1, zero
   15fa0: 2e 86                        	add	a2, zero, a1
   15fa2: 23 3c c4 f6                  	sd	a2, -136(s0)
   15fa6: 63 07 b5 02                  	beq	a0, a1, 46
   15faa: 6f 00 40 00                  	j	4
   15fae: 03 35 04 fd                  	ld	a0, -48(s0)

0000000000015fb2 .LBB2_30:
   15fb2: 97 35 00 00                  	auipc	a1, 3
   15fb6: 93 85 65 9c                  	addi	a1, a1, -1594
   15fba: 8c 61                        	ld	a1, 0(a1)
   15fbc: 0d 8d                        	sub	a0, a0, a1

0000000000015fbe .LBB2_31:
   15fbe: 97 35 00 00                  	auipc	a1, 3
   15fc2: 93 85 25 9c                  	addi	a1, a1, -1598
   15fc6: 8c 41                        	lw	a1, 0(a1)
   15fc8: 33 25 b5 00                  	slt	a0, a0, a1
   15fcc: 23 3c a4 f6                  	sd	a0, -136(s0)
   15fd0: 6f 00 40 00                  	j	4
   15fd4: 03 35 84 f7                  	ld	a0, -136(s0)
   15fd8: 05 89                        	andi	a0, a0, 1
   15fda: 81 45                        	mv	a1, zero
   15fdc: 63 05 b5 10                  	beq	a0, a1, 266
   15fe0: 6f 00 40 00                  	j	4
   15fe4: 03 35 04 fd                  	ld	a0, -48(s0)
   15fe8: 03 45 85 01                  	lbu	a0, 24(a0)
   15fec: 11 89                        	andi	a0, a0, 4
   15fee: 81 45                        	mv	a1, zero
   15ff0: 63 18 b5 02                  	bne	a0, a1, 48
   15ff4: 6f 00 40 00                  	j	4

0000000000015ff8 .LBB2_32:
   15ff8: 17 35 00 00                  	auipc	a0, 3
   15ffc: 13 05 c5 96                  	addi	a0, a0, -1684

0000000000016000 .LBB2_33:
   16000: 97 a5 ff ff                  	auipc	a1, 1048570
   16004: 93 85 a5 67                  	addi	a1, a1, 1658
   16008: 97 e0 ff ff                  	auipc	ra, 1048574
   1600c: e7 80 00 c7                  	jalr	-912(ra)
   16010: fd 55                        	addi	a1, zero, -1
   16012: 23 38 a4 f6                  	sd	a0, -144(s0)
   16016: 2e 85                        	add	a0, zero, a1
   16018: 97 e0 ff ff                  	auipc	ra, 1048574
   1601c: e7 80 80 ae                  	jalr	-1304(ra)
   16020: 03 35 04 fd                  	ld	a0, -48(s0)
   16024: 03 45 85 01                  	lbu	a0, 24(a0)
   16028: 09 89                        	andi	a0, a0, 2
   1602a: 81 45                        	mv	a1, zero
   1602c: 63 06 b5 0a                  	beq	a0, a1, 172
   16030: 6f 00 40 00                  	j	4
   16034: 03 35 04 fd                  	ld	a0, -48(s0)
   16038: 08 65                        	ld	a0, 8(a0)
   1603a: 83 65 44 fe                  	lwu	a1, -28(s0)
   1603e: 63 6b b5 08                  	bltu	a0, a1, 150
   16042: 6f 00 40 00                  	j	4
   16046: 03 35 04 fd                  	ld	a0, -48(s0)
   1604a: 08 61                        	ld	a0, 0(a0)
   1604c: 23 34 a4 fc                  	sd	a0, -56(s0)
   16050: 03 35 04 fd                  	ld	a0, -48(s0)
   16054: 83 05 85 01                  	lb	a1, 24(a0)
   16058: 93 c5 25 00                  	xori	a1, a1, 2
   1605c: 23 0c b5 00                  	sb	a1, 24(a0)
   16060: 03 35 04 fd                  	ld	a0, -48(s0)
   16064: 08 65                        	ld	a0, 8(a0)
   16066: 83 65 44 fe                  	lwu	a1, -28(s0)
   1606a: 63 03 b5 06                  	beq	a0, a1, 102
   1606e: 6f 00 40 00                  	j	4
   16072: 97 00 00 00                  	auipc	ra, 0
   16076: e7 80 20 be                  	jalr	-1054(ra)
   1607a: 23 30 a4 fc                  	sd	a0, -64(s0)
   1607e: 03 35 04 fc                  	ld	a0, -64(s0)
   16082: 99 45                        	addi	a1, zero, 6
   16084: 23 0c b5 00                  	sb	a1, 24(a0)
   16088: 03 35 04 fd                  	ld	a0, -48(s0)
   1608c: 08 65                        	ld	a0, 8(a0)
   1608e: 83 65 44 fe                  	lwu	a1, -28(s0)
   16092: 0d 8d                        	sub	a0, a0, a1
   16094: 83 35 04 fc                  	ld	a1, -64(s0)
   16098: 88 e5                        	sd	a0, 8(a1)
   1609a: 03 35 04 fd                  	ld	a0, -48(s0)
   1609e: 08 61                        	ld	a0, 0(a0)
   160a0: 83 65 44 fe                  	lwu	a1, -28(s0)
   160a4: 2e 95                        	add	a0, a0, a1
   160a6: 83 35 04 fc                  	ld	a1, -64(s0)
   160aa: 88 e1                        	sd	a0, 0(a1)
   160ac: 03 65 44 fe                  	lwu	a0, -28(s0)
   160b0: 83 35 04 fd                  	ld	a1, -48(s0)
   160b4: 88 e5                        	sd	a0, 8(a1)
   160b6: 03 35 04 fd                  	ld	a0, -48(s0)
   160ba: 08 69                        	ld	a0, 16(a0)
   160bc: 83 35 04 fc                  	ld	a1, -64(s0)
   160c0: 88 e9                        	sd	a0, 16(a1)
   160c2: 03 35 04 fc                  	ld	a0, -64(s0)
   160c6: 83 35 04 fd                  	ld	a1, -48(s0)
   160ca: 88 e9                        	sd	a0, 16(a1)
   160cc: 6f 00 40 00                  	j	4
   160d0: 6f 00 60 01                  	j	22
   160d4: 6f 00 40 00                  	j	4
   160d8: 03 35 04 fd                  	ld	a0, -48(s0)
   160dc: 08 69                        	ld	a0, 16(a0)
   160de: 23 38 a4 fc                  	sd	a0, -48(s0)
   160e2: 6f f0 9f eb                  	j	-328
   160e6: 03 35 84 fc                  	ld	a0, -56(s0)
   160ea: 81 45                        	mv	a1, zero
   160ec: 63 1a b5 02                  	bne	a0, a1, 52
   160f0: 6f 00 40 00                  	j	4
   160f4: 03 65 44 fe                  	lwu	a0, -28(s0)
   160f8: 31 81                        	srli	a0, a0, 12
   160fa: 05 05                        	addi	a0, a0, 1
   160fc: 23 2e a4 fa                  	sw	a0, -68(s0)
   16100: 03 25 c4 fb                  	lw	a0, -68(s0)
   16104: 97 00 00 00                  	auipc	ra, 0
   16108: e7 80 a0 be                  	jalr	-1046(ra)
   1610c: 03 25 44 fe                  	lw	a0, -28(s0)
   16110: 97 00 00 00                  	auipc	ra, 0
   16114: e7 80 60 d3                  	jalr	-714(ra)
   16118: 23 34 a4 fe                  	sd	a0, -24(s0)
   1611c: 6f 00 00 01                  	j	16
   16120: 03 35 84 fc                  	ld	a0, -56(s0)
   16124: 23 34 a4 fe                  	sd	a0, -24(s0)
   16128: 6f 00 40 00                  	j	4
   1612c: 03 35 84 fe                  	ld	a0, -24(s0)
   16130: 0a 64                        	ld	s0, 128(sp)
   16132: aa 60                        	ld	ra, 136(sp)
   16134: 49 61                        	addi	sp, sp, 144
   16136: 82 80                        	ret

0000000000016138 flush_helper:
   16138: 79 71                        	addi	sp, sp, -48
   1613a: 06 f4                        	sd	ra, 40(sp)
   1613c: 22 f0                        	sd	s0, 32(sp)
   1613e: 00 18                        	addi	s0, sp, 48
   16140: 23 34 a4 fe                  	sd	a0, -24(s0)
   16144: 23 30 b4 fe                  	sd	a1, -32(s0)
   16148: 03 35 84 fe                  	ld	a0, -24(s0)
   1614c: 08 41                        	lw	a0, 0(a0)
   1614e: 81 45                        	mv	a1, zero
   16150: 63 00 b5 0a                  	beq	a0, a1, 160
   16154: 6f 00 40 00                  	j	4
   16158: 01 45                        	mv	a0, zero
   1615a: 23 3c a4 fc                  	sd	a0, -40(s0)
   1615e: 83 35 04 fe                  	ld	a1, -32(s0)
   16162: 8c 61                        	ld	a1, 0(a1)
   16164: 23 38 b4 fc                  	sd	a1, -48(s0)
   16168: 83 35 04 fd                  	ld	a1, -48(s0)
   1616c: 8c 69                        	ld	a1, 16(a1)
   1616e: 63 8f a5 06                  	beq	a1, a0, 126
   16172: 6f 00 40 00                  	j	4
   16176: 6f 00 40 00                  	j	4
   1617a: 03 35 04 fd                  	ld	a0, -48(s0)
   1617e: 08 69                        	ld	a0, 16(a0)
   16180: 03 45 85 01                  	lbu	a0, 24(a0)
   16184: 09 89                        	andi	a0, a0, 2
   16186: 81 45                        	mv	a1, zero
   16188: 63 01 b5 04                  	beq	a0, a1, 66
   1618c: 6f 00 40 00                  	j	4
   16190: 03 35 04 fd                  	ld	a0, -48(s0)
   16194: 08 69                        	ld	a0, 16(a0)
   16196: 23 38 a4 fc                  	sd	a0, -48(s0)
   1619a: 03 35 04 fd                  	ld	a0, -48(s0)
   1619e: 08 65                        	ld	a0, 8(a0)
   161a0: 83 35 84 fd                  	ld	a1, -40(s0)
   161a4: 2e 95                        	add	a0, a0, a1
   161a6: 23 3c a4 fc                  	sd	a0, -40(s0)
   161aa: 03 35 04 fd                  	ld	a0, -48(s0)
   161ae: 81 45                        	mv	a1, zero
   161b0: 23 0c b5 00                  	sb	a1, 24(a0)
   161b4: 03 35 04 fd                  	ld	a0, -48(s0)
   161b8: 08 69                        	ld	a0, 16(a0)
   161ba: 63 16 b5 00                  	bne	a0, a1, 12
   161be: 6f 00 40 00                  	j	4
   161c2: 6f 00 80 00                  	j	8
   161c6: 6f f0 5f fb                  	j	-76
   161ca: 03 35 84 fd                  	ld	a0, -40(s0)
   161ce: 83 35 04 fe                  	ld	a1, -32(s0)
   161d2: 8c 61                        	ld	a1, 0(a1)
   161d4: 90 65                        	ld	a2, 8(a1)
   161d6: 32 95                        	add	a0, a0, a2
   161d8: 88 e5                        	sd	a0, 8(a1)
   161da: 03 35 04 fd                  	ld	a0, -48(s0)
   161de: 08 69                        	ld	a0, 16(a0)
   161e0: 83 35 04 fe                  	ld	a1, -32(s0)
   161e4: 8c 61                        	ld	a1, 0(a1)
   161e6: 88 e9                        	sd	a0, 16(a1)
   161e8: 6f 00 40 00                  	j	4
   161ec: 6f 00 40 00                  	j	4
   161f0: 03 35 04 fe                  	ld	a0, -32(s0)
   161f4: 81 45                        	mv	a1, zero
   161f6: 0c e1                        	sd	a1, 0(a0)
   161f8: 03 35 84 fe                  	ld	a0, -24(s0)
   161fc: 0c c1                        	sw	a1, 0(a0)
   161fe: 02 74                        	ld	s0, 32(sp)
   16200: a2 70                        	ld	ra, 40(sp)
   16202: 45 61                        	addi	sp, sp, 48
   16204: 82 80                        	ret

0000000000016206 free:
   16206: 5d 71                        	addi	sp, sp, -80
   16208: 86 e4                        	sd	ra, 72(sp)
   1620a: a2 e0                        	sd	s0, 64(sp)
   1620c: 80 08                        	addi	s0, sp, 80
   1620e: 23 34 a4 fe                  	sd	a0, -24(s0)

0000000000016212 .LBB4_21:
   16212: 17 25 00 00                  	auipc	a0, 2
   16216: 13 05 65 76                  	addi	a0, a0, 1894
   1621a: 08 61                        	ld	a0, 0(a0)
   1621c: 23 30 a4 fe                  	sd	a0, -32(s0)
   16220: 01 45                        	mv	a0, zero
   16222: 23 3c a4 fc                  	sd	a0, -40(s0)
   16226: 23 2a a4 fc                  	sw	a0, -44(s0)
   1622a: 23 34 a4 fc                  	sd	a0, -56(s0)
   1622e: 6f 00 40 00                  	j	4
   16232: 03 35 04 fe                  	ld	a0, -32(s0)
   16236: 81 45                        	mv	a1, zero
   16238: 2e 86                        	add	a2, zero, a1
   1623a: 23 3c c4 fa                  	sd	a2, -72(s0)
   1623e: 63 07 b5 02                  	beq	a0, a1, 46
   16242: 6f 00 40 00                  	j	4
   16246: 03 35 04 fe                  	ld	a0, -32(s0)

000000000001624a .LBB4_22:
   1624a: 97 25 00 00                  	auipc	a1, 2
   1624e: 93 85 e5 72                  	addi	a1, a1, 1838
   16252: 8c 61                        	ld	a1, 0(a1)
   16254: 0d 8d                        	sub	a0, a0, a1

0000000000016256 .LBB4_23:
   16256: 97 25 00 00                  	auipc	a1, 2
   1625a: 93 85 a5 72                  	addi	a1, a1, 1834
   1625e: 8c 41                        	lw	a1, 0(a1)
   16260: 33 25 b5 00                  	slt	a0, a0, a1
   16264: 23 3c a4 fa                  	sd	a0, -72(s0)
   16268: 6f 00 40 00                  	j	4
   1626c: 03 35 84 fb                  	ld	a0, -72(s0)
   16270: 05 89                        	andi	a0, a0, 1
   16272: 81 45                        	mv	a1, zero
   16274: 63 05 b5 10                  	beq	a0, a1, 266
   16278: 6f 00 40 00                  	j	4
   1627c: 03 35 04 fe                  	ld	a0, -32(s0)
   16280: 03 45 85 01                  	lbu	a0, 24(a0)
   16284: 11 89                        	andi	a0, a0, 4
   16286: 81 45                        	mv	a1, zero
   16288: 63 16 b5 00                  	bne	a0, a1, 12
   1628c: 6f 00 40 00                  	j	4
   16290: 6f 00 e0 0e                  	j	238
   16294: 03 35 04 fe                  	ld	a0, -32(s0)
   16298: 03 45 85 01                  	lbu	a0, 24(a0)
   1629c: 09 89                        	andi	a0, a0, 2
   1629e: 81 45                        	mv	a1, zero
   162a0: 63 19 b5 02                  	bne	a0, a1, 50
   162a4: 6f 00 40 00                  	j	4
   162a8: 03 35 04 fe                  	ld	a0, -32(s0)
   162ac: 08 61                        	ld	a0, 0(a0)
   162ae: 83 35 84 fe                  	ld	a1, -24(s0)
   162b2: 63 1e b5 00                  	bne	a0, a1, 28
   162b6: 6f 00 40 00                  	j	4
   162ba: 03 35 04 fe                  	ld	a0, -32(s0)
   162be: 83 05 85 01                  	lb	a1, 24(a0)
   162c2: 93 e5 25 00                  	ori	a1, a1, 2
   162c6: 23 0c b5 00                  	sb	a1, 24(a0)
   162ca: 6f 00 40 00                  	j	4
   162ce: 6f 00 40 00                  	j	4
   162d2: 05 45                        	addi	a0, zero, 1
   162d4: a3 03 a4 fc                  	sb	a0, -57(s0)
   162d8: 03 35 04 fe                  	ld	a0, -32(s0)
   162dc: 03 45 85 01                  	lbu	a0, 24(a0)
   162e0: 09 89                        	andi	a0, a0, 2
   162e2: 81 45                        	mv	a1, zero
   162e4: 63 05 b5 06                  	beq	a0, a1, 106
   162e8: 6f 00 40 00                  	j	4
   162ec: 03 35 84 fd                  	ld	a0, -40(s0)
   162f0: 81 45                        	mv	a1, zero
   162f2: 63 10 b5 02                  	bne	a0, a1, 32
   162f6: 6f 00 40 00                  	j	4
   162fa: 01 45                        	mv	a0, zero
   162fc: a3 03 a4 fc                  	sb	a0, -57(s0)
   16300: 03 35 04 fe                  	ld	a0, -32(s0)
   16304: 23 3c a4 fc                  	sd	a0, -40(s0)
   16308: 05 45                        	addi	a0, zero, 1
   1630a: 23 2a a4 fc                  	sw	a0, -44(s0)
   1630e: 6f 00 e0 02                  	j	46
   16312: 03 35 04 fe                  	ld	a0, -32(s0)
   16316: 08 61                        	ld	a0, 0(a0)
   16318: 83 35 84 fc                  	ld	a1, -56(s0)
   1631c: 63 0e b5 00                  	beq	a0, a1, 28
   16320: 6f 00 40 00                  	j	4
   16324: 01 45                        	mv	a0, zero
   16326: a3 03 a4 fc                  	sb	a0, -57(s0)
   1632a: 03 25 44 fd                  	lw	a0, -44(s0)
   1632e: 05 05                        	addi	a0, a0, 1
   16330: 23 2a a4 fc                  	sw	a0, -44(s0)
   16334: 6f 00 40 00                  	j	4
   16338: 6f 00 40 00                  	j	4
   1633c: 03 35 04 fe                  	ld	a0, -32(s0)
   16340: 0c 61                        	ld	a1, 0(a0)
   16342: 08 65                        	ld	a0, 8(a0)
   16344: 2e 95                        	add	a0, a0, a1
   16346: 23 34 a4 fc                  	sd	a0, -56(s0)
   1634a: 6f 00 40 00                  	j	4
   1634e: 03 45 74 fc                  	lbu	a0, -57(s0)
   16352: 81 45                        	mv	a1, zero
   16354: 63 0e b5 00                  	beq	a0, a1, 28
   16358: 6f 00 40 00                  	j	4
   1635c: 13 05 44 fd                  	addi	a0, s0, -44
   16360: 93 05 84 fd                  	addi	a1, s0, -40
   16364: 97 00 00 00                  	auipc	ra, 0
   16368: e7 80 40 dd                  	jalr	-556(ra)
   1636c: 6f 00 40 00                  	j	4
   16370: 03 35 04 fe                  	ld	a0, -32(s0)
   16374: 08 69                        	ld	a0, 16(a0)
   16376: 23 30 a4 fe                  	sd	a0, -32(s0)
   1637a: 6f f0 9f eb                  	j	-328
   1637e: 13 05 44 fd                  	addi	a0, s0, -44
   16382: 93 05 84 fd                  	addi	a1, s0, -40
   16386: 97 00 00 00                  	auipc	ra, 0
   1638a: e7 80 20 db                  	jalr	-590(ra)
   1638e: 06 64                        	ld	s0, 64(sp)
   16390: a6 60                        	ld	ra, 72(sp)
   16392: 61 61                        	addi	sp, sp, 80
   16394: 82 80                        	ret

0000000000016396 dump:
   16396: 41 11                        	addi	sp, sp, -16
   16398: 06 e4                        	sd	ra, 8(sp)
   1639a: 22 e0                        	sd	s0, 0(sp)
   1639c: 00 08                        	addi	s0, sp, 16
   1639e: 02 64                        	ld	s0, 0(sp)
   163a0: a2 60                        	ld	ra, 8(sp)
   163a2: 41 01                        	addi	sp, sp, 16
   163a4: 82 80                        	ret
   163a6: 00 00                        	unimp	

00000000000163a8 closedir:
   163a8: 79 71                        	addi	sp, sp, -48
   163aa: 06 f4                        	sd	ra, 40(sp)
   163ac: 22 f0                        	sd	s0, 32(sp)
   163ae: 00 18                        	addi	s0, sp, 48
   163b0: 23 30 a4 fe                  	sd	a0, -32(s0)
   163b4: 03 35 04 fe                  	ld	a0, -32(s0)
   163b8: 08 41                        	lw	a0, 0(a0)
   163ba: 97 d0 ff ff                  	auipc	ra, 1048573
   163be: e7 80 a0 6c                  	jalr	1738(ra)
   163c2: 23 2e a4 fc                  	sw	a0, -36(s0)
   163c6: 03 35 04 fe                  	ld	a0, -32(s0)
   163ca: 97 00 00 00                  	auipc	ra, 0
   163ce: e7 80 c0 e3                  	jalr	-452(ra)
   163d2: 03 25 c4 fd                  	lw	a0, -36(s0)
   163d6: fd 55                        	addi	a1, zero, -1
   163d8: 63 c5 a5 02                  	blt	a1, a0, 42
   163dc: 6f 00 40 00                  	j	4
   163e0: 03 25 c4 fd                  	lw	a0, -36(s0)
   163e4: 81 45                        	mv	a1, zero
   163e6: 33 85 a5 40                  	sub	a0, a1, a0

00000000000163ea .LBB0_4:
   163ea: 97 15 00 00                  	auipc	a1, 1
   163ee: 83 b5 e5 56                  	ld	a1, 1390(a1)
   163f2: 88 c1                        	sw	a0, 0(a1)
   163f4: 05 45                        	addi	a0, zero, 1
   163f6: 02 15                        	slli	a0, a0, 32
   163f8: 7d 15                        	addi	a0, a0, -1
   163fa: 23 26 a4 fe                  	sw	a0, -20(s0)
   163fe: 6f 00 e0 00                  	j	14
   16402: 01 45                        	mv	a0, zero
   16404: 23 26 a4 fe                  	sw	a0, -20(s0)
   16408: 6f 00 40 00                  	j	4
   1640c: 03 25 c4 fe                  	lw	a0, -20(s0)
   16410: 02 74                        	ld	s0, 32(sp)
   16412: a2 70                        	ld	ra, 40(sp)
   16414: 45 61                        	addi	sp, sp, 48
   16416: 82 80                        	ret

0000000000016418 opendir:
   16418: 79 71                        	addi	sp, sp, -48
   1641a: 06 f4                        	sd	ra, 40(sp)
   1641c: 22 f0                        	sd	s0, 32(sp)
   1641e: 00 18                        	addi	s0, sp, 48
   16420: 23 30 a4 fe                  	sd	a0, -32(s0)
   16424: 03 35 04 fe                  	ld	a0, -32(s0)
   16428: 85 45                        	addi	a1, zero, 1
   1642a: 97 d0 ff ff                  	auipc	ra, 1048573
   1642e: e7 80 20 65                  	jalr	1618(ra)
   16432: 23 2e a4 fc                  	sw	a0, -36(s0)
   16436: 03 25 c4 fd                  	lw	a0, -36(s0)
   1643a: fd 55                        	addi	a1, zero, -1
   1643c: 63 c2 a5 02                  	blt	a1, a0, 36
   16440: 6f 00 40 00                  	j	4
   16444: 03 25 c4 fd                  	lw	a0, -36(s0)
   16448: 81 45                        	mv	a1, zero
   1644a: 33 85 a5 40                  	sub	a0, a1, a0

000000000001644e .LBB1_4:
   1644e: 17 16 00 00                  	auipc	a2, 1
   16452: 03 36 a6 50                  	ld	a2, 1290(a2)
   16456: 08 c2                        	sw	a0, 0(a2)
   16458: 23 34 b4 fe                  	sd	a1, -24(s0)
   1645c: 6f 00 a0 04                  	j	74
   16460: 13 05 00 02                  	addi	a0, zero, 32
   16464: 97 00 00 00                  	auipc	ra, 0
   16468: e7 80 20 9e                  	jalr	-1566(ra)
   1646c: 23 38 a4 fc                  	sd	a0, -48(s0)
   16470: 13 05 00 40                  	addi	a0, zero, 1024
   16474: 97 00 00 00                  	auipc	ra, 0
   16478: e7 80 20 9d                  	jalr	-1582(ra)
   1647c: 83 35 04 fd                  	ld	a1, -48(s0)
   16480: 88 e5                        	sd	a0, 8(a1)
   16482: 03 35 04 fd                  	ld	a0, -48(s0)
   16486: 81 45                        	mv	a1, zero
   16488: 0c e9                        	sd	a1, 16(a0)
   1648a: 03 35 04 fd                  	ld	a0, -48(s0)
   1648e: 0c ed                        	sd	a1, 24(a0)
   16490: 03 25 c4 fd                  	lw	a0, -36(s0)
   16494: 83 35 04 fd                  	ld	a1, -48(s0)
   16498: 88 c1                        	sw	a0, 0(a1)
   1649a: 03 35 04 fd                  	ld	a0, -48(s0)
   1649e: 23 34 a4 fe                  	sd	a0, -24(s0)
   164a2: 6f 00 40 00                  	j	4
   164a6: 03 35 84 fe                  	ld	a0, -24(s0)
   164aa: 02 74                        	ld	s0, 32(sp)
   164ac: a2 70                        	ld	ra, 40(sp)
   164ae: 45 61                        	addi	sp, sp, 48
   164b0: 82 80                        	ret

00000000000164b2 readdir:
   164b2: 39 71                        	addi	sp, sp, -64
   164b4: 06 fc                        	sd	ra, 56(sp)
   164b6: 22 f8                        	sd	s0, 48(sp)
   164b8: 80 00                        	addi	s0, sp, 64
   164ba: 23 30 a4 fe                  	sd	a0, -32(s0)
   164be: 03 35 04 fe                  	ld	a0, -32(s0)
   164c2: 0c 69                        	ld	a1, 16(a0)
   164c4: 08 6d                        	ld	a0, 24(a0)
   164c6: 63 fa a5 02                  	bgeu	a1, a0, 52
   164ca: 6f 00 40 00                  	j	4
   164ce: 03 35 04 fe                  	ld	a0, -32(s0)
   164d2: 0c 65                        	ld	a1, 8(a0)
   164d4: 08 69                        	ld	a0, 16(a0)
   164d6: 2e 95                        	add	a0, a0, a1
   164d8: 23 3c a4 fc                  	sd	a0, -40(s0)
   164dc: 03 35 84 fd                  	ld	a0, -40(s0)
   164e0: 03 55 05 01                  	lhu	a0, 16(a0)
   164e4: 83 35 04 fe                  	ld	a1, -32(s0)
   164e8: 90 69                        	ld	a2, 16(a1)
   164ea: 32 95                        	add	a0, a0, a2
   164ec: 88 e9                        	sd	a0, 16(a1)
   164ee: 03 35 84 fd                  	ld	a0, -40(s0)
   164f2: 23 34 a4 fe                  	sd	a0, -24(s0)
   164f6: 6f 00 c0 0a                  	j	172
   164fa: 03 35 04 fe                  	ld	a0, -32(s0)
   164fe: 08 6d                        	ld	a0, 24(a0)
   16500: 81 45                        	mv	a1, zero
   16502: 63 09 b5 00                  	beq	a0, a1, 18
   16506: 6f 00 40 00                  	j	4
   1650a: 01 45                        	mv	a0, zero
   1650c: 23 34 a4 fe                  	sd	a0, -24(s0)
   16510: 6f 00 20 09                  	j	146
   16514: 03 35 04 fe                  	ld	a0, -32(s0)
   16518: 0c 41                        	lw	a1, 0(a0)
   1651a: 08 65                        	ld	a0, 8(a0)
   1651c: 13 06 00 40                  	addi	a2, zero, 1024
   16520: 23 30 a4 fc                  	sd	a0, -64(s0)
   16524: 2e 85                        	add	a0, zero, a1
   16526: 83 35 04 fc                  	ld	a1, -64(s0)
   1652a: 97 d0 ff ff                  	auipc	ra, 1048573
   1652e: e7 80 40 5f                  	jalr	1524(ra)
   16532: 02 15                        	slli	a0, a0, 32
   16534: 01 91                        	srli	a0, a0, 32
   16536: 23 38 a4 fc                  	sd	a0, -48(s0)
   1653a: 03 35 04 fd                  	ld	a0, -48(s0)
   1653e: fd 55                        	addi	a1, zero, -1
   16540: 63 c2 a5 02                  	blt	a1, a0, 36
   16544: 6f 00 40 00                  	j	4
   16548: 03 35 04 fd                  	ld	a0, -48(s0)
   1654c: 81 45                        	mv	a1, zero
   1654e: 33 85 a5 40                  	sub	a0, a1, a0

0000000000016552 .LBB2_8:
   16552: 17 16 00 00                  	auipc	a2, 1
   16556: 03 36 66 40                  	ld	a2, 1030(a2)
   1655a: 08 c2                        	sw	a0, 0(a2)
   1655c: 23 34 b4 fe                  	sd	a1, -24(s0)
   16560: 6f 00 20 04                  	j	66
   16564: 03 35 04 fd                  	ld	a0, -48(s0)
   16568: 83 35 04 fe                  	ld	a1, -32(s0)
   1656c: 88 ed                        	sd	a0, 24(a1)
   1656e: 03 35 04 fe                  	ld	a0, -32(s0)
   16572: 81 45                        	mv	a1, zero
   16574: 0c e9                        	sd	a1, 16(a0)
   16576: 03 35 04 fe                  	ld	a0, -32(s0)
   1657a: 0c 65                        	ld	a1, 8(a0)
   1657c: 08 69                        	ld	a0, 16(a0)
   1657e: 2e 95                        	add	a0, a0, a1
   16580: 23 34 a4 fc                  	sd	a0, -56(s0)
   16584: 03 35 84 fc                  	ld	a0, -56(s0)
   16588: 03 55 05 01                  	lhu	a0, 16(a0)
   1658c: 83 35 04 fe                  	ld	a1, -32(s0)
   16590: 90 69                        	ld	a2, 16(a1)
   16592: 32 95                        	add	a0, a0, a2
   16594: 88 e9                        	sd	a0, 16(a1)
   16596: 03 35 84 fc                  	ld	a0, -56(s0)
   1659a: 23 34 a4 fe                  	sd	a0, -24(s0)
   1659e: 6f 00 40 00                  	j	4
   165a2: 03 35 84 fe                  	ld	a0, -24(s0)
   165a6: 42 74                        	ld	s0, 48(sp)
   165a8: e2 70                        	ld	ra, 56(sp)
   165aa: 21 61                        	addi	sp, sp, 64
   165ac: 82 80                        	ret

00000000000165ae readdir_r:
   165ae: 39 71                        	addi	sp, sp, -64
   165b0: 06 fc                        	sd	ra, 56(sp)
   165b2: 22 f8                        	sd	s0, 48(sp)
   165b4: 80 00                        	addi	s0, sp, 64
   165b6: 23 30 a4 fe                  	sd	a0, -32(s0)
   165ba: 23 3c b4 fc                  	sd	a1, -40(s0)
   165be: 23 38 c4 fc                  	sd	a2, -48(s0)
   165c2: 03 35 04 fe                  	ld	a0, -32(s0)
   165c6: 97 00 00 00                  	auipc	ra, 0
   165ca: e7 80 c0 ee                  	jalr	-276(ra)
   165ce: 23 34 a4 fc                  	sd	a0, -56(s0)
   165d2: 03 35 84 fc                  	ld	a0, -56(s0)
   165d6: 81 45                        	mv	a1, zero
   165d8: 63 1b b5 00                  	bne	a0, a1, 22
   165dc: 6f 00 40 00                  	j	4
   165e0: 05 45                        	addi	a0, zero, 1
   165e2: 02 15                        	slli	a0, a0, 32
   165e4: 7d 15                        	addi	a0, a0, -1
   165e6: 23 26 a4 fe                  	sw	a0, -20(s0)
   165ea: 6f 00 c0 02                  	j	44
   165ee: 03 35 84 fd                  	ld	a0, -40(s0)
   165f2: 83 35 84 fc                  	ld	a1, -56(s0)
   165f6: 90 69                        	ld	a2, 16(a1)
   165f8: 10 e9                        	sd	a2, 16(a0)
   165fa: 90 65                        	ld	a2, 8(a1)
   165fc: 10 e5                        	sd	a2, 8(a0)
   165fe: 8c 61                        	ld	a1, 0(a1)
   16600: 0c e1                        	sd	a1, 0(a0)
   16602: 03 35 84 fc                  	ld	a0, -56(s0)
   16606: 83 35 04 fd                  	ld	a1, -48(s0)
   1660a: 88 e1                        	sd	a0, 0(a1)
   1660c: 01 45                        	mv	a0, zero
   1660e: 23 26 a4 fe                  	sw	a0, -20(s0)
   16612: 6f 00 40 00                  	j	4
   16616: 03 25 c4 fe                  	lw	a0, -20(s0)
   1661a: 42 74                        	ld	s0, 48(sp)
   1661c: e2 70                        	ld	ra, 56(sp)
   1661e: 21 61                        	addi	sp, sp, 64
   16620: 82 80                        	ret

0000000000016622 rewinddir:
   16622: 01 11                        	addi	sp, sp, -32
   16624: 06 ec                        	sd	ra, 24(sp)
   16626: 22 e8                        	sd	s0, 16(sp)
   16628: 00 10                        	addi	s0, sp, 32
   1662a: 23 34 a4 fe                  	sd	a0, -24(s0)
   1662e: 03 35 84 fe                  	ld	a0, -24(s0)
   16632: 81 45                        	mv	a1, zero
   16634: 0c e9                        	sd	a1, 16(a0)
   16636: 42 64                        	ld	s0, 16(sp)
   16638: e2 60                        	ld	ra, 24(sp)
   1663a: 05 61                        	addi	sp, sp, 32
   1663c: 82 80                        	ret

000000000001663e seekdir:
   1663e: 01 11                        	addi	sp, sp, -32
   16640: 06 ec                        	sd	ra, 24(sp)
   16642: 22 e8                        	sd	s0, 16(sp)
   16644: 00 10                        	addi	s0, sp, 32
   16646: 23 34 a4 fe                  	sd	a0, -24(s0)
   1664a: 23 30 b4 fe                  	sd	a1, -32(s0)
   1664e: 03 35 04 fe                  	ld	a0, -32(s0)
   16652: 83 35 84 fe                  	ld	a1, -24(s0)
   16656: 88 e9                        	sd	a0, 16(a1)
   16658: 42 64                        	ld	s0, 16(sp)
   1665a: e2 60                        	ld	ra, 24(sp)
   1665c: 05 61                        	addi	sp, sp, 32
   1665e: 82 80                        	ret

0000000000016660 telldir:
   16660: 01 11                        	addi	sp, sp, -32
   16662: 06 ec                        	sd	ra, 24(sp)
   16664: 22 e8                        	sd	s0, 16(sp)
   16666: 00 10                        	addi	s0, sp, 32
   16668: 23 34 a4 fe                  	sd	a0, -24(s0)
   1666c: 03 35 84 fe                  	ld	a0, -24(s0)
   16670: 08 69                        	ld	a0, 16(a0)
   16672: 42 64                        	ld	s0, 16(sp)
   16674: e2 60                        	ld	ra, 24(sp)
   16676: 05 61                        	addi	sp, sp, 32
   16678: 82 80                        	ret
   1667a: 00 00                        	unimp	

000000000001667c swap:
   1667c: 5d 71                        	addi	sp, sp, -80
   1667e: 86 e4                        	sd	ra, 72(sp)
   16680: a2 e0                        	sd	s0, 64(sp)
   16682: 80 08                        	addi	s0, sp, 80
   16684: 23 34 a4 fe                  	sd	a0, -24(s0)
   16688: 23 30 b4 fe                  	sd	a1, -32(s0)
   1668c: 23 3c c4 fc                  	sd	a2, -40(s0)
   16690: 23 38 d4 fc                  	sd	a3, -48(s0)
   16694: 03 35 84 fe                  	ld	a0, -24(s0)
   16698: 83 35 04 fe                  	ld	a1, -32(s0)
   1669c: 03 36 84 fd                  	ld	a2, -40(s0)
   166a0: b3 85 c5 02                  	<unknown>
   166a4: 2e 95                        	add	a0, a0, a1
   166a6: 23 34 a4 fc                  	sd	a0, -56(s0)
   166aa: 03 35 84 fe                  	ld	a0, -24(s0)
   166ae: 83 35 04 fe                  	ld	a1, -32(s0)
   166b2: 03 36 04 fd                  	ld	a2, -48(s0)
   166b6: b3 85 c5 02                  	<unknown>
   166ba: 2e 95                        	add	a0, a0, a1
   166bc: 23 30 a4 fc                  	sd	a0, -64(s0)
   166c0: 01 45                        	mv	a0, zero
   166c2: 23 3c a4 fa                  	sd	a0, -72(s0)
   166c6: 6f 00 40 00                  	j	4
   166ca: 03 35 84 fb                  	ld	a0, -72(s0)
   166ce: 83 35 04 fe                  	ld	a1, -32(s0)
   166d2: 63 7b b5 04                  	bgeu	a0, a1, 86
   166d6: 6f 00 40 00                  	j	4
   166da: 03 35 04 fc                  	ld	a0, -64(s0)
   166de: 83 35 84 fb                  	ld	a1, -72(s0)
   166e2: 2e 95                        	add	a0, a0, a1
   166e4: 03 05 05 00                  	lb	a0, 0(a0)
   166e8: a3 0b a4 fa                  	sb	a0, -73(s0)
   166ec: 03 35 84 fc                  	ld	a0, -56(s0)
   166f0: 83 35 84 fb                  	ld	a1, -72(s0)
   166f4: 2e 95                        	add	a0, a0, a1
   166f6: 03 05 05 00                  	lb	a0, 0(a0)
   166fa: 03 36 04 fc                  	ld	a2, -64(s0)
   166fe: b2 95                        	add	a1, a1, a2
   16700: 23 80 a5 00                  	sb	a0, 0(a1)
   16704: 03 05 74 fb                  	lb	a0, -73(s0)
   16708: 83 35 84 fc                  	ld	a1, -56(s0)
   1670c: 03 36 84 fb                  	ld	a2, -72(s0)
   16710: b2 95                        	add	a1, a1, a2
   16712: 23 80 a5 00                  	sb	a0, 0(a1)
   16716: 6f 00 40 00                  	j	4
   1671a: 03 35 84 fb                  	ld	a0, -72(s0)
   1671e: 05 05                        	addi	a0, a0, 1
   16720: 23 3c a4 fa                  	sd	a0, -72(s0)
   16724: 6f f0 7f fa                  	j	-90
   16728: 06 64                        	ld	s0, 64(sp)
   1672a: a6 60                        	ld	ra, 72(sp)
   1672c: 61 61                        	addi	sp, sp, 80
   1672e: 82 80                        	ret

0000000000016730 partition:
   16730: 1d 71                        	addi	sp, sp, -96
   16732: 86 ec                        	sd	ra, 88(sp)
   16734: a2 e8                        	sd	s0, 80(sp)
   16736: 80 10                        	addi	s0, sp, 96
   16738: 23 34 a4 fe                  	sd	a0, -24(s0)
   1673c: 23 30 b4 fe                  	sd	a1, -32(s0)
   16740: 23 3c c4 fc                  	sd	a2, -40(s0)
   16744: 23 38 d4 fc                  	sd	a3, -48(s0)
   16748: 23 34 e4 fc                  	sd	a4, -56(s0)
   1674c: 23 30 f4 fc                  	sd	a5, -64(s0)
   16750: 03 35 04 fc                  	ld	a0, -64(s0)
   16754: 23 3c a4 fa                  	sd	a0, -72(s0)
   16758: 03 35 84 fc                  	ld	a0, -56(s0)
   1675c: 7d 15                        	addi	a0, a0, -1
   1675e: 23 38 a4 fa                  	sd	a0, -80(s0)
   16762: 03 35 84 fc                  	ld	a0, -56(s0)
   16766: 23 26 a4 fa                  	sw	a0, -84(s0)
   1676a: 6f 00 40 00                  	j	4
   1676e: 03 25 c4 fa                  	lw	a0, -84(s0)
   16772: 83 35 04 fc                  	ld	a1, -64(s0)
   16776: 63 5b b5 06                  	bge	a0, a1, 118
   1677a: 6f 00 40 00                  	j	4
   1677e: 03 35 04 fd                  	ld	a0, -48(s0)
   16782: 83 35 84 fe                  	ld	a1, -24(s0)
   16786: 03 36 84 fd                  	ld	a2, -40(s0)
   1678a: 83 26 c4 fa                  	lw	a3, -84(s0)
   1678e: b3 06 d6 02                  	<unknown>
   16792: ae 96                        	add	a3, a3, a1
   16794: 03 37 04 fc                  	ld	a4, -64(s0)
   16798: 33 06 e6 02                  	<unknown>
   1679c: b2 95                        	add	a1, a1, a2
   1679e: 23 30 a4 fa                  	sd	a0, -96(s0)
   167a2: 36 85                        	add	a0, zero, a3
   167a4: 03 36 04 fa                  	ld	a2, -96(s0)
   167a8: 02 96                        	jalr	a2
   167aa: 81 45                        	mv	a1, zero
   167ac: 63 c7 a5 02                  	blt	a1, a0, 46
   167b0: 6f 00 40 00                  	j	4
   167b4: 03 35 04 fb                  	ld	a0, -80(s0)
   167b8: 05 05                        	addi	a0, a0, 1
   167ba: 23 38 a4 fa                  	sd	a0, -80(s0)
   167be: 03 35 84 fe                  	ld	a0, -24(s0)
   167c2: 83 35 84 fd                  	ld	a1, -40(s0)
   167c6: 03 36 04 fb                  	ld	a2, -80(s0)
   167ca: 83 26 c4 fa                  	lw	a3, -84(s0)
   167ce: 97 00 00 00                  	auipc	ra, 0
   167d2: e7 80 e0 ea                  	jalr	-338(ra)
   167d6: 6f 00 40 00                  	j	4
   167da: 6f 00 40 00                  	j	4
   167de: 03 25 c4 fa                  	lw	a0, -84(s0)
   167e2: 05 05                        	addi	a0, a0, 1
   167e4: 23 26 a4 fa                  	sw	a0, -84(s0)
   167e8: 6f f0 7f f8                  	j	-122
   167ec: 03 35 04 fb                  	ld	a0, -80(s0)
   167f0: 05 05                        	addi	a0, a0, 1
   167f2: 23 38 a4 fa                  	sd	a0, -80(s0)
   167f6: 03 35 84 fe                  	ld	a0, -24(s0)
   167fa: 83 35 84 fd                  	ld	a1, -40(s0)
   167fe: 03 36 04 fb                  	ld	a2, -80(s0)
   16802: 83 36 04 fc                  	ld	a3, -64(s0)
   16806: 97 00 00 00                  	auipc	ra, 0
   1680a: e7 80 60 e7                  	jalr	-394(ra)
   1680e: 03 35 04 fb                  	ld	a0, -80(s0)
   16812: 46 64                        	ld	s0, 80(sp)
   16814: e6 60                        	ld	ra, 88(sp)
   16816: 25 61                        	addi	sp, sp, 96
   16818: 82 80                        	ret

000000000001681a quicksort:
   1681a: 5d 71                        	addi	sp, sp, -80
   1681c: 86 e4                        	sd	ra, 72(sp)
   1681e: a2 e0                        	sd	s0, 64(sp)
   16820: 80 08                        	addi	s0, sp, 80
   16822: 23 34 a4 fe                  	sd	a0, -24(s0)
   16826: 23 30 b4 fe                  	sd	a1, -32(s0)
   1682a: 23 3c c4 fc                  	sd	a2, -40(s0)
   1682e: 23 38 d4 fc                  	sd	a3, -48(s0)
   16832: 23 34 e4 fc                  	sd	a4, -56(s0)
   16836: 23 30 f4 fc                  	sd	a5, -64(s0)
   1683a: 03 35 84 fc                  	ld	a0, -56(s0)
   1683e: 81 45                        	mv	a1, zero
   16840: 63 4b b5 08                  	blt	a0, a1, 150
   16844: 6f 00 40 00                  	j	4
   16848: 03 35 04 fc                  	ld	a0, -64(s0)
   1684c: 81 45                        	mv	a1, zero
   1684e: 63 44 b5 08                  	blt	a0, a1, 136
   16852: 6f 00 40 00                  	j	4
   16856: 03 35 84 fc                  	ld	a0, -56(s0)
   1685a: 83 35 04 fc                  	ld	a1, -64(s0)
   1685e: 63 5a b5 06                  	bge	a0, a1, 116
   16862: 6f 00 40 00                  	j	4
   16866: 03 35 84 fe                  	ld	a0, -24(s0)
   1686a: 83 35 04 fe                  	ld	a1, -32(s0)
   1686e: 03 36 84 fd                  	ld	a2, -40(s0)
   16872: 83 36 04 fd                  	ld	a3, -48(s0)
   16876: 03 37 84 fc                  	ld	a4, -56(s0)
   1687a: 83 37 04 fc                  	ld	a5, -64(s0)
   1687e: 97 00 00 00                  	auipc	ra, 0
   16882: e7 80 20 eb                  	jalr	-334(ra)
   16886: 23 3c a4 fa                  	sd	a0, -72(s0)
   1688a: 03 35 84 fe                  	ld	a0, -24(s0)
   1688e: 83 35 04 fe                  	ld	a1, -32(s0)
   16892: 03 36 84 fd                  	ld	a2, -40(s0)
   16896: 83 36 04 fd                  	ld	a3, -48(s0)
   1689a: 03 37 84 fc                  	ld	a4, -56(s0)
   1689e: 83 37 84 fb                  	ld	a5, -72(s0)
   168a2: fd 17                        	addi	a5, a5, -1
   168a4: 97 00 00 00                  	auipc	ra, 0
   168a8: e7 80 60 f7                  	jalr	-138(ra)
   168ac: 03 35 84 fe                  	ld	a0, -24(s0)
   168b0: 83 35 04 fe                  	ld	a1, -32(s0)
   168b4: 03 36 84 fd                  	ld	a2, -40(s0)
   168b8: 83 36 04 fd                  	ld	a3, -48(s0)
   168bc: 03 37 84 fb                  	ld	a4, -72(s0)
   168c0: 05 07                        	addi	a4, a4, 1
   168c2: 83 37 04 fc                  	ld	a5, -64(s0)
   168c6: 97 00 00 00                  	auipc	ra, 0
   168ca: e7 80 40 f5                  	jalr	-172(ra)
   168ce: 6f 00 40 00                  	j	4
   168d2: 6f 00 40 00                  	j	4
   168d6: 06 64                        	ld	s0, 64(sp)
   168d8: a6 60                        	ld	ra, 72(sp)
   168da: 61 61                        	addi	sp, sp, 80
   168dc: 82 80                        	ret

00000000000168de qsort:
   168de: 79 71                        	addi	sp, sp, -48
   168e0: 06 f4                        	sd	ra, 40(sp)
   168e2: 22 f0                        	sd	s0, 32(sp)
   168e4: 00 18                        	addi	s0, sp, 48
   168e6: 23 34 a4 fe                  	sd	a0, -24(s0)
   168ea: 23 30 b4 fe                  	sd	a1, -32(s0)
   168ee: 23 3c c4 fc                  	sd	a2, -40(s0)
   168f2: 23 38 d4 fc                  	sd	a3, -48(s0)
   168f6: 03 35 04 fe                  	ld	a0, -32(s0)
   168fa: 85 45                        	addi	a1, zero, 1
   168fc: 63 e6 a5 00                  	bltu	a1, a0, 12
   16900: 6f 00 40 00                  	j	4
   16904: 6f 00 80 03                  	j	56
   16908: 03 35 84 fd                  	ld	a0, -40(s0)
   1690c: 81 45                        	mv	a1, zero
   1690e: 63 16 b5 00                  	bne	a0, a1, 12
   16912: 6f 00 40 00                  	j	4
   16916: 6f 00 60 02                  	j	38
   1691a: 03 35 84 fe                  	ld	a0, -24(s0)
   1691e: 83 35 04 fe                  	ld	a1, -32(s0)
   16922: 03 36 84 fd                  	ld	a2, -40(s0)
   16926: 83 36 04 fd                  	ld	a3, -48(s0)
   1692a: 93 87 f5 ff                  	addi	a5, a1, -1
   1692e: 01 47                        	mv	a4, zero
   16930: 97 00 00 00                  	auipc	ra, 0
   16934: e7 80 a0 ee                  	jalr	-278(ra)
   16938: 6f 00 40 00                  	j	4
   1693c: 02 74                        	ld	s0, 32(sp)
   1693e: a2 70                        	ld	ra, 40(sp)
   16940: 45 61                        	addi	sp, sp, 48
   16942: 82 80                        	ret

0000000000016944 _start:
   16944: 97 b0 ff ff                  	auipc	ra, 1048571
   16948: e7 80 c0 ef                  	jalr	-260(ra)
   1694c: 93 08 c0 03                  	addi	a7, zero, 60
   16950: 73 00 00 00                  	ecall	
   16954: 01 a0                        	j	0
